
lab1.elf:     file format elf32-littlenios2
lab1.elf
architecture: nios2, flags 0x00000112:
EXEC_P, HAS_SYMS, D_PAGED
start address 0x0080019c

Program Header:
    LOAD off    0x00001020 vaddr 0x01104020 paddr 0x00800000 align 2**12
         filesz 0x0000019c memsz 0x0000019c flags r-x
    LOAD off    0x0000219c vaddr 0x0080019c paddr 0x0080019c align 2**12
         filesz 0x0000e564 memsz 0x0000e564 flags r-x
    LOAD off    0x00010700 vaddr 0x0080e700 paddr 0x008101fc align 2**12
         filesz 0x00001afc memsz 0x00001afc flags rw-
    LOAD off    0x00012cf8 vaddr 0x00811cf8 paddr 0x00811cf8 align 2**12
         filesz 0x00000000 memsz 0x00009570 flags rw-
    LOAD off    0x00013000 vaddr 0x01104000 paddr 0x01104000 align 2**12
         filesz 0x00000020 memsz 0x00000020 flags r-x

Sections:
Idx Name          Size      VMA       LMA       File off  Algn
  0 .entry        00000020  01104000  01104000  00013000  2**5
                  CONTENTS, ALLOC, LOAD, READONLY, CODE
  1 .exceptions   0000019c  01104020  00800000  00001020  2**2
                  CONTENTS, ALLOC, LOAD, READONLY, CODE
  2 .text         0000e388  0080019c  0080019c  0000219c  2**2
                  CONTENTS, ALLOC, LOAD, READONLY, CODE
  3 .rodata       000001dc  0080e524  0080e524  00010524  2**2
                  CONTENTS, ALLOC, LOAD, READONLY, DATA
  4 .rwdata       00001afc  0080e700  008101fc  00010700  2**2
                  CONTENTS, ALLOC, LOAD, DATA, SMALL_DATA
  5 .bss          00009570  00811cf8  00811cf8  00012cf8  2**2
                  ALLOC, SMALL_DATA
  6 .comment      00000026  00000000  00000000  00013020  2**0
                  CONTENTS, READONLY
  7 .debug_aranges 00000a78  00000000  00000000  00013048  2**3
                  CONTENTS, READONLY, DEBUGGING
  8 .debug_pubnames 00001c71  00000000  00000000  00013ac0  2**0
                  CONTENTS, READONLY, DEBUGGING
  9 .debug_info   00026ff8  00000000  00000000  00015731  2**0
                  CONTENTS, READONLY, DEBUGGING
 10 .debug_abbrev 00006945  00000000  00000000  0003c729  2**0
                  CONTENTS, READONLY, DEBUGGING
 11 .debug_line   00013b69  00000000  00000000  0004306e  2**0
                  CONTENTS, READONLY, DEBUGGING
 12 .debug_frame  00001e58  00000000  00000000  00056bd8  2**2
                  CONTENTS, READONLY, DEBUGGING
 13 .debug_str    00001908  00000000  00000000  00058a30  2**0
                  CONTENTS, READONLY, DEBUGGING
 14 .debug_loc    000047cb  00000000  00000000  0005a338  2**0
                  CONTENTS, READONLY, DEBUGGING
 15 .debug_alt_sim_info 00000010  00000000  00000000  0005eb04  2**2
                  CONTENTS, READONLY, DEBUGGING
 16 .debug_ranges 000001d8  00000000  00000000  0005eb18  2**3
                  CONTENTS, READONLY, DEBUGGING
 17 .thread_model 00000006  00000000  00000000  00062df3  2**0
                  CONTENTS, READONLY
 18 .cpu          0000000c  00000000  00000000  00062df9  2**0
                  CONTENTS, READONLY
 19 .qsys         00000001  00000000  00000000  00062e05  2**0
                  CONTENTS, READONLY
 20 .simulation_enabled 00000001  00000000  00000000  00062e06  2**0
                  CONTENTS, READONLY
 21 .sysid_hash   00000004  00000000  00000000  00062e07  2**0
                  CONTENTS, READONLY
 22 .sysid_base   00000004  00000000  00000000  00062e0b  2**0
                  CONTENTS, READONLY
 23 .sysid_time   00000004  00000000  00000000  00062e0f  2**0
                  CONTENTS, READONLY
 24 .stderr_dev   0000000b  00000000  00000000  00062e13  2**0
                  CONTENTS, READONLY
 25 .stdin_dev    0000000b  00000000  00000000  00062e1e  2**0
                  CONTENTS, READONLY
 26 .stdout_dev   0000000b  00000000  00000000  00062e29  2**0
                  CONTENTS, READONLY
 27 .sopc_system_name 0000000d  00000000  00000000  00062e34  2**0
                  CONTENTS, READONLY
 28 .quartus_project_dir 00000043  00000000  00000000  00062e41  2**0
                  CONTENTS, READONLY
 29 .jdi          00005269  00000000  00000000  00062e84  2**0
                  CONTENTS, READONLY
 30 .sopcinfo     0005927c  00000000  00000000  000680ed  2**0
                  CONTENTS, READONLY
SYMBOL TABLE:
01104000 l    d  .entry	00000000 .entry
01104020 l    d  .exceptions	00000000 .exceptions
0080019c l    d  .text	00000000 .text
0080e524 l    d  .rodata	00000000 .rodata
0080e700 l    d  .rwdata	00000000 .rwdata
00811cf8 l    d  .bss	00000000 .bss
00000000 l    d  .comment	00000000 .comment
00000000 l    d  .debug_aranges	00000000 .debug_aranges
00000000 l    d  .debug_pubnames	00000000 .debug_pubnames
00000000 l    d  .debug_info	00000000 .debug_info
00000000 l    d  .debug_abbrev	00000000 .debug_abbrev
00000000 l    d  .debug_line	00000000 .debug_line
00000000 l    d  .debug_frame	00000000 .debug_frame
00000000 l    d  .debug_str	00000000 .debug_str
00000000 l    d  .debug_loc	00000000 .debug_loc
00000000 l    d  .debug_alt_sim_info	00000000 .debug_alt_sim_info
00000000 l    d  .debug_ranges	00000000 .debug_ranges
008001d4 l       .text	00000000 alt_after_alt_main
00000000 l    df *ABS*	00000000 alt_irq_handler.c
00000000 l    df *ABS*	00000000 hello_ucosii.c
00000000 l    df *ABS*	00000000 alt_load.c
008004c8 l     F .text	0000006c alt_load_section
00000000 l    df *ABS*	00000000 alt_main.c
00000000 l    df *ABS*	00000000 alt_printf.c
00000000 l    df *ABS*	00000000 alt_putchar.c
00000000 l    df *ABS*	00000000 alt_env_lock.c
00810148 l     O .rwdata	00000004 lockid
00811d0c l     O .bss	00000004 locks
00000000 l    df *ABS*	00000000 alt_malloc_lock.c
0081014c l     O .rwdata	00000004 lockid
00811d14 l     O .bss	00000004 locks
00000000 l    df *ABS*	00000000 os_core.c
0080226c l     F .text	00000044 OS_InitMisc
008022b0 l     F .text	0000006c OS_InitRdyList
00802414 l     F .text	000000e0 OS_InitTCBList
00802190 l     F .text	000000dc OS_InitEventList
0080231c l     F .text	0000007c OS_InitTaskIdle
00802398 l     F .text	0000007c OS_InitTaskStat
00802688 l     F .text	00000070 OS_SchedNew
00000000 l    df *ABS*	00000000 os_dbg.c
00000000 l    df *ABS*	00000000 os_flag.c
008045a8 l     F .text	00000110 OS_FlagTaskRdy
00804300 l     F .text	000001c4 OS_FlagBlock
00000000 l    df *ABS*	00000000 os_mem.c
00000000 l    df *ABS*	00000000 os_q.c
00000000 l    df *ABS*	00000000 os_sem.c
00000000 l    df *ABS*	00000000 os_task.c
00000000 l    df *ABS*	00000000 os_time.c
00000000 l    df *ABS*	00000000 alt_sys_init.c
0080e700 l     O .rwdata	0000106c jtag_uart_0
0080f76c l     O .rwdata	0000002c character_lcd_0
00808f08 l     F .text	00000038 alt_dev_reg
00000000 l    df *ABS*	00000000 altera_avalon_jtag_uart_fd.c
00000000 l    df *ABS*	00000000 altera_avalon_jtag_uart_init.c
008091c0 l     F .text	000002c4 altera_avalon_jtag_uart_irq
00809484 l     F .text	00000114 altera_avalon_jtag_uart_timeout
00000000 l    df *ABS*	00000000 altera_avalon_jtag_uart_ioctl.c
00000000 l    df *ABS*	00000000 altera_avalon_jtag_uart_read.c
00000000 l    df *ABS*	00000000 altera_avalon_jtag_uart_write.c
00000000 l    df *ABS*	00000000 altera_avalon_timer_sc.c
00809c9c l     F .text	00000070 alt_avalon_timer_sc_irq
00000000 l    df *ABS*	00000000 altera_up_avalon_character_lcd.c
00000000 l    df *ABS*	00000000 alt_alarm_start.c
00000000 l    df *ABS*	00000000 alt_close.c
0080a520 l     F .text	00000060 alt_get_errno
00000000 l    df *ABS*	00000000 alt_dcache_flush_all.c
00000000 l    df *ABS*	00000000 alt_dev.c
0080a59c l     F .text	0000002c alt_dev_null_write
00000000 l    df *ABS*	00000000 alt_dev_llist_insert.c
0080a67c l     F .text	00000060 alt_get_errno
00000000 l    df *ABS*	00000000 alt_do_ctors.c
00000000 l    df *ABS*	00000000 alt_do_dtors.c
00000000 l    df *ABS*	00000000 alt_errno.c
00000000 l    df *ABS*	00000000 alt_find_dev.c
00000000 l    df *ABS*	00000000 alt_icache_flush_all.c
00000000 l    df *ABS*	00000000 alt_iic.c
00000000 l    df *ABS*	00000000 alt_iic_isr_register.c
00000000 l    df *ABS*	00000000 alt_io_redirect.c
0080ab20 l     F .text	000000d8 alt_open_fd
00000000 l    df *ABS*	00000000 alt_irq_vars.c
00000000 l    df *ABS*	00000000 alt_open.c
0080ac70 l     F .text	000000f8 alt_file_locked
0080aef4 l     F .text	00000060 alt_get_errno
00000000 l    df *ABS*	00000000 alt_release_fd.c
00000000 l    df *ABS*	00000000 alt_tick.c
00000000 l    df *ABS*	00000000 altera_nios2_qsys_irq.c
00000040 l       *ABS*	00000000 OSCtxSw_SWITCH_PC
00000000 l    df *ABS*	00000000 os_cpu_c.c
00000014 l       *ABS*	00000000 OSTCBNext_OFFSET
00000032 l       *ABS*	00000000 OSTCBPrio_OFFSET
00000000 l       *ABS*	00000000 OSTCBStkPtr_OFFSET
00000000 l    df *ABS*	00000000 alt_find_file.c
00000000 l    df *ABS*	00000000 alt_get_fd.c
00000000 l    df *ABS*	00000000 atexit.c
00000000 l    df *ABS*	00000000 exit.c
00000000 l    df *ABS*	00000000 impure.c
0080f940 l     O .rwdata	00000400 impure_data
00000000 l    df *ABS*	00000000 int_errno.c
00000000 l    df *ABS*	00000000 memcmp.c
00000000 l    df *ABS*	00000000 memcpy.c
00000000 l    df *ABS*	00000000 memset.c
00000000 l    df *ABS*	00000000 putc.c
00000000 l    df *ABS*	00000000 strlen.c
00000000 l    df *ABS*	00000000 wbuf.c
00000000 l    df *ABS*	00000000 wsetup.c
00000000 l    df *ABS*	00000000 __atexit.c
00000000 l    df *ABS*	00000000 __call_atexit.c
0080c0b4 l     F .text	00000004 register_fini
00000000 l    df *ABS*	00000000 fflush.c
00000000 l    df *ABS*	00000000 findfp.c
0080c498 l     F .text	00000058 std
0080c5a4 l     F .text	00000008 __fp_lock
0080c5ac l     F .text	00000008 __fp_unlock
00000000 l    df *ABS*	00000000 mallocr.c
00000000 l    df *ABS*	00000000 fwalk.c
00000000 l    df *ABS*	00000000 makebuf.c
00000000 l    df *ABS*	00000000 mallocr.c
00000000 l    df *ABS*	00000000 sbrkr.c
00000000 l    df *ABS*	00000000 stdio.c
00000000 l    df *ABS*	00000000 writer.c
00000000 l    df *ABS*	00000000 closer.c
00000000 l    df *ABS*	00000000 fclose.c
00000000 l    df *ABS*	00000000 fstatr.c
00000000 l    df *ABS*	00000000 isattyr.c
00000000 l    df *ABS*	00000000 lseekr.c
00000000 l    df *ABS*	00000000 readr.c
00000000 l    df *ABS*	00000000 lib2-divmod.c
0080dbbc l     F .text	0000007c udivmodsi4
00000000 l    df *ABS*	00000000 lib2-mul.c
00000000 l    df *ABS*	00000000 alt_exit.c
0080dd40 l     F .text	00000040 alt_sim_halt
00000000 l    df *ABS*	00000000 alt_fstat.c
0080de84 l     F .text	00000060 alt_get_errno
00000000 l    df *ABS*	00000000 alt_isatty.c
0080dfa8 l     F .text	00000060 alt_get_errno
00000000 l    df *ABS*	00000000 alt_lseek.c
0080e0fc l     F .text	00000060 alt_get_errno
00000000 l    df *ABS*	00000000 alt_read.c
0080e280 l     F .text	00000060 alt_get_errno
00000000 l    df *ABS*	00000000 alt_sbrk.c
008101f8 l     O .rwdata	00000004 heap_end
00000000 l    df *ABS*	00000000 alt_write.c
0080e4c0 l     F .text	00000060 alt_get_errno
0081019a g     O .rwdata	00000002 OSTaskNameSize
0080da5c g     F .text	00000070 _isatty_r
00800534 g     F .text	000000c8 alt_main
0081afd8 g     O .bss	00000100 alt_irq
0080dacc g     F .text	00000078 _lseek_r
00804e9c g     F .text	000000d4 OS_MemInit
008101fc g       *ABS*	00000000 __flash_rwdata_start
00808dfc g     F .text	00000064 OSTimeSet
00809e18 g     F .text	00000034 alt_up_character_lcd_send_cmd
00800de8 g     F .text	000006b4 OSEventPendMulti
0081b268 g       *ABS*	00000000 __alt_heap_start
0080b574 g     F .text	00000020 OSTaskCreateHook
00811db4 g     O .bss	00002000 task1_stk
00810172 g     O .rwdata	00000002 OSMboxEn
008014f0 g     F .text	0000007c OSIntEnter
0080d698 g     F .text	00000068 __sseek
0080c500 g     F .text	000000a4 __sinit
0080bcf8 g     F .text	00000130 __swbuf_r
00810182 g     O .rwdata	00000002 OSQEn
0080c600 g     F .text	0000009c __sfmoreglue
00800aa4 g     F .text	000000d0 __malloc_unlock
0080b5d0 g     F .text	0000001c OSTaskStatHook
00811d1c g     O .bss	00000001 OSLockNesting
008101c0 g     O .rwdata	00000002 OSDataSize
00811d1d g     O .bss	00000001 OSRunning
0080b608 g     F .text	0000001c OSInitHookBegin
008101b8 g     O .rwdata	00000002 OSTmrSize
0080c5f0 g     F .text	00000010 _cleanup
00811d20 g     O .bss	00000004 OSIdleCtr
0080b240 g       .text	00000000 OSStartTsk
00000000  w      *UND*	00000000 __errno
00809d9c g     F .text	0000007c get_DDRAM_addr
008029bc g     F .text	000002e0 OS_TCBInit
01104000 g     F .entry	0000000c __reset
008101be g     O .rwdata	00000002 OSTmrWheelTblSize
00800000 g       *ABS*	00000000 __flash_exceptions_start
0081015e g     O .rwdata	00000002 OSEventSize
0080d9e8 g     F .text	00000074 _fstat_r
00811d24 g     O .bss	00000001 OSPrioHighRdy
0080b594 g     F .text	00000020 OSTaskDelHook
00811d7c g     O .bss	00000004 errno
0080b220 g       .text	00000000 OSStartHighRdy
008075b4 g     F .text	00000200 OSTaskCreateExt
00803e1c g     F .text	00000068 OSFlagPendGetFlagsRdy
0081019e g     O .rwdata	00000002 OSTaskStatStkSize
00802e28 g     F .text	00000334 OSFlagAccept
008055d8 g     F .text	000000c8 OSQFlush
00804f70 g     F .text	00000154 OSQAccept
00811d04 g     O .bss	00000004 alt_argv
00818148 g       *ABS*	00000000 _gp
008073e0 g     F .text	000001d4 OSTaskCreate
00806e6c g     F .text	00000574 OSTaskChangePrio
00811d18 g     O .bss	00000004 alt_heapsem
00802c9c g     F .text	0000018c OSDebugInit
008077b4 g     F .text	0000040c OSTaskDel
0080f7c0 g     O .rwdata	00000180 alt_fd_list
00817db4 g     O .bss	00000370 OSFlagTbl
00801f6c g     F .text	000000b8 OS_EventTaskRemove
0080a7a4 g     F .text	00000094 alt_find_dev
0080b960 g     F .text	000000a0 memcpy
00810188 g     O .rwdata	00000002 OSRdyTblSize
00809fb0 g     F .text	0000004c alt_up_character_lcd_write_fd
0080c5e4 g     F .text	0000000c _cleanup_r
0080abf8 g     F .text	00000078 alt_io_redirect
0080e524 g       *ABS*	00000000 __DTOR_END__
00800b74 g     F .text	00000130 OSEventNameGet
0081016c g     O .rwdata	00000002 OSFlagMax
0080156c g     F .text	00000100 OSIntExit
008101a6 g     O .rwdata	00000002 OSTCBSize
00811d25 g     O .bss	00000001 OSPrioCur
00809700 g     F .text	000002c0 altera_avalon_jtag_uart_read
00000000  w      *UND*	00000000 malloc
01104000 g       *ABS*	00000000 __alt_mem_onchip_memory2_0
0080dcf8 g     F .text	00000008 __udivsi3
0080dee4 g     F .text	000000c4 isatty
0081018c g     O .rwdata	00000002 OSStkWidth
00810180 g     O .rwdata	00000002 OSPtrSize
00810160 g     O .rwdata	00000002 OSEventTblSize
0080b194 g       .text	00000000 OSCtxSw
00811cf8 g     O .bss	00000004 sharedSwitchKey
00811d80 g     O .bss	00000004 __malloc_top_pad
00811d28 g     O .bss	00000004 OSTCBList
00811d6c g     O .bss	00000004 alt_fd_list_lock
00818124 g     O .bss	00000c30 OSMemTbl
00811d2c g     O .bss	00000001 OSTickStepState
0080d620 g     F .text	00000070 _sbrk_r
00810184 g     O .rwdata	00000002 OSQMax
00818d54 g     O .bss	00000800 OSTaskStatStk
00804a84 g     F .text	0000010c OSMemNameGet
00810164 g     O .rwdata	00000002 OSFlagEn
0080db44 g     F .text	00000078 _read_r
008101aa g     O .rwdata	00000002 OSTimeTickHookEn
00805b3c g     F .text	00000180 OSQPost
008046b8 g     F .text	000000ac OS_FlagUnlink
008101d4 g     O .rwdata	00000004 alt_max_fd
00802548 g     F .text	0000006c OS_MemCopy
008025b4 g     F .text	000000d4 OS_Sched
0080d8c4 g     F .text	00000110 _fclose_r
00804980 g     F .text	00000104 OSMemGet
00807ee8 g     F .text	000001c4 OSTaskNameSet
0080c464 g     F .text	00000034 fflush
00811d84 g     O .bss	00000004 __malloc_max_sbrked_mem
00811d30 g     O .bss	00000004 OSCtxSwCtr
0080b5ec g     F .text	0000001c OSTimeTickHook
0081016e g     O .rwdata	00000002 OSFlagNameSize
00802024 g     F .text	00000104 OS_EventTaskRemoveMulti
00801e18 g     F .text	00000154 OS_EventTaskWaitMulti
00810186 g     O .rwdata	00000002 OSQSize
0080e008 g     F .text	000000f4 lseek
00806718 g     F .text	0000027c OSSemPend
00811cfc g     O .bss	00000004 sharedSwitch
008101ec g     O .rwdata	00000004 _global_impure_ptr
00810170 g     O .rwdata	00000002 OSLowestPrio
0081b268 g       *ABS*	00000000 __bss_end
0080aa28 g     F .text	000000f8 alt_iic_isr_register
0080b65c g     F .text	00000020 OSTCBInitHook
008101b6 g     O .rwdata	00000002 OSTmrCfgTicksPerSec
0080b064 g     F .text	00000110 alt_tick
00810158 g     O .rwdata	00000002 OSEventEn
008101b2 g     O .rwdata	00000002 OSTmrCfgNameSize
0080c5cc g     F .text	00000018 __fp_lock_all
0080a9e0 g     F .text	00000048 alt_ic_irq_enabled
008044c4 g     F .text	000000e4 OS_FlagInit
0080afcc g     F .text	00000098 alt_alarm_stop
00810194 g     O .rwdata	00000002 OSTaskIdleStkSize
00811d70 g     O .bss	00000004 alt_irq_active
008062a4 g     F .text	000000c0 OSSemAccept
00804cb0 g     F .text	000000f0 OSMemPut
00804764 g     F .text	0000021c OSMemCreate
00811d34 g     O .bss	00000004 OSIdleCtrMax
011040ec g     F .exceptions	000000d0 alt_irq_handler
0080f798 g     O .rwdata	00000028 alt_dev_null
008101a8 g     O .rwdata	00000002 OSTicksPerSec
0080a298 g     F .text	00000034 alt_up_character_lcd_cursor_blink_on
0080b194 g       .text	00000000 OSIntCtxSw
0080a580 g     F .text	0000001c alt_dcache_flush_all
00811d38 g     O .bss	00000004 OSTCBFreeList
008101fc g       *ABS*	00000000 __ram_rwdata_end
00806994 g     F .text	0000017c OSSemPendAbort
008101cc g     O .rwdata	00000008 alt_dev_list
0080e39c g     F .text	00000124 write
0080bb9c g     F .text	000000e8 _putc_r
008101ac g     O .rwdata	00000002 OSVersionNbr
0080e700 g       *ABS*	00000000 __ram_rodata_end
0080ddac g     F .text	000000d8 fstat
00810154 g     O .rwdata	00000004 OSEndiannessTest
0080dd00 g     F .text	00000008 __umodsi3
00810166 g     O .rwdata	00000002 OSFlagGrpSize
0081b268 g       *ABS*	00000000 end
00809088 g     F .text	00000138 altera_avalon_jtag_uart_init
0080282c g     F .text	000000c8 OS_TaskStat
0080e520 g       *ABS*	00000000 __CTOR_LIST__
01000000 g       *ABS*	00000000 __alt_stack_pointer
00809d0c g     F .text	00000090 alt_avalon_timer_sc_init
008099c0 g     F .text	000002dc altera_avalon_jtag_uart_write
0080c4f0 g     F .text	00000004 __sfp_lock_acquire
008024f4 g     F .text	00000054 OS_MemClr
00809ec0 g     F .text	00000078 alt_up_character_lcd_write
0080b264 g     F .text	00000310 OSTaskStkInit
008001d8 g     F .text	0000005c task1
0080c8b8 g     F .text	00000314 _free_r
008005fc g     F .text	00000258 alt_printf
00801b74 g     F .text	00000194 OS_EventTaskRdy
0080c0b8 g     F .text	000001b0 __call_exitprocs
00811d3c g     O .bss	00000001 OSCPUUsage
008101f4 g     O .rwdata	00000004 __malloc_sbrk_base
0080019c g     F .text	0000003c _start
00800234 g     F .text	0000005c task2
00811d74 g     O .bss	00000004 _alt_tick_rate
008056a0 g     F .text	00000320 OSQPend
008088ac g     F .text	0000014c OSTimeDly
00811d78 g     O .bss	00000004 _alt_nticks
0080e15c g     F .text	00000124 read
00808e94 g     F .text	00000074 alt_sys_init
0080a124 g     F .text	000000b0 alt_up_character_lcd_shift_display
0080bf80 g     F .text	00000134 __register_exitproc
00811d3d g     O .bss	00000001 OSTaskCtr
008089f8 g     F .text	00000190 OSTimeDlyHMSM
0080a1d4 g     F .text	00000090 alt_up_character_lcd_erase_pos
00809598 g     F .text	00000074 altera_avalon_jtag_uart_close
0080dd08 g     F .text	00000038 __mulsi3
0080e700 g       *ABS*	00000000 __ram_rwdata_start
0080e524 g       *ABS*	00000000 __ram_rodata_start
00811d8c g     O .bss	00000028 __malloc_current_mallinfo
0081015a g     O .rwdata	00000002 OSEventMax
00806b10 g     F .text	00000128 OSSemPost
008016f8 g     F .text	000000e4 OSSchedUnlock
00808f40 g     F .text	00000058 altera_avalon_jtag_uart_read_fd
0080b79c g     F .text	00000104 alt_get_fd
00811d40 g     O .bss	00000004 OSMemFreeList
0080184c g     F .text	000000ac OSStatInit
0080422c g     F .text	000000d4 OSFlagQuery
00810190 g     O .rwdata	00000002 OSTaskCreateExtEn
0080d854 g     F .text	00000070 _close_r
0080b8ec g     F .text	00000074 memcmp
00801b58 g     F .text	0000001c OS_Dummy
00808ff0 g     F .text	00000048 altera_avalon_jtag_uart_close_fd
0081b268 g       *ABS*	00000000 __alt_stack_base
00809038 g     F .text	00000050 altera_avalon_jtag_uart_ioctl_fd
0080be44 g     F .text	0000013c __swsetup_r
00819554 g     O .bss	000001e0 OSQTbl
0080c69c g     F .text	000000f0 __sfp
0080fd40 g     O .rwdata	00000408 __malloc_av_
0080c4fc g     F .text	00000004 __sinit_lock_release
00811d44 g     O .bss	00000004 OSTCBHighRdy
0080d77c g     F .text	00000060 __sread
00811d48 g     O .bss	00000004 OSQFreeList
0080b67c g     F .text	00000120 alt_find_file
0080a5c8 g     F .text	000000b4 alt_dev_llist_insert
0080099c g     F .text	00000108 __malloc_lock
0080e2e0 g     F .text	000000bc sbrk
00800ca4 g     F .text	00000144 OSEventNameSet
0080c268 g     F .text	000001fc _fflush_r
00811d4c g     O .bss	00000001 OSRdyGrp
00811cf8 g       *ABS*	00000000 __bss_start
0080ba00 g     F .text	00000098 memset
0080035c g     F .text	000000ec main
00811d08 g     O .bss	00000004 alt_envp
00811d88 g     O .bss	00000004 __malloc_max_total_mem
00808f98 g     F .text	00000058 altera_avalon_jtag_uart_write_fd
0080be28 g     F .text	0000001c __swbuf
0080e5a0 g     O .rodata	00000100 OSUnMapTbl
0081018a g     O .rwdata	00000002 OSSemEn
0080a074 g     F .text	000000b0 alt_up_character_lcd_shift_cursor
00803e84 g     F .text	000003a8 OSFlagPost
0080d690 g     F .text	00000008 __sclose
01000000 g       *ABS*	00000000 __alt_heap_limit
0080d9d4 g     F .text	00000014 fclose
00801d08 g     F .text	00000110 OS_EventTaskWait
00813db4 g     O .bss	00002000 task2_stk
008028f4 g     F .text	000000c8 OS_TaskStatStkChk
0081b0d8 g     O .bss	00000190 _atexit0
00807bc0 g     F .text	00000170 OSTaskDelReq
0080cee0 g     F .text	00000740 _malloc_r
008101d8 g     O .rwdata	00000004 alt_errno
008017dc g     F .text	00000070 OSStart
00815db4 g     O .bss	00002000 task3_stk
00800940 g     F .text	0000005c __env_unlock
0080cc94 g     F .text	000000b8 _fwalk
008080ac g     F .text	00000218 OSTaskResume
00804da0 g     F .text	000000fc OSMemQuery
0081019c g     O .rwdata	00000002 OSTaskStatEn
00810176 g     O .rwdata	00000002 OSMemMax
00805cbc g     F .text	00000188 OSQPostFront
0080ba98 g     F .text	00000104 putc
0080dc38 g     F .text	00000060 __divsi3
00811d4d g     O .bss	00000003 OSRdyTbl
00810150 g     O .rwdata	00000002 OSDebugEn
00809e80 g     F .text	00000040 alt_up_character_lcd_open_dev
0080c78c g     F .text	0000012c _malloc_trim_r
0080e524 g       *ABS*	00000000 __CTOR_END__
00810168 g     O .rwdata	00000002 OSFlagNodeSize
008101b0 g     O .rwdata	00000002 OSTmrCfgMax
00809e4c g     F .text	00000034 alt_up_character_lcd_init
008050c4 g     F .text	00000214 OSQCreate
00807d30 g     F .text	000001b8 OSTaskNameGet
0080e524 g       *ABS*	00000000 __flash_rodata_start
00805e44 g     F .text	00000234 OSQPostOpt
008018f8 g     F .text	00000240 OSTimeTick
00810198 g     O .rwdata	00000002 OSTaskMax
0080e524 g       *ABS*	00000000 __DTOR_LIST__
00806364 g     F .text	00000114 OSSemCreate
008101bc g     O .rwdata	00000002 OSTmrWheelSize
00810192 g     O .rwdata	00000002 OSTaskDelEn
01080000 g       *ABS*	00000000 __alt_mem_sram_0
00806c38 g     F .text	00000130 OSSemQuery
008052d8 g     F .text	00000300 OSQDel
008059c0 g     F .text	0000017c OSQPendAbort
00808e60 g     F .text	00000034 alt_irq_init
0080af54 g     F .text	00000078 alt_release_fd
0080a264 g     F .text	00000034 alt_up_character_lcd_cursor_off
0080b8a0 g     F .text	00000014 atexit
0080d7dc g     F .text	00000078 _write_r
0080166c g     F .text	0000008c OSSchedLock
0080315c g     F .text	0000013c OSFlagCreate
008101e8 g     O .rwdata	00000004 _impure_ptr
00811d00 g     O .bss	00000004 alt_argc
0080a740 g     F .text	00000064 _do_dtors
00810162 g     O .rwdata	00000002 OSEventMultiEn
00803298 g     F .text	000002a8 OSFlagDel
00800000 g       *ABS*	00000000 __alt_mem_sdram_0
00811d50 g     O .bss	00000004 OSEventFreeList
01104020 g       .exceptions	00000000 alt_irq_entry
008037d8 g     F .text	00000644 OSFlagPend
008101ae g     O .rwdata	00000002 OSTmrEn
0080c5b4 g     F .text	00000018 __fp_unlock_all
008101c4 g     O .rwdata	00000008 alt_fs_list
008026f8 g     F .text	00000080 OS_StrCopy
00810178 g     O .rwdata	00000002 OSMemNameSize
0080b624 g     F .text	0000001c OSInitHookEnd
01104020 g       *ABS*	00000000 __ram_exceptions_start
008101a4 g     O .rwdata	00000002 OSTCBPrioTblMax
008101a0 g     O .rwdata	00000002 OSTaskStatStkChkEn
0080a854 g     F .text	00000050 alt_ic_isr_register
00810174 g     O .rwdata	00000002 OSMemEn
0081017e g     O .rwdata	00000002 OSMutexEn
008101fc g       *ABS*	00000000 _edata
0081b268 g       *ABS*	00000000 _end
00811d54 g     O .bss	00000001 OSIntNesting
011041bc g       *ABS*	00000000 __ram_exceptions_end
0080960c g     F .text	000000f4 altera_avalon_jtag_uart_ioctl
00808b88 g     F .text	00000210 OSTimeDlyResume
00803684 g     F .text	00000154 OSFlagNameSet
008082c4 g     F .text	000001fc OSTaskStkChk
0080a940 g     F .text	000000a0 alt_ic_irq_disable
0081017a g     O .rwdata	00000002 OSMemSize
0080d700 g     F .text	0000007c __swrite
008101f0 g     O .rwdata	00000004 __malloc_trim_threshold
0080b174 g     F .text	00000020 altera_nios2_qsys_irq_init
00811d58 g     O .bss	00000004 OSTCBCur
0080b8b4 g     F .text	00000038 exit
0080cbcc g     F .text	000000c8 _fwalk_reent
0081017c g     O .rwdata	00000002 OSMemTblSize
0080dc98 g     F .text	00000060 __modsi3
01000000 g       *ABS*	00000000 __alt_data_end
01104020 g     F .exceptions	00000000 alt_exception
0080c4f4 g     F .text	00000004 __sfp_lock_release
0080149c g     F .text	00000054 OSInit
008086ec g     F .text	00000144 OSTaskQuery
00809f38 g     F .text	00000078 alt_up_character_lcd_string
008061f8 g     F .text	000000ac OS_QInit
00802778 g     F .text	00000058 OS_StrLen
00804b90 g     F .text	00000120 OSMemNameSet
00810196 g     O .rwdata	00000002 OSTaskProfileEn
00811d5c g     O .bss	00000004 OSTime
00819734 g     O .bss	00000800 OSTaskIdleStk
0080dd80 g     F .text	0000002c _exit
0080a2cc g     F .text	00000154 alt_alarm_start
00803540 g     F .text	00000144 OSFlagNameGet
00808d98 g     F .text	00000064 OSTimeGet
0080cd4c g     F .text	00000194 __smakebuf_r
0080bc84 g     F .text	00000074 strlen
0080b5b4 g     F .text	0000001c OSTaskSwHook
0080ad68 g     F .text	0000018c open
00819f34 g     O .bss	00000b40 OSEventTbl
00800854 g     F .text	00000040 alt_putchar
0081aa74 g     O .bss	00000510 OSTCBTbl
00806d68 g     F .text	00000104 OSSemSet
0080a838 g     F .text	0000001c alt_icache_flush_all
00809ffc g     F .text	00000078 alt_up_character_lcd_set_cursor_pos
008101dc g     O .rwdata	00000004 alt_priority_mask
00806478 g     F .text	000002a0 OSSemDel
00811d60 g     O .bss	00000004 OSFlagFreeList
00800290 g     F .text	000000cc task3
0080a8a4 g     F .text	0000009c alt_ic_irq_enable
0081015c g     O .rwdata	00000002 OSEventNameSize
00811d64 g     O .bss	00000001 OSStatRdy
0081af84 g     O .bss	00000054 OSTCBPrioTbl
00800894 g     F .text	000000ac __env_lock
008101a2 g     O .rwdata	00000002 OSTaskSwHookEn
008101e0 g     O .rwdata	00000008 alt_alarm_list
0081016a g     O .rwdata	00000002 OSFlagWidth
0080a6dc g     F .text	00000064 _do_ctors
0080a420 g     F .text	00000100 close
00811d10 g     O .bss	00000004 alt_envsem
00811d68 g     O .bss	00000004 OSIdleCtrRun
00801b38 g     F .text	00000020 OSVersion
008101b4 g     O .rwdata	00000002 OSTmrCfgWheelSize
00800448 g     F .text	00000080 alt_load
00808830 g     F .text	0000007c OS_TaskStkClr
0081018e g     O .rwdata	00000002 OSTaskCreateEn
00802128 g     F .text	00000068 OS_EventWaitListInit
0080b640 g     F .text	0000001c OSTaskIdleHook
00000000  w      *UND*	00000000 free
0080c4f8 g     F .text	00000004 __sinit_lock_acquire
008084c0 g     F .text	0000022c OSTaskSuspend
008027d0 g     F .text	0000005c OS_TaskIdle
008101ba g     O .rwdata	00000002 OSTmrTblSize
00806078 g     F .text	00000180 OSQQuery



Disassembly of section .entry:

01104000 <__reset>:
 * Jump to the _start entry point in the .text section if reset code
 * is allowed or if optimizing for RTL simulation.
 */
#if defined(ALT_ALLOW_CODE_AT_RESET) || defined(ALT_SIM_OPTIMIZE)
    /* Jump to the _start entry point in the .text section. */
    movhi r1, %hi(_start)
 1104000:	00402034 	movhi	at,128
    ori r1, r1, %lo(_start)
 1104004:	08406714 	ori	at,at,412
    jmp r1
 1104008:	0800683a 	jmp	at
	...

Disassembly of section .exceptions:

01104020 <alt_exception>:
         * Process an exception.  For all exceptions we must preserve all
         * caller saved registers on the stack (See the Nios2 ABI
         * documentation for details).
         */

        addi  sp, sp, -76
 1104020:	deffed04 	addi	sp,sp,-76

#endif

#endif

        stw   ra,  0(sp)
 1104024:	dfc00015 	stw	ra,0(sp)
        /*
         * Leave a gap in the stack frame at 4(sp) for the muldiv handler to
         * store zero into.
         */

        stw   r1,   8(sp)
 1104028:	d8400215 	stw	at,8(sp)
        stw   r2,  12(sp)
 110402c:	d8800315 	stw	r2,12(sp)
        stw   r3,  16(sp)
 1104030:	d8c00415 	stw	r3,16(sp)
        stw   r4,  20(sp)
 1104034:	d9000515 	stw	r4,20(sp)
        stw   r5,  24(sp)
 1104038:	d9400615 	stw	r5,24(sp)
        stw   r6,  28(sp)
 110403c:	d9800715 	stw	r6,28(sp)
        stw   r7,  32(sp)
 1104040:	d9c00815 	stw	r7,32(sp)

        rdctl r5, estatus
 1104044:	000b307a 	rdctl	r5,estatus

        stw   r8,  36(sp)
 1104048:	da000915 	stw	r8,36(sp)
        stw   r9,  40(sp)
 110404c:	da400a15 	stw	r9,40(sp)
        stw   r10, 44(sp)
 1104050:	da800b15 	stw	r10,44(sp)
        stw   r11, 48(sp)
 1104054:	dac00c15 	stw	r11,48(sp)
        stw   r12, 52(sp)
 1104058:	db000d15 	stw	r12,52(sp)
        stw   r13, 56(sp)
 110405c:	db400e15 	stw	r13,56(sp)
        stw   r14, 60(sp)
 1104060:	db800f15 	stw	r14,60(sp)
        stw   r15, 64(sp)
 1104064:	dbc01015 	stw	r15,64(sp)
        /*
         * ea-4 contains the address of the instruction being executed
         * when the exception occured. For interrupt exceptions, we will
         * will be re-issue the isntruction. Store it in 72(sp)
         */
        stw   r5,  68(sp)  /* estatus */
 1104068:	d9401115 	stw	r5,68(sp)
        addi  r15, ea, -4  /* instruction that caused exception */
 110406c:	ebffff04 	addi	r15,ea,-4
        stw   r15,  72(sp)
 1104070:	dbc01215 	stw	r15,72(sp)
#else
        /*
         * Test to see if the exception was a software exception or caused 
         * by an external interrupt, and vector accordingly.
         */
        rdctl r4, ipending
 1104074:	0009313a 	rdctl	r4,ipending
        andi  r2, r5, 1
 1104078:	2880004c 	andi	r2,r5,1
        beq   r2, zero, .Lnot_irq
 110407c:	10000326 	beq	r2,zero,110408c <alt_exception+0x6c>
        beq   r4, zero, .Lnot_irq
 1104080:	20000226 	beq	r4,zero,110408c <alt_exception+0x6c>
        /*
         * Now that all necessary registers have been preserved, call 
         * alt_irq_handler() to process the interrupts.
         */

        call alt_irq_handler
 1104084:	11040ec0 	call	11040ec <alt_irq_handler>

        .section .exceptions.irqreturn, "xa"

        br    .Lexception_exit
 1104088:	00000306 	br	1104098 <alt_exception+0x78>
         * upon completion, so we write ea (address of instruction *after*
         * the one where the exception occured) into 72(sp). The actual
         * instruction that caused the exception is written in r2, which these
         * handlers will utilize.
         */
        stw   ea,  72(sp)  /* Don't re-issue */
 110408c:	df401215 	stw	ea,72(sp)
        ldw   r2, -4(ea)   /* Instruction that caused exception */
 1104090:	e8bfff17 	ldw	r2,-4(ea)
#ifdef NIOS2_HAS_DEBUG_STUB
       /*
        *  Either tell the user now (if there is a debugger attached) or go into
        *  the debug monitor which will loop until a debugger is attached.
        */
        break
 1104094:	003da03a 	break	0
        /* 
         * Restore the saved registers, so that all general purpose registers 
         * have been restored to their state at the time the interrupt occured.
         */

        ldw   r5,  68(sp)
 1104098:	d9401117 	ldw	r5,68(sp)
        ldw   ea,  72(sp)  /* This becomes the PC once eret is executed */
 110409c:	df401217 	ldw	ea,72(sp)
        ldw   ra,   0(sp)
 11040a0:	dfc00017 	ldw	ra,0(sp)

        wrctl estatus, r5
 11040a4:	2801707a 	wrctl	estatus,r5

        ldw   r1,   8(sp)
 11040a8:	d8400217 	ldw	at,8(sp)
        ldw   r2,  12(sp)
 11040ac:	d8800317 	ldw	r2,12(sp)
        ldw   r3,  16(sp)
 11040b0:	d8c00417 	ldw	r3,16(sp)
        ldw   r4,  20(sp)
 11040b4:	d9000517 	ldw	r4,20(sp)
        ldw   r5,  24(sp)
 11040b8:	d9400617 	ldw	r5,24(sp)
        ldw   r6,  28(sp)
 11040bc:	d9800717 	ldw	r6,28(sp)
        ldw   r7,  32(sp)
 11040c0:	d9c00817 	ldw	r7,32(sp)
#ifdef ALT_STACK_CHECK
        ldw   et, %gprel(alt_exception_old_stack_limit)(gp)
#endif
#endif

        ldw   r8,  36(sp)
 11040c4:	da000917 	ldw	r8,36(sp)
        ldw   r9,  40(sp)
 11040c8:	da400a17 	ldw	r9,40(sp)
        ldw   r10, 44(sp)
 11040cc:	da800b17 	ldw	r10,44(sp)
        ldw   r11, 48(sp)
 11040d0:	dac00c17 	ldw	r11,48(sp)
        ldw   r12, 52(sp)
 11040d4:	db000d17 	ldw	r12,52(sp)
        ldw   r13, 56(sp)
 11040d8:	db400e17 	ldw	r13,56(sp)
        ldw   r14, 60(sp)
 11040dc:	db800f17 	ldw	r14,60(sp)
        ldw   r15, 64(sp)
 11040e0:	dbc01017 	ldw	r15,64(sp)
#endif

        ldw   sp,  76(sp)

#else
        addi  sp, sp, 76
 11040e4:	dec01304 	addi	sp,sp,76

        /*
         * Return to the interrupted instruction.
         */

        eret
 11040e8:	ef80083a 	eret

011040ec <alt_irq_handler>:
 * instruction is present if the macro ALT_CI_INTERRUPT_VECTOR defined.
 */

void alt_irq_handler (void) __attribute__ ((section (".exceptions")));
void alt_irq_handler (void)
{
 11040ec:	defff904 	addi	sp,sp,-28
 11040f0:	dfc00615 	stw	ra,24(sp)
 11040f4:	df000515 	stw	fp,20(sp)
 11040f8:	df000504 	addi	fp,sp,20
  
  /*
   * Notify the operating system that we are at interrupt level.
   */ 
  
  ALT_OS_INT_ENTER();
 11040fc:	08014f00 	call	8014f0 <OSIntEnter>
#ifndef NIOS2_EIC_PRESENT
static ALT_INLINE alt_u32 ALT_ALWAYS_INLINE alt_irq_pending (void)
{
  alt_u32 active;

  NIOS2_READ_IPENDING (active);
 1104100:	0005313a 	rdctl	r2,ipending
 1104104:	e0bffc15 	stw	r2,-16(fp)

  return active;
 1104108:	e0bffc17 	ldw	r2,-16(fp)
   * Consider the case where the high priority interupt is asserted during
   * the interrupt entry sequence for a lower priority interrupt to see why
   * this is the case.
   */

  active = alt_irq_pending ();
 110410c:	e0bfff15 	stw	r2,-4(fp)

  do
  {
    i = 0;
 1104110:	e03ffd15 	stw	zero,-12(fp)
    mask = 1;
 1104114:	00800044 	movi	r2,1
 1104118:	e0bffe15 	stw	r2,-8(fp)
     * called to clear the interrupt condition.
     */

    do
    {
      if (active & mask)
 110411c:	e0ffff17 	ldw	r3,-4(fp)
 1104120:	e0bffe17 	ldw	r2,-8(fp)
 1104124:	1884703a 	and	r2,r3,r2
 1104128:	1005003a 	cmpeq	r2,r2,zero
 110412c:	1000161e 	bne	r2,zero,1104188 <alt_irq_handler+0x9c>
      { 
#ifdef ALT_ENHANCED_INTERRUPT_API_PRESENT
        alt_irq[i].handler(alt_irq[i].context); 
 1104130:	e0bffd17 	ldw	r2,-12(fp)
 1104134:	00c020b4 	movhi	r3,130
 1104138:	18ebf604 	addi	r3,r3,-20520
 110413c:	100490fa 	slli	r2,r2,3
 1104140:	10c5883a 	add	r2,r2,r3
 1104144:	11400017 	ldw	r5,0(r2)
 1104148:	e0bffd17 	ldw	r2,-12(fp)
 110414c:	00c020b4 	movhi	r3,130
 1104150:	18ebf604 	addi	r3,r3,-20520
 1104154:	100490fa 	slli	r2,r2,3
 1104158:	10c5883a 	add	r2,r2,r3
 110415c:	10800104 	addi	r2,r2,4
 1104160:	11000017 	ldw	r4,0(r2)
 1104164:	283ee83a 	callr	r5
#ifndef NIOS2_EIC_PRESENT
static ALT_INLINE alt_u32 ALT_ALWAYS_INLINE alt_irq_pending (void)
{
  alt_u32 active;

  NIOS2_READ_IPENDING (active);
 1104168:	0005313a 	rdctl	r2,ipending
 110416c:	e0bffb15 	stw	r2,-20(fp)

  return active;
 1104170:	e0bffb17 	ldw	r2,-20(fp)
      mask <<= 1;
      i++;

    } while (1);

    active = alt_irq_pending ();
 1104174:	e0bfff15 	stw	r2,-4(fp)
    
  } while (active);
 1104178:	e0bfff17 	ldw	r2,-4(fp)
 110417c:	1004c03a 	cmpne	r2,r2,zero
 1104180:	103fe31e 	bne	r2,zero,1104110 <alt_irq_handler+0x24>
 1104184:	00000706 	br	11041a4 <alt_irq_handler+0xb8>
#else
        alt_irq[i].handler(alt_irq[i].context, i); 
#endif
        break;
      }
      mask <<= 1;
 1104188:	e0bffe17 	ldw	r2,-8(fp)
 110418c:	1085883a 	add	r2,r2,r2
 1104190:	e0bffe15 	stw	r2,-8(fp)
      i++;
 1104194:	e0bffd17 	ldw	r2,-12(fp)
 1104198:	10800044 	addi	r2,r2,1
 110419c:	e0bffd15 	stw	r2,-12(fp)

    } while (1);
 11041a0:	003fde06 	br	110411c <alt_irq_handler+0x30>

  /*
   * Notify the operating system that interrupt processing is complete.
   */ 

  ALT_OS_INT_EXIT();
 11041a4:	080156c0 	call	80156c <OSIntExit>
}
 11041a8:	e037883a 	mov	sp,fp
 11041ac:	dfc00117 	ldw	ra,4(sp)
 11041b0:	df000017 	ldw	fp,0(sp)
 11041b4:	dec00204 	addi	sp,sp,8
 11041b8:	f800283a 	ret

Disassembly of section .text:

0080019c <_start>:
#if (NIOS2_NUM_OF_SHADOW_REG_SETS == 0)    
    /*
     * Now that the caches are initialized, set up the stack pointer.
     * The value provided by the linker is assumed to be correctly aligned.
     */
    movhi sp, %hi(__alt_stack_pointer)
  80019c:	06c04034 	movhi	sp,256
    ori sp, sp, %lo(__alt_stack_pointer)
  8001a0:	dec00014 	ori	sp,sp,0

    /* Set up the global pointer. */
    movhi gp, %hi(_gp)
  8001a4:	06802074 	movhi	gp,129
    ori gp, gp, %lo(_gp)
  8001a8:	d6a05214 	ori	gp,gp,33096
 */
#ifndef ALT_SIM_OPTIMIZE
    /* Log that the BSS is about to be cleared. */
    ALT_LOG_PUTS(alt_log_msg_bss)

    movhi r2, %hi(__bss_start)
  8001ac:	00802074 	movhi	r2,129
    ori r2, r2, %lo(__bss_start)
  8001b0:	10873e14 	ori	r2,r2,7416

    movhi r3, %hi(__bss_end)
  8001b4:	00c02074 	movhi	r3,129
    ori r3, r3, %lo(__bss_end)
  8001b8:	18ec9a14 	ori	r3,r3,45672

    beq r2, r3, 1f
  8001bc:	10c00326 	beq	r2,r3,8001cc <_start+0x30>

0:
    stw zero, (r2)
  8001c0:	10000015 	stw	zero,0(r2)
    addi r2, r2, 4
  8001c4:	10800104 	addi	r2,r2,4
    bltu r2, r3, 0b
  8001c8:	10fffd36 	bltu	r2,r3,8001c0 <_start+0x24>
     * section aren't defined until alt_load() has been called).
     */
    mov   et, zero
#endif

    call alt_load
  8001cc:	08004480 	call	800448 <alt_load>

    /* Log that alt_main is about to be called. */
    ALT_LOG_PUTS(alt_log_msg_alt_main)

    /* Call the C entry point. It should never return. */
    call alt_main
  8001d0:	08005340 	call	800534 <alt_main>

008001d4 <alt_after_alt_main>:

    /* Wait in infinite loop in case alt_main does return. */
alt_after_alt_main:
    br alt_after_alt_main
  8001d4:	003fff06 	br	8001d4 <alt_after_alt_main>

008001d8 <task1>:
int sharedSwitch;
OS_EVENT *sharedSwitchKey;

/* Prints "Hello World" and sleeps for three seconds */
void task1(void* pdata)
{
  8001d8:	defffb04 	addi	sp,sp,-20
  8001dc:	dfc00415 	stw	ra,16(sp)
  8001e0:	df000315 	stw	fp,12(sp)
  8001e4:	df000304 	addi	fp,sp,12
  8001e8:	e13fff15 	stw	r4,-4(fp)
	INT8U err;
	int* pointer =(int* )SWITCH_BASE;
  8001ec:	00804474 	movhi	r2,273
  8001f0:	10a41004 	addi	r2,r2,-28608
  8001f4:	e0bffd15 	stw	r2,-12(fp)
	while (1)
	{

		OSSemPend(sharedSwitchKey, 0, &err);
  8001f8:	d126ec17 	ldw	r4,-25680(gp)
  8001fc:	e1bffe04 	addi	r6,fp,-8
  800200:	000b883a 	mov	r5,zero
  800204:	08067180 	call	806718 <OSSemPend>
		sharedSwitch = *pointer;
  800208:	e0bffd17 	ldw	r2,-12(fp)
  80020c:	10800017 	ldw	r2,0(r2)
  800210:	d0a6ed15 	stw	r2,-25676(gp)
		OSSemPost(sharedSwitchKey);
  800214:	d126ec17 	ldw	r4,-25680(gp)
  800218:	0806b100 	call	806b10 <OSSemPost>
		OSTimeDlyHMSM(0, 0, 0, 1);
  80021c:	0009883a 	mov	r4,zero
  800220:	000b883a 	mov	r5,zero
  800224:	000d883a 	mov	r6,zero
  800228:	01c00044 	movi	r7,1
  80022c:	08089f80 	call	8089f8 <OSTimeDlyHMSM>
	}
  800230:	003ff106 	br	8001f8 <task1+0x20>

00800234 <task2>:
}
/* Prints "Hello World" and sleeps for three seconds */
void task2(void* pdata)
{
  800234:	defffb04 	addi	sp,sp,-20
  800238:	dfc00415 	stw	ra,16(sp)
  80023c:	df000315 	stw	fp,12(sp)
  800240:	df000304 	addi	fp,sp,12
  800244:	e13fff15 	stw	r4,-4(fp)
	INT8U err;
	int* pointer =(int* )GREEN_LEDS_BASE;
  800248:	00804474 	movhi	r2,273
  80024c:	10a41404 	addi	r2,r2,-28592
  800250:	e0bffd15 	stw	r2,-12(fp)

	while (1)
	{
		OSSemPend(sharedSwitchKey, 0, &err);
  800254:	d126ec17 	ldw	r4,-25680(gp)
  800258:	e1bffe04 	addi	r6,fp,-8
  80025c:	000b883a 	mov	r5,zero
  800260:	08067180 	call	806718 <OSSemPend>
		*pointer = sharedSwitch;
  800264:	d0e6ed17 	ldw	r3,-25676(gp)
  800268:	e0bffd17 	ldw	r2,-12(fp)
  80026c:	10c00015 	stw	r3,0(r2)
		OSSemPost(sharedSwitchKey);
  800270:	d126ec17 	ldw	r4,-25680(gp)
  800274:	0806b100 	call	806b10 <OSSemPost>
		OSTimeDlyHMSM(0, 0, 0, 1);
  800278:	0009883a 	mov	r4,zero
  80027c:	000b883a 	mov	r5,zero
  800280:	000d883a 	mov	r6,zero
  800284:	01c00044 	movi	r7,1
  800288:	08089f80 	call	8089f8 <OSTimeDlyHMSM>
	}
  80028c:	003ff106 	br	800254 <task2+0x20>

00800290 <task3>:
}

void task3(void* pdata)
{
  800290:	defffa04 	addi	sp,sp,-24
  800294:	dfc00515 	stw	ra,20(sp)
  800298:	df000415 	stw	fp,16(sp)
  80029c:	df000404 	addi	fp,sp,16
  8002a0:	e13fff15 	stw	r4,-4(fp)
	int localCopy;


	alt_up_character_lcd_dev * char_lcd_dev;
	// open the Character LCD port
	char_lcd_dev = alt_up_character_lcd_open_dev ("/dev/character_lcd_0");
  8002a4:	01002074 	movhi	r4,129
  8002a8:	21394904 	addi	r4,r4,-6876
  8002ac:	0809e800 	call	809e80 <alt_up_character_lcd_open_dev>
  8002b0:	e0bffc15 	stw	r2,-16(fp)
	if ( char_lcd_dev == NULL)
  8002b4:	e0bffc17 	ldw	r2,-16(fp)
  8002b8:	1004c03a 	cmpne	r2,r2,zero
  8002bc:	1000041e 	bne	r2,zero,8002d0 <task3+0x40>
	alt_printf ("Error: could not open character LCD device\n");
  8002c0:	01002074 	movhi	r4,129
  8002c4:	21394f04 	addi	r4,r4,-6852
  8002c8:	08005fc0 	call	8005fc <alt_printf>
  8002cc:	00000306 	br	8002dc <task3+0x4c>
	else
	alt_printf ("Opened character LCD device\n");
  8002d0:	01002074 	movhi	r4,129
  8002d4:	21395a04 	addi	r4,r4,-6808
  8002d8:	08005fc0 	call	8005fc <alt_printf>

	while (1)
	{
		OSSemPend(sharedSwitchKey, 0, &err);
  8002dc:	d126ec17 	ldw	r4,-25680(gp)
  8002e0:	e1bffe04 	addi	r6,fp,-8
  8002e4:	000b883a 	mov	r5,zero
  8002e8:	08067180 	call	806718 <OSSemPend>

		localCopy = sharedSwitch;
  8002ec:	d0a6ed17 	ldw	r2,-25676(gp)
  8002f0:	e0bffd15 	stw	r2,-12(fp)

		OSSemPost(sharedSwitchKey);
  8002f4:	d126ec17 	ldw	r4,-25680(gp)
  8002f8:	0806b100 	call	806b10 <OSSemPost>

		alt_up_character_lcd_init (char_lcd_dev);
  8002fc:	e13ffc17 	ldw	r4,-16(fp)
  800300:	0809e4c0 	call	809e4c <alt_up_character_lcd_init>

		if (localCopy){
  800304:	e0bffd17 	ldw	r2,-12(fp)
  800308:	1005003a 	cmpeq	r2,r2,zero
  80030c:	1000051e 	bne	r2,zero,800324 <task3+0x94>
			alt_up_character_lcd_set_cursor_pos(char_lcd_dev, 0, 0);
  800310:	e13ffc17 	ldw	r4,-16(fp)
  800314:	000b883a 	mov	r5,zero
  800318:	000d883a 	mov	r6,zero
  80031c:	0809ffc0 	call	809ffc <alt_up_character_lcd_set_cursor_pos>
  800320:	00000406 	br	800334 <task3+0xa4>
		}
		else {
			alt_up_character_lcd_set_cursor_pos(char_lcd_dev, 0, 1);
  800324:	e13ffc17 	ldw	r4,-16(fp)
  800328:	000b883a 	mov	r5,zero
  80032c:	01800044 	movi	r6,1
  800330:	0809ffc0 	call	809ffc <alt_up_character_lcd_set_cursor_pos>
		}
		alt_up_character_lcd_string(char_lcd_dev, "WIN");
  800334:	e13ffc17 	ldw	r4,-16(fp)
  800338:	01402074 	movhi	r5,129
  80033c:	29796204 	addi	r5,r5,-6776
  800340:	0809f380 	call	809f38 <alt_up_character_lcd_string>
		OSTimeDlyHMSM(0, 0, 0, 1);
  800344:	0009883a 	mov	r4,zero
  800348:	000b883a 	mov	r5,zero
  80034c:	000d883a 	mov	r6,zero
  800350:	01c00044 	movi	r7,1
  800354:	08089f80 	call	8089f8 <OSTimeDlyHMSM>
	}
  800358:	003fe006 	br	8002dc <task3+0x4c>

0080035c <main>:
}
/* The main function creates two task and starts multi-tasking */
int main(void)
{
  80035c:	defff904 	addi	sp,sp,-28
  800360:	dfc00615 	stw	ra,24(sp)
  800364:	df000515 	stw	fp,20(sp)
  800368:	df000504 	addi	fp,sp,20

	OSTaskCreateExt(task1,
  80036c:	01802074 	movhi	r6,129
  800370:	318f6c04 	addi	r6,r6,15792
  800374:	00800044 	movi	r2,1
  800378:	d8800015 	stw	r2,0(sp)
  80037c:	00802074 	movhi	r2,129
  800380:	10876d04 	addi	r2,r2,7604
  800384:	d8800115 	stw	r2,4(sp)
  800388:	00820004 	movi	r2,2048
  80038c:	d8800215 	stw	r2,8(sp)
  800390:	d8000315 	stw	zero,12(sp)
  800394:	d8000415 	stw	zero,16(sp)
  800398:	01002034 	movhi	r4,128
  80039c:	21007604 	addi	r4,r4,472
  8003a0:	000b883a 	mov	r5,zero
  8003a4:	01c00044 	movi	r7,1
  8003a8:	08075b40 	call	8075b4 <OSTaskCreateExt>
			TASK_STACKSIZE,
			NULL,
			0);


	OSTaskCreateExt(task2,
  8003ac:	01802074 	movhi	r6,129
  8003b0:	31976c04 	addi	r6,r6,23984
  8003b4:	00800084 	movi	r2,2
  8003b8:	d8800015 	stw	r2,0(sp)
  8003bc:	00802074 	movhi	r2,129
  8003c0:	108f6d04 	addi	r2,r2,15796
  8003c4:	d8800115 	stw	r2,4(sp)
  8003c8:	00820004 	movi	r2,2048
  8003cc:	d8800215 	stw	r2,8(sp)
  8003d0:	d8000315 	stw	zero,12(sp)
  8003d4:	d8000415 	stw	zero,16(sp)
  8003d8:	01002034 	movhi	r4,128
  8003dc:	21008d04 	addi	r4,r4,564
  8003e0:	000b883a 	mov	r5,zero
  8003e4:	01c00084 	movi	r7,2
  8003e8:	08075b40 	call	8075b4 <OSTaskCreateExt>
			task2_stk,
			TASK_STACKSIZE,
			NULL,
			0);

	OSTaskCreateExt(task3,
  8003ec:	01802074 	movhi	r6,129
  8003f0:	319f6c04 	addi	r6,r6,32176
  8003f4:	008000c4 	movi	r2,3
  8003f8:	d8800015 	stw	r2,0(sp)
  8003fc:	00802074 	movhi	r2,129
  800400:	10976d04 	addi	r2,r2,23988
  800404:	d8800115 	stw	r2,4(sp)
  800408:	00820004 	movi	r2,2048
  80040c:	d8800215 	stw	r2,8(sp)
  800410:	d8000315 	stw	zero,12(sp)
  800414:	d8000415 	stw	zero,16(sp)
  800418:	01002034 	movhi	r4,128
  80041c:	2100a404 	addi	r4,r4,656
  800420:	000b883a 	mov	r5,zero
  800424:	01c000c4 	movi	r7,3
  800428:	08075b40 	call	8075b4 <OSTaskCreateExt>
			TASK3_PRIORITY,
			task3_stk,
			TASK_STACKSIZE,
			NULL,
			0);
	OSStart();
  80042c:	08017dc0 	call	8017dc <OSStart>
	return 0;
  800430:	0005883a 	mov	r2,zero
}
  800434:	e037883a 	mov	sp,fp
  800438:	dfc00117 	ldw	ra,4(sp)
  80043c:	df000017 	ldw	fp,0(sp)
  800440:	dec00204 	addi	sp,sp,8
  800444:	f800283a 	ret

00800448 <alt_load>:
 * there is no bootloader, so this application is responsible for loading to
 * RAM any sections that are required.
 */  

void alt_load (void)
{
  800448:	defffe04 	addi	sp,sp,-8
  80044c:	dfc00115 	stw	ra,4(sp)
  800450:	df000015 	stw	fp,0(sp)
  800454:	d839883a 	mov	fp,sp
  /* 
   * Copy the .rwdata section. 
   */

  alt_load_section (&__flash_rwdata_start, 
  800458:	01002074 	movhi	r4,129
  80045c:	21007f04 	addi	r4,r4,508
  800460:	01402074 	movhi	r5,129
  800464:	2979c004 	addi	r5,r5,-6400
  800468:	01802074 	movhi	r6,129
  80046c:	31807f04 	addi	r6,r6,508
  800470:	08004c80 	call	8004c8 <alt_load_section>

  /*
   * Copy the exception handler.
   */

  alt_load_section (&__flash_exceptions_start, 
  800474:	01002034 	movhi	r4,128
  800478:	21000004 	addi	r4,r4,0
  80047c:	01404434 	movhi	r5,272
  800480:	29500804 	addi	r5,r5,16416
  800484:	01804434 	movhi	r6,272
  800488:	31906f04 	addi	r6,r6,16828
  80048c:	08004c80 	call	8004c8 <alt_load_section>

  /*
   * Copy the .rodata section.
   */

  alt_load_section (&__flash_rodata_start, 
  800490:	01002074 	movhi	r4,129
  800494:	21394904 	addi	r4,r4,-6876
  800498:	01402074 	movhi	r5,129
  80049c:	29794904 	addi	r5,r5,-6876
  8004a0:	01802074 	movhi	r6,129
  8004a4:	31b9c004 	addi	r6,r6,-6400
  8004a8:	08004c80 	call	8004c8 <alt_load_section>
  
  /*
   * Now ensure that the caches are in synch.
   */
  
  alt_dcache_flush_all();
  8004ac:	080a5800 	call	80a580 <alt_dcache_flush_all>
  alt_icache_flush_all();
  8004b0:	080a8380 	call	80a838 <alt_icache_flush_all>
}
  8004b4:	e037883a 	mov	sp,fp
  8004b8:	dfc00117 	ldw	ra,4(sp)
  8004bc:	df000017 	ldw	fp,0(sp)
  8004c0:	dec00204 	addi	sp,sp,8
  8004c4:	f800283a 	ret

008004c8 <alt_load_section>:
 */

static void ALT_INLINE alt_load_section (alt_u32* from, 
                                         alt_u32* to, 
                                         alt_u32* end)
{
  8004c8:	defffc04 	addi	sp,sp,-16
  8004cc:	df000315 	stw	fp,12(sp)
  8004d0:	df000304 	addi	fp,sp,12
  8004d4:	e13ffd15 	stw	r4,-12(fp)
  8004d8:	e17ffe15 	stw	r5,-8(fp)
  8004dc:	e1bfff15 	stw	r6,-4(fp)
  if (to != from)
  8004e0:	e0fffe17 	ldw	r3,-8(fp)
  8004e4:	e0bffd17 	ldw	r2,-12(fp)
  8004e8:	18800e26 	beq	r3,r2,800524 <alt_load_section+0x5c>
  {
    while( to != end )
  8004ec:	00000a06 	br	800518 <alt_load_section+0x50>
    {
      *to++ = *from++;
  8004f0:	e0bffd17 	ldw	r2,-12(fp)
  8004f4:	10c00017 	ldw	r3,0(r2)
  8004f8:	e0bffe17 	ldw	r2,-8(fp)
  8004fc:	10c00015 	stw	r3,0(r2)
  800500:	e0bffe17 	ldw	r2,-8(fp)
  800504:	10800104 	addi	r2,r2,4
  800508:	e0bffe15 	stw	r2,-8(fp)
  80050c:	e0bffd17 	ldw	r2,-12(fp)
  800510:	10800104 	addi	r2,r2,4
  800514:	e0bffd15 	stw	r2,-12(fp)
                                         alt_u32* to, 
                                         alt_u32* end)
{
  if (to != from)
  {
    while( to != end )
  800518:	e0fffe17 	ldw	r3,-8(fp)
  80051c:	e0bfff17 	ldw	r2,-4(fp)
  800520:	18bff31e 	bne	r3,r2,8004f0 <alt_load_section+0x28>
    {
      *to++ = *from++;
    }
  }
}
  800524:	e037883a 	mov	sp,fp
  800528:	df000017 	ldw	fp,0(sp)
  80052c:	dec00104 	addi	sp,sp,4
  800530:	f800283a 	ret

00800534 <alt_main>:
 * devices/filesystems/components in the system; and call the entry point for
 * the users application, i.e. main().
 */

void alt_main (void)
{
  800534:	defffb04 	addi	sp,sp,-20
  800538:	dfc00415 	stw	ra,16(sp)
  80053c:	df000315 	stw	fp,12(sp)
  800540:	df000304 	addi	fp,sp,12
#endif

  /* ALT LOG - please see HAL/sys/alt_log_printf.h for details */
  ALT_LOG_PRINT_BOOT("[alt_main.c] Entering alt_main, calling alt_irq_init.\r\n");
  /* Initialize the interrupt controller. */
  alt_irq_init (NULL);
  800544:	0009883a 	mov	r4,zero
  800548:	0808e600 	call	808e60 <alt_irq_init>

  /* Initialize the operating system */
  ALT_LOG_PRINT_BOOT("[alt_main.c] Done alt_irq_init, calling alt_os_init.\r\n");
  ALT_OS_INIT();
  80054c:	080149c0 	call	80149c <OSInit>
  800550:	01000044 	movi	r4,1
  800554:	08063640 	call	806364 <OSSemCreate>
  800558:	1007883a 	mov	r3,r2
  80055c:	00802074 	movhi	r2,129
  800560:	10874404 	addi	r2,r2,7440
  800564:	10c00015 	stw	r3,0(r2)
  800568:	01000044 	movi	r4,1
  80056c:	08063640 	call	806364 <OSSemCreate>
  800570:	1007883a 	mov	r3,r2
  800574:	00802074 	movhi	r2,129
  800578:	10874604 	addi	r2,r2,7448
  80057c:	10c00015 	stw	r3,0(r2)
  800580:	00802074 	movhi	r2,129
  800584:	10875b04 	addi	r2,r2,7532
  800588:	e0bffd15 	stw	r2,-12(fp)
  80058c:	00800044 	movi	r2,1
  800590:	e0bffe0d 	sth	r2,-8(fp)
 */

static ALT_INLINE int ALT_ALWAYS_INLINE alt_sem_create (OS_EVENT** sem, 
              INT16U value)
{
  *sem = OSSemCreate (value);
  800594:	e13ffe0b 	ldhu	r4,-8(fp)
  800598:	08063640 	call	806364 <OSSemCreate>
  80059c:	1007883a 	mov	r3,r2
  8005a0:	e0bffd17 	ldw	r2,-12(fp)
  8005a4:	10c00015 	stw	r3,0(r2)
  ALT_LOG_PRINT_BOOT("[alt_main.c] Done OS Init, calling alt_sem_create.\r\n");
  ALT_SEM_CREATE (&alt_fd_list_lock, 1);

  /* Initialize the device drivers/software components. */
  ALT_LOG_PRINT_BOOT("[alt_main.c] Calling alt_sys_init.\r\n");
  alt_sys_init();
  8005a8:	0808e940 	call	808e94 <alt_sys_init>
   * devices be present (not equal to /dev/null) and if direct drivers
   * aren't being used.
   */

    ALT_LOG_PRINT_BOOT("[alt_main.c] Redirecting IO.\r\n");
    alt_io_redirect(ALT_STDOUT, ALT_STDIN, ALT_STDERR);
  8005ac:	01002074 	movhi	r4,129
  8005b0:	21396304 	addi	r4,r4,-6772
  8005b4:	01402074 	movhi	r5,129
  8005b8:	29796304 	addi	r5,r5,-6772
  8005bc:	01802074 	movhi	r6,129
  8005c0:	31b96304 	addi	r6,r6,-6772
  8005c4:	080abf80 	call	80abf8 <alt_io_redirect>
  /* 
   * Call the C++ constructors 
   */

  ALT_LOG_PRINT_BOOT("[alt_main.c] Calling C++ constructors.\r\n");
  _do_ctors ();
  8005c8:	080a6dc0 	call	80a6dc <_do_ctors>
   * redefined as _exit()). This is in the interest of reducing code footprint,
   * in that the atexit() overhead is removed when it's not needed.
   */

  ALT_LOG_PRINT_BOOT("[alt_main.c] Calling atexit.\r\n");
  atexit (_do_dtors);
  8005cc:	01002074 	movhi	r4,129
  8005d0:	2129d004 	addi	r4,r4,-22720
  8005d4:	080b8a00 	call	80b8a0 <atexit>
  ALT_LOG_PRINT_BOOT("[alt_main.c] Calling main.\r\n");

#ifdef ALT_NO_EXIT
  main (alt_argc, alt_argv, alt_envp);
#else
  result = main (alt_argc, alt_argv, alt_envp);
  8005d8:	d126ee17 	ldw	r4,-25672(gp)
  8005dc:	d166ef17 	ldw	r5,-25668(gp)
  8005e0:	d1a6f017 	ldw	r6,-25664(gp)
  8005e4:	080035c0 	call	80035c <main>
  8005e8:	e0bfff15 	stw	r2,-4(fp)
  close(STDOUT_FILENO);
  8005ec:	01000044 	movi	r4,1
  8005f0:	080a4200 	call	80a420 <close>
  exit (result);
  8005f4:	e13fff17 	ldw	r4,-4(fp)
  8005f8:	080b8b40 	call	80b8b4 <exit>

008005fc <alt_printf>:
/* 
 * ALT printf function 
 */
void 
alt_printf(const char* fmt, ... )
{
  8005fc:	defff204 	addi	sp,sp,-56
  800600:	dfc00a15 	stw	ra,40(sp)
  800604:	df000915 	stw	fp,36(sp)
  800608:	df000904 	addi	fp,sp,36
  80060c:	e1400215 	stw	r5,8(fp)
  800610:	e1800315 	stw	r6,12(fp)
  800614:	e1c00415 	stw	r7,16(fp)
  800618:	e13fff15 	stw	r4,-4(fp)
	va_list args;
	va_start(args, fmt);
  80061c:	e0800204 	addi	r2,fp,8
  800620:	e0bffe15 	stw	r2,-8(fp)
    const char *w;
    char c;

    /* Process format string. */
    w = fmt;
  800624:	e0bfff17 	ldw	r2,-4(fp)
  800628:	e0bffd15 	stw	r2,-12(fp)
    while ((c = *w++) != 0)
  80062c:	00007806 	br	800810 <alt_printf+0x214>
    {
        /* If not a format escape character, just print  */
        /* character.  Otherwise, process format string. */
        if (c != '%')
  800630:	e0bffc07 	ldb	r2,-16(fp)
  800634:	10800960 	cmpeqi	r2,r2,37
  800638:	1000031e 	bne	r2,zero,800648 <alt_printf+0x4c>
        {
            alt_putchar(c);
  80063c:	e13ffc07 	ldb	r4,-16(fp)
  800640:	08008540 	call	800854 <alt_putchar>
  800644:	00007206 	br	800810 <alt_printf+0x214>
        }
        else
        {
            /* Get format character.  If none     */
            /* available, processing is complete. */
            if ((c = *w++) != 0)
  800648:	e0bffd17 	ldw	r2,-12(fp)
  80064c:	10800003 	ldbu	r2,0(r2)
  800650:	e0bffc05 	stb	r2,-16(fp)
  800654:	e0bffc07 	ldb	r2,-16(fp)
  800658:	1004c03a 	cmpne	r2,r2,zero
  80065c:	1007883a 	mov	r3,r2
  800660:	e0bffd17 	ldw	r2,-12(fp)
  800664:	10800044 	addi	r2,r2,1
  800668:	e0bffd15 	stw	r2,-12(fp)
  80066c:	18803fcc 	andi	r2,r3,255
  800670:	1005003a 	cmpeq	r2,r2,zero
  800674:	1000721e 	bne	r2,zero,800840 <alt_printf+0x244>
            {
                if (c == '%')
  800678:	e0bffc07 	ldb	r2,-16(fp)
  80067c:	10800958 	cmpnei	r2,r2,37
  800680:	1000031e 	bne	r2,zero,800690 <alt_printf+0x94>
                {
                    /* Process "%" escape sequence. */
                    alt_putchar(c);
  800684:	e13ffc07 	ldb	r4,-16(fp)
  800688:	08008540 	call	800854 <alt_putchar>
  80068c:	00006006 	br	800810 <alt_printf+0x214>
                } 
                else if (c == 'c')
  800690:	e0bffc07 	ldb	r2,-16(fp)
  800694:	108018d8 	cmpnei	r2,r2,99
  800698:	1000091e 	bne	r2,zero,8006c0 <alt_printf+0xc4>
                {
                    int v = va_arg(args, int);
  80069c:	e0fffe17 	ldw	r3,-8(fp)
  8006a0:	18800104 	addi	r2,r3,4
  8006a4:	e0bffe15 	stw	r2,-8(fp)
  8006a8:	1805883a 	mov	r2,r3
  8006ac:	10800017 	ldw	r2,0(r2)
  8006b0:	e0bffb15 	stw	r2,-20(fp)
                    alt_putchar(v);
  8006b4:	e13ffb17 	ldw	r4,-20(fp)
  8006b8:	08008540 	call	800854 <alt_putchar>
  8006bc:	00005406 	br	800810 <alt_printf+0x214>
                }
                else if (c == 'x')
  8006c0:	e0bffc07 	ldb	r2,-16(fp)
  8006c4:	10801e18 	cmpnei	r2,r2,120
  8006c8:	1000371e 	bne	r2,zero,8007a8 <alt_printf+0x1ac>
                {
                    /* Process hexadecimal number format. */
                    unsigned long v = va_arg(args, unsigned long);
  8006cc:	e0fffe17 	ldw	r3,-8(fp)
  8006d0:	18800104 	addi	r2,r3,4
  8006d4:	e0bffe15 	stw	r2,-8(fp)
  8006d8:	1805883a 	mov	r2,r3
  8006dc:	10800017 	ldw	r2,0(r2)
  8006e0:	e0bffa15 	stw	r2,-24(fp)
                    unsigned long digit;
                    int digit_shift;

                    /* If the number value is zero, just print and continue. */
                    if (v == 0)
  8006e4:	e0bffa17 	ldw	r2,-24(fp)
  8006e8:	1004c03a 	cmpne	r2,r2,zero
  8006ec:	1000031e 	bne	r2,zero,8006fc <alt_printf+0x100>
                    {
                        alt_putchar('0');
  8006f0:	01000c04 	movi	r4,48
  8006f4:	08008540 	call	800854 <alt_putchar>
                        continue;
  8006f8:	00004506 	br	800810 <alt_printf+0x214>
                    }

                    /* Find first non-zero digit. */
                    digit_shift = 28;
  8006fc:	00800704 	movi	r2,28
  800700:	e0bff815 	stw	r2,-32(fp)
                    while (!(v & (0xF << digit_shift)))
  800704:	00000306 	br	800714 <alt_printf+0x118>
                        digit_shift -= 4;
  800708:	e0bff817 	ldw	r2,-32(fp)
  80070c:	10bfff04 	addi	r2,r2,-4
  800710:	e0bff815 	stw	r2,-32(fp)
                        continue;
                    }

                    /* Find first non-zero digit. */
                    digit_shift = 28;
                    while (!(v & (0xF << digit_shift)))
  800714:	00c003c4 	movi	r3,15
  800718:	e0bff817 	ldw	r2,-32(fp)
  80071c:	1884983a 	sll	r2,r3,r2
  800720:	1007883a 	mov	r3,r2
  800724:	e0bffa17 	ldw	r2,-24(fp)
  800728:	1884703a 	and	r2,r3,r2
  80072c:	1005003a 	cmpeq	r2,r2,zero
  800730:	103ff51e 	bne	r2,zero,800708 <alt_printf+0x10c>
                        digit_shift -= 4;

                    /* Print digits. */
                    for (; digit_shift >= 0; digit_shift -= 4)
  800734:	00001806 	br	800798 <alt_printf+0x19c>
                    {
                        digit = (v & (0xF << digit_shift)) >> digit_shift;
  800738:	00c003c4 	movi	r3,15
  80073c:	e0bff817 	ldw	r2,-32(fp)
  800740:	1884983a 	sll	r2,r3,r2
  800744:	1007883a 	mov	r3,r2
  800748:	e0bffa17 	ldw	r2,-24(fp)
  80074c:	1886703a 	and	r3,r3,r2
  800750:	e0bff817 	ldw	r2,-32(fp)
  800754:	1884d83a 	srl	r2,r3,r2
  800758:	e0bff915 	stw	r2,-28(fp)
                        if (digit <= 9)
  80075c:	e0bff917 	ldw	r2,-28(fp)
  800760:	108002a8 	cmpgeui	r2,r2,10
  800764:	1000041e 	bne	r2,zero,800778 <alt_printf+0x17c>
                            c = '0' + digit;
  800768:	e0bff917 	ldw	r2,-28(fp)
  80076c:	10800c04 	addi	r2,r2,48
  800770:	e0bffc05 	stb	r2,-16(fp)
  800774:	00000306 	br	800784 <alt_printf+0x188>
                        else
                            c = 'a' + digit - 10;
  800778:	e0bff917 	ldw	r2,-28(fp)
  80077c:	108015c4 	addi	r2,r2,87
  800780:	e0bffc05 	stb	r2,-16(fp)
                        alt_putchar(c);
  800784:	e13ffc07 	ldb	r4,-16(fp)
  800788:	08008540 	call	800854 <alt_putchar>
                    digit_shift = 28;
                    while (!(v & (0xF << digit_shift)))
                        digit_shift -= 4;

                    /* Print digits. */
                    for (; digit_shift >= 0; digit_shift -= 4)
  80078c:	e0bff817 	ldw	r2,-32(fp)
  800790:	10bfff04 	addi	r2,r2,-4
  800794:	e0bff815 	stw	r2,-32(fp)
  800798:	e0bff817 	ldw	r2,-32(fp)
  80079c:	1004403a 	cmpge	r2,r2,zero
  8007a0:	103fe51e 	bne	r2,zero,800738 <alt_printf+0x13c>
  8007a4:	00001a06 	br	800810 <alt_printf+0x214>
                        else
                            c = 'a' + digit - 10;
                        alt_putchar(c);
                    }
                }
                else if (c == 's')
  8007a8:	e0bffc07 	ldb	r2,-16(fp)
  8007ac:	10801cd8 	cmpnei	r2,r2,115
  8007b0:	1000171e 	bne	r2,zero,800810 <alt_printf+0x214>
                {
                    /* Process string format. */
                    char *s = va_arg(args, char *);
  8007b4:	e0fffe17 	ldw	r3,-8(fp)
  8007b8:	18800104 	addi	r2,r3,4
  8007bc:	e0bffe15 	stw	r2,-8(fp)
  8007c0:	1805883a 	mov	r2,r3
  8007c4:	10800017 	ldw	r2,0(r2)
  8007c8:	e0bff715 	stw	r2,-36(fp)

                    while(*s)
  8007cc:	00000906 	br	8007f4 <alt_printf+0x1f8>
                      alt_putchar(*s++);
  8007d0:	e0bff717 	ldw	r2,-36(fp)
  8007d4:	10800003 	ldbu	r2,0(r2)
  8007d8:	11003fcc 	andi	r4,r2,255
  8007dc:	2100201c 	xori	r4,r4,128
  8007e0:	213fe004 	addi	r4,r4,-128
  8007e4:	e0bff717 	ldw	r2,-36(fp)
  8007e8:	10800044 	addi	r2,r2,1
  8007ec:	e0bff715 	stw	r2,-36(fp)
  8007f0:	08008540 	call	800854 <alt_putchar>
                else if (c == 's')
                {
                    /* Process string format. */
                    char *s = va_arg(args, char *);

                    while(*s)
  8007f4:	e0bff717 	ldw	r2,-36(fp)
  8007f8:	10800003 	ldbu	r2,0(r2)
  8007fc:	10803fcc 	andi	r2,r2,255
  800800:	1080201c 	xori	r2,r2,128
  800804:	10bfe004 	addi	r2,r2,-128
  800808:	1004c03a 	cmpne	r2,r2,zero
  80080c:	103ff01e 	bne	r2,zero,8007d0 <alt_printf+0x1d4>
    const char *w;
    char c;

    /* Process format string. */
    w = fmt;
    while ((c = *w++) != 0)
  800810:	e0bffd17 	ldw	r2,-12(fp)
  800814:	10800003 	ldbu	r2,0(r2)
  800818:	e0bffc05 	stb	r2,-16(fp)
  80081c:	e0bffc07 	ldb	r2,-16(fp)
  800820:	1004c03a 	cmpne	r2,r2,zero
  800824:	1007883a 	mov	r3,r2
  800828:	e0bffd17 	ldw	r2,-12(fp)
  80082c:	10800044 	addi	r2,r2,1
  800830:	e0bffd15 	stw	r2,-12(fp)
  800834:	18803fcc 	andi	r2,r3,255
  800838:	1004c03a 	cmpne	r2,r2,zero
  80083c:	103f7c1e 	bne	r2,zero,800630 <alt_printf+0x34>
            {
                break;
            }
        }
    }
}
  800840:	e037883a 	mov	sp,fp
  800844:	dfc00117 	ldw	ra,4(sp)
  800848:	df000017 	ldw	fp,0(sp)
  80084c:	dec00504 	addi	sp,sp,20
  800850:	f800283a 	ret

00800854 <alt_putchar>:
 * Uses the ALT_DRIVER_WRITE() macro to call directly to driver if available.
 * Otherwise, uses newlib provided putchar() routine.
 */
int 
alt_putchar(int c)
{
  800854:	defffd04 	addi	sp,sp,-12
  800858:	dfc00215 	stw	ra,8(sp)
  80085c:	df000115 	stw	fp,4(sp)
  800860:	df000104 	addi	fp,sp,4
  800864:	e13fff15 	stw	r4,-4(fp)
    if (ALT_DRIVER_WRITE(ALT_STDOUT_DEV, &c1, 1, 0) == -1) {
        return -1;
    }
    return c;
#else
    return putchar(c);
  800868:	00802074 	movhi	r2,129
  80086c:	10807a04 	addi	r2,r2,488
  800870:	10800017 	ldw	r2,0(r2)
  800874:	11400217 	ldw	r5,8(r2)
  800878:	e13fff17 	ldw	r4,-4(fp)
  80087c:	080ba980 	call	80ba98 <putc>
#endif
}
  800880:	e037883a 	mov	sp,fp
  800884:	dfc00117 	ldw	ra,4(sp)
  800888:	df000017 	ldw	fp,0(sp)
  80088c:	dec00204 	addi	sp,sp,8
  800890:	f800283a 	ret

00800894 <__env_lock>:
/*
 *
 */

void __env_lock ( struct _reent *_r )
{
  800894:	deffdf04 	addi	sp,sp,-132
  800898:	dfc02015 	stw	ra,128(sp)
  80089c:	df001f15 	stw	fp,124(sp)
  8008a0:	df001f04 	addi	fp,sp,124
  8008a4:	e13fff15 	stw	r4,-4(fp)
  INT8U err;
  int id;

  /* use our priority as a task id */

  err = OSTaskQuery( OS_PRIO_SELF, &tcb );
  8008a8:	e17fe204 	addi	r5,fp,-120
  8008ac:	01003fc4 	movi	r4,255
  8008b0:	08086ec0 	call	8086ec <OSTaskQuery>
  8008b4:	e0bffe85 	stb	r2,-6(fp)
  if (err != OS_NO_ERR)
  8008b8:	e0bffe83 	ldbu	r2,-6(fp)
  8008bc:	10803fcc 	andi	r2,r2,255
  8008c0:	1004c03a 	cmpne	r2,r2,zero
  8008c4:	1000191e 	bne	r2,zero,80092c <__env_lock+0x98>
    return;

  id = tcb.OSTCBPrio;
  8008c8:	e0bfee83 	ldbu	r2,-70(fp)
  8008cc:	10803fcc 	andi	r2,r2,255
  8008d0:	e0bfe115 	stw	r2,-124(fp)
   
  /* see if we own the environment already */

  OSSemQuery( alt_envsem, &semdata );
  8008d4:	d126f217 	ldw	r4,-25656(gp)
  8008d8:	e17ffd04 	addi	r5,fp,-12
  8008dc:	0806c380 	call	806c38 <OSSemQuery>
  if( semdata.OSEventGrp && id == lockid ) 
  8008e0:	e0bffe43 	ldbu	r2,-7(fp)
  8008e4:	10803fcc 	andi	r2,r2,255
  8008e8:	1005003a 	cmpeq	r2,r2,zero
  8008ec:	1000071e 	bne	r2,zero,80090c <__env_lock+0x78>
  8008f0:	d0e00017 	ldw	r3,-32768(gp)
  8008f4:	e0bfe117 	ldw	r2,-124(fp)
  8008f8:	10c0041e 	bne	r2,r3,80090c <__env_lock+0x78>
  {
    /* we do; just count the recursion */

    locks++;
  8008fc:	d0a6f117 	ldw	r2,-25660(gp)
  800900:	10800044 	addi	r2,r2,1
  800904:	d0a6f115 	stw	r2,-25660(gp)
  id = tcb.OSTCBPrio;
   
  /* see if we own the environment already */

  OSSemQuery( alt_envsem, &semdata );
  if( semdata.OSEventGrp && id == lockid ) 
  800908:	00000806 	br	80092c <__env_lock+0x98>
  }
  else 
  {
    /* wait on the other task to yield, then claim ownership */

    OSSemPend( alt_envsem, 0, &err );
  80090c:	d126f217 	ldw	r4,-25656(gp)
  800910:	e1bffe84 	addi	r6,fp,-6
  800914:	000b883a 	mov	r5,zero
  800918:	08067180 	call	806718 <OSSemPend>
    locks  = 1;
  80091c:	00800044 	movi	r2,1
  800920:	d0a6f115 	stw	r2,-25660(gp)
    lockid = id;
  800924:	e0bfe117 	ldw	r2,-124(fp)
  800928:	d0a00015 	stw	r2,-32768(gp)
  }

#endif /* OS_THREAD_SAFE_NEWLIB */
  return;
}
  80092c:	e037883a 	mov	sp,fp
  800930:	dfc00117 	ldw	ra,4(sp)
  800934:	df000017 	ldw	fp,0(sp)
  800938:	dec00204 	addi	sp,sp,8
  80093c:	f800283a 	ret

00800940 <__env_unlock>:
/*
 *
 */

void __env_unlock ( struct _reent *_r )
{
  800940:	defffd04 	addi	sp,sp,-12
  800944:	dfc00215 	stw	ra,8(sp)
  800948:	df000115 	stw	fp,4(sp)
  80094c:	df000104 	addi	fp,sp,4
  800950:	e13fff15 	stw	r4,-4(fp)
#if OS_THREAD_SAFE_NEWLIB
  if (locks == 0)
  800954:	d0a6f117 	ldw	r2,-25660(gp)
  800958:	1005003a 	cmpeq	r2,r2,zero
  80095c:	10000a1e 	bne	r2,zero,800988 <__env_unlock+0x48>
   /* 
    * release the environment once the number of locks == the number 
    * of unlocks 
    */

  if( (--locks) == 0 ) 
  800960:	d0a6f117 	ldw	r2,-25660(gp)
  800964:	10bfffc4 	addi	r2,r2,-1
  800968:	d0a6f115 	stw	r2,-25660(gp)
  80096c:	d0a6f117 	ldw	r2,-25660(gp)
  800970:	1004c03a 	cmpne	r2,r2,zero
  800974:	1000041e 	bne	r2,zero,800988 <__env_unlock+0x48>
  {
    lockid = -1;
  800978:	00bfffc4 	movi	r2,-1
  80097c:	d0a00015 	stw	r2,-32768(gp)
    OSSemPost( alt_envsem );
  800980:	d126f217 	ldw	r4,-25656(gp)
  800984:	0806b100 	call	806b10 <OSSemPost>
  }
#endif /* OS_THREAD_SAFE_NEWLIB */
}
  800988:	e037883a 	mov	sp,fp
  80098c:	dfc00117 	ldw	ra,4(sp)
  800990:	df000017 	ldw	fp,0(sp)
  800994:	dec00204 	addi	sp,sp,8
  800998:	f800283a 	ret

0080099c <__malloc_lock>:
/*
 *
 */

void __malloc_lock ( struct _reent *_r )
{
  80099c:	deffdb04 	addi	sp,sp,-148
  8009a0:	dfc02415 	stw	ra,144(sp)
  8009a4:	df002315 	stw	fp,140(sp)
  8009a8:	df002304 	addi	fp,sp,140
  8009ac:	e13fff15 	stw	r4,-4(fp)
  OS_TCB tcb;
  OS_SEM_DATA semdata;
  INT8U err;
  int id;
#if OS_CRITICAL_METHOD == 3                      /* Allocate storage for CPU status register           */
    OS_CPU_SR  cpu_sr = 0;
  8009b0:	e03fe015 	stw	zero,-128(fp)
#endif  
  
  if (OSRunning != OS_TRUE)
  8009b4:	00802074 	movhi	r2,129
  8009b8:	10874744 	addi	r2,r2,7453
  8009bc:	10800003 	ldbu	r2,0(r2)
  8009c0:	10803fcc 	andi	r2,r2,255
  8009c4:	10800058 	cmpnei	r2,r2,1
  8009c8:	1000311e 	bne	r2,zero,800a90 <__malloc_lock+0xf4>
      return;

  /* use our priority as a task id */

  err = OSTaskQuery( OS_PRIO_SELF, &tcb );
  8009cc:	e17fe204 	addi	r5,fp,-120
  8009d0:	01003fc4 	movi	r4,255
  8009d4:	08086ec0 	call	8086ec <OSTaskQuery>
  8009d8:	e0bffe85 	stb	r2,-6(fp)
  if (err != OS_NO_ERR)
  8009dc:	e0bffe83 	ldbu	r2,-6(fp)
  8009e0:	10803fcc 	andi	r2,r2,255
  8009e4:	1004c03a 	cmpne	r2,r2,zero
  8009e8:	1000291e 	bne	r2,zero,800a90 <__malloc_lock+0xf4>
    return;

  id = tcb.OSTCBPrio;
  8009ec:	e0bfee83 	ldbu	r2,-70(fp)
  8009f0:	10803fcc 	andi	r2,r2,255
  8009f4:	e0bfe115 	stw	r2,-124(fp)
   
  /* see if we own the heap already */

  OSSemQuery( alt_heapsem, &semdata );
  8009f8:	d126f417 	ldw	r4,-25648(gp)
  8009fc:	e17ffd04 	addi	r5,fp,-12
  800a00:	0806c380 	call	806c38 <OSSemQuery>
static ALT_INLINE alt_irq_context ALT_ALWAYS_INLINE 
       alt_irq_disable_all (void)
{
  alt_irq_context context;

  NIOS2_READ_STATUS (context);
  800a04:	0005303a 	rdctl	r2,status
  800a08:	e0bfdf15 	stw	r2,-132(fp)

  NIOS2_WRITE_STATUS (context & ~NIOS2_STATUS_PIE_MSK);
  800a0c:	e0ffdf17 	ldw	r3,-132(fp)
  800a10:	00bfff84 	movi	r2,-2
  800a14:	1884703a 	and	r2,r3,r2
  800a18:	1001703a 	wrctl	status,r2
  
  return context;
  800a1c:	e0bfdf17 	ldw	r2,-132(fp)
  
  OS_ENTER_CRITICAL();
  800a20:	e0bfe015 	stw	r2,-128(fp)

  if( !semdata.OSCnt && id == lockid ) 
  800a24:	e0bffd0b 	ldhu	r2,-12(fp)
  800a28:	10bfffcc 	andi	r2,r2,65535
  800a2c:	1004c03a 	cmpne	r2,r2,zero
  800a30:	10000b1e 	bne	r2,zero,800a60 <__malloc_lock+0xc4>
  800a34:	d0e00117 	ldw	r3,-32764(gp)
  800a38:	e0bfe117 	ldw	r2,-124(fp)
  800a3c:	10c0081e 	bne	r2,r3,800a60 <__malloc_lock+0xc4>
  {
    /* we do; just count the recursion */
    locks++;
  800a40:	d0a6f317 	ldw	r2,-25652(gp)
  800a44:	10800044 	addi	r2,r2,1
  800a48:	d0a6f315 	stw	r2,-25652(gp)
  800a4c:	e0bfe017 	ldw	r2,-128(fp)
  800a50:	e0bfde15 	stw	r2,-136(fp)
  status &= ~NIOS2_STATUS_PIE_MSK;
  status |= (context & NIOS2_STATUS_PIE_MSK);
  
  NIOS2_WRITE_STATUS (status);
#else
  NIOS2_WRITE_STATUS (context);
  800a54:	e0bfde17 	ldw	r2,-136(fp)
  800a58:	1001703a 	wrctl	status,r2

  OSSemQuery( alt_heapsem, &semdata );
  
  OS_ENTER_CRITICAL();

  if( !semdata.OSCnt && id == lockid ) 
  800a5c:	00000c06 	br	800a90 <__malloc_lock+0xf4>
  800a60:	e0bfe017 	ldw	r2,-128(fp)
  800a64:	e0bfdd15 	stw	r2,-140(fp)
  800a68:	e0bfdd17 	ldw	r2,-140(fp)
  800a6c:	1001703a 	wrctl	status,r2
  else 
  {
    /* wait on the other task to yield the heap, then claim ownership of it */
    OS_EXIT_CRITICAL();

    OSSemPend( alt_heapsem, 0, &err );
  800a70:	d126f417 	ldw	r4,-25648(gp)
  800a74:	e1bffe84 	addi	r6,fp,-6
  800a78:	000b883a 	mov	r5,zero
  800a7c:	08067180 	call	806718 <OSSemPend>
    locks  = 1;
  800a80:	00800044 	movi	r2,1
  800a84:	d0a6f315 	stw	r2,-25652(gp)
    lockid = id;
  800a88:	e0bfe117 	ldw	r2,-124(fp)
  800a8c:	d0a00115 	stw	r2,-32764(gp)
  }

#endif /* OS_THREAD_SAFE_NEWLIB */
  return;
}
  800a90:	e037883a 	mov	sp,fp
  800a94:	dfc00117 	ldw	ra,4(sp)
  800a98:	df000017 	ldw	fp,0(sp)
  800a9c:	dec00204 	addi	sp,sp,8
  800aa0:	f800283a 	ret

00800aa4 <__malloc_unlock>:
/*
 *
 */

void __malloc_unlock ( struct _reent *_r )
{
  800aa4:	defff804 	addi	sp,sp,-32
  800aa8:	dfc00715 	stw	ra,28(sp)
  800aac:	df000615 	stw	fp,24(sp)
  800ab0:	df000604 	addi	fp,sp,24
  800ab4:	e13fff15 	stw	r4,-4(fp)
#if OS_THREAD_SAFE_NEWLIB

#if OS_CRITICAL_METHOD == 3                      /* Allocate storage for CPU status register           */
    OS_CPU_SR  cpu_sr = 0;
  800ab8:	e03ffe15 	stw	zero,-8(fp)
#endif 

  if (OSRunning != OS_TRUE)
  800abc:	00802074 	movhi	r2,129
  800ac0:	10874744 	addi	r2,r2,7453
  800ac4:	10800003 	ldbu	r2,0(r2)
  800ac8:	10803fcc 	andi	r2,r2,255
  800acc:	10800058 	cmpnei	r2,r2,1
  800ad0:	1000231e 	bne	r2,zero,800b60 <__malloc_unlock+0xbc>
static ALT_INLINE alt_irq_context ALT_ALWAYS_INLINE 
       alt_irq_disable_all (void)
{
  alt_irq_context context;

  NIOS2_READ_STATUS (context);
  800ad4:	0005303a 	rdctl	r2,status
  800ad8:	e0bffd15 	stw	r2,-12(fp)

  NIOS2_WRITE_STATUS (context & ~NIOS2_STATUS_PIE_MSK);
  800adc:	e0fffd17 	ldw	r3,-12(fp)
  800ae0:	00bfff84 	movi	r2,-2
  800ae4:	1884703a 	and	r2,r3,r2
  800ae8:	1001703a 	wrctl	status,r2
  
  return context;
  800aec:	e0bffd17 	ldw	r2,-12(fp)
      return;

  OS_ENTER_CRITICAL();
  800af0:	e0bffe15 	stw	r2,-8(fp)
  if (locks == 0)
  800af4:	d0a6f317 	ldw	r2,-25652(gp)
  800af8:	1004c03a 	cmpne	r2,r2,zero
  800afc:	1000051e 	bne	r2,zero,800b14 <__malloc_unlock+0x70>
  800b00:	e0bffe17 	ldw	r2,-8(fp)
  800b04:	e0bffc15 	stw	r2,-16(fp)
  status &= ~NIOS2_STATUS_PIE_MSK;
  status |= (context & NIOS2_STATUS_PIE_MSK);
  
  NIOS2_WRITE_STATUS (status);
#else
  NIOS2_WRITE_STATUS (context);
  800b08:	e0bffc17 	ldw	r2,-16(fp)
  800b0c:	1001703a 	wrctl	status,r2
  {
      OS_EXIT_CRITICAL();
      return;
  800b10:	00001306 	br	800b60 <__malloc_unlock+0xbc>
  }

  /* release the heap once the number of locks == the number of unlocks */
  if( (--locks) == 0 ) 
  800b14:	d0a6f317 	ldw	r2,-25652(gp)
  800b18:	10bfffc4 	addi	r2,r2,-1
  800b1c:	d0a6f315 	stw	r2,-25652(gp)
  800b20:	d0a6f317 	ldw	r2,-25652(gp)
  800b24:	1004c03a 	cmpne	r2,r2,zero
  800b28:	1000091e 	bne	r2,zero,800b50 <__malloc_unlock+0xac>
  {
    lockid = -1;
  800b2c:	00bfffc4 	movi	r2,-1
  800b30:	d0a00115 	stw	r2,-32764(gp)
  800b34:	e0bffe17 	ldw	r2,-8(fp)
  800b38:	e0bffb15 	stw	r2,-20(fp)
  800b3c:	e0bffb17 	ldw	r2,-20(fp)
  800b40:	1001703a 	wrctl	status,r2
    OS_EXIT_CRITICAL();
    OSSemPost( alt_heapsem );
  800b44:	d126f417 	ldw	r4,-25648(gp)
  800b48:	0806b100 	call	806b10 <OSSemPost>
  800b4c:	00000406 	br	800b60 <__malloc_unlock+0xbc>
  800b50:	e0bffe17 	ldw	r2,-8(fp)
  800b54:	e0bffa15 	stw	r2,-24(fp)
  800b58:	e0bffa17 	ldw	r2,-24(fp)
  800b5c:	1001703a 	wrctl	status,r2
  {
      OS_EXIT_CRITICAL();
  }
  
#endif /* OS_THREAD_SAFE_NEWLIB */
}
  800b60:	e037883a 	mov	sp,fp
  800b64:	dfc00117 	ldw	ra,4(sp)
  800b68:	df000017 	ldw	fp,0(sp)
  800b6c:	dec00204 	addi	sp,sp,8
  800b70:	f800283a 	ret

00800b74 <OSEventNameGet>:
*********************************************************************************************************
*/

#if (OS_EVENT_EN) && (OS_EVENT_NAME_SIZE > 1)
INT8U  OSEventNameGet (OS_EVENT *pevent, INT8U *pname, INT8U *perr)
{
  800b74:	defff604 	addi	sp,sp,-40
  800b78:	dfc00915 	stw	ra,36(sp)
  800b7c:	df000815 	stw	fp,32(sp)
  800b80:	df000804 	addi	fp,sp,32
  800b84:	e13ffc15 	stw	r4,-16(fp)
  800b88:	e17ffd15 	stw	r5,-12(fp)
  800b8c:	e1bffe15 	stw	r6,-8(fp)
    INT8U      len;
#if OS_CRITICAL_METHOD == 3                      /* Allocate storage for CPU status register           */
    OS_CPU_SR  cpu_sr = 0;
  800b90:	e03ffa15 	stw	zero,-24(fp)
#endif



#if OS_ARG_CHK_EN > 0
    if (perr == (INT8U *)0) {                    /* Validate 'perr'                                    */
  800b94:	e0bffe17 	ldw	r2,-8(fp)
  800b98:	1004c03a 	cmpne	r2,r2,zero
  800b9c:	1000021e 	bne	r2,zero,800ba8 <OSEventNameGet+0x34>
        return (0);
  800ba0:	e03fff15 	stw	zero,-4(fp)
  800ba4:	00003906 	br	800c8c <OSEventNameGet+0x118>
    }
    if (pevent == (OS_EVENT *)0) {               /* Is 'pevent' a NULL pointer?                        */
  800ba8:	e0bffc17 	ldw	r2,-16(fp)
  800bac:	1004c03a 	cmpne	r2,r2,zero
  800bb0:	1000051e 	bne	r2,zero,800bc8 <OSEventNameGet+0x54>
        *perr = OS_ERR_PEVENT_NULL;
  800bb4:	e0fffe17 	ldw	r3,-8(fp)
  800bb8:	00800104 	movi	r2,4
  800bbc:	18800005 	stb	r2,0(r3)
        return (0);
  800bc0:	e03fff15 	stw	zero,-4(fp)
  800bc4:	00003106 	br	800c8c <OSEventNameGet+0x118>
    }
    if (pname == (INT8U *)0) {                   /* Is 'pname' a NULL pointer?                         */
  800bc8:	e0bffd17 	ldw	r2,-12(fp)
  800bcc:	1004c03a 	cmpne	r2,r2,zero
  800bd0:	1000051e 	bne	r2,zero,800be8 <OSEventNameGet+0x74>
        *perr = OS_ERR_PNAME_NULL;
  800bd4:	e0fffe17 	ldw	r3,-8(fp)
  800bd8:	00800304 	movi	r2,12
  800bdc:	18800005 	stb	r2,0(r3)
        return (0);
  800be0:	e03fff15 	stw	zero,-4(fp)
  800be4:	00002906 	br	800c8c <OSEventNameGet+0x118>
    }
#endif
    if (OSIntNesting > 0) {                      /* See if trying to call from an ISR                  */
  800be8:	d0a70303 	ldbu	r2,-25588(gp)
  800bec:	10803fcc 	andi	r2,r2,255
  800bf0:	1005003a 	cmpeq	r2,r2,zero
  800bf4:	1000051e 	bne	r2,zero,800c0c <OSEventNameGet+0x98>
        *perr  = OS_ERR_NAME_GET_ISR;
  800bf8:	e0fffe17 	ldw	r3,-8(fp)
  800bfc:	00800444 	movi	r2,17
  800c00:	18800005 	stb	r2,0(r3)
        return (0);
  800c04:	e03fff15 	stw	zero,-4(fp)
  800c08:	00002006 	br	800c8c <OSEventNameGet+0x118>
    }
    switch (pevent->OSEventType) {
  800c0c:	e0bffc17 	ldw	r2,-16(fp)
  800c10:	10800003 	ldbu	r2,0(r2)
  800c14:	10803fcc 	andi	r2,r2,255
  800c18:	10bfffc4 	addi	r2,r2,-1
  800c1c:	10800128 	cmpgeui	r2,r2,4
  800c20:	1000161e 	bne	r2,zero,800c7c <OSEventNameGet+0x108>
static ALT_INLINE alt_irq_context ALT_ALWAYS_INLINE 
       alt_irq_disable_all (void)
{
  alt_irq_context context;

  NIOS2_READ_STATUS (context);
  800c24:	0005303a 	rdctl	r2,status
  800c28:	e0bff915 	stw	r2,-28(fp)

  NIOS2_WRITE_STATUS (context & ~NIOS2_STATUS_PIE_MSK);
  800c2c:	e0fff917 	ldw	r3,-28(fp)
  800c30:	00bfff84 	movi	r2,-2
  800c34:	1884703a 	and	r2,r3,r2
  800c38:	1001703a 	wrctl	status,r2
  
  return context;
  800c3c:	e0bff917 	ldw	r2,-28(fp)

        default:
             *perr = OS_ERR_EVENT_TYPE;
             return (0);
    }
    OS_ENTER_CRITICAL();
  800c40:	e0bffa15 	stw	r2,-24(fp)
    len   = OS_StrCopy(pname, pevent->OSEventName);   /* Copy name from OS_EVENT                       */
  800c44:	e0bffc17 	ldw	r2,-16(fp)
  800c48:	11400384 	addi	r5,r2,14
  800c4c:	e13ffd17 	ldw	r4,-12(fp)
  800c50:	08026f80 	call	8026f8 <OS_StrCopy>
  800c54:	e0bffb05 	stb	r2,-20(fp)
  800c58:	e0bffa17 	ldw	r2,-24(fp)
  800c5c:	e0bff815 	stw	r2,-32(fp)
  status &= ~NIOS2_STATUS_PIE_MSK;
  status |= (context & NIOS2_STATUS_PIE_MSK);
  
  NIOS2_WRITE_STATUS (status);
#else
  NIOS2_WRITE_STATUS (context);
  800c60:	e0bff817 	ldw	r2,-32(fp)
  800c64:	1001703a 	wrctl	status,r2
    OS_EXIT_CRITICAL();
    *perr = OS_ERR_NONE;
  800c68:	e0bffe17 	ldw	r2,-8(fp)
  800c6c:	10000005 	stb	zero,0(r2)
    return (len);
  800c70:	e0bffb03 	ldbu	r2,-20(fp)
  800c74:	e0bfff15 	stw	r2,-4(fp)
  800c78:	00000406 	br	800c8c <OSEventNameGet+0x118>
        case OS_EVENT_TYPE_MBOX:
        case OS_EVENT_TYPE_Q:
             break;

        default:
             *perr = OS_ERR_EVENT_TYPE;
  800c7c:	e0fffe17 	ldw	r3,-8(fp)
  800c80:	00800044 	movi	r2,1
  800c84:	18800005 	stb	r2,0(r3)
             return (0);
  800c88:	e03fff15 	stw	zero,-4(fp)
  800c8c:	e0bfff17 	ldw	r2,-4(fp)
    OS_ENTER_CRITICAL();
    len   = OS_StrCopy(pname, pevent->OSEventName);   /* Copy name from OS_EVENT                       */
    OS_EXIT_CRITICAL();
    *perr = OS_ERR_NONE;
    return (len);
}
  800c90:	e037883a 	mov	sp,fp
  800c94:	dfc00117 	ldw	ra,4(sp)
  800c98:	df000017 	ldw	fp,0(sp)
  800c9c:	dec00204 	addi	sp,sp,8
  800ca0:	f800283a 	ret

00800ca4 <OSEventNameSet>:
*********************************************************************************************************
*/

#if (OS_EVENT_EN) && (OS_EVENT_NAME_SIZE > 1)
void  OSEventNameSet (OS_EVENT *pevent, INT8U *pname, INT8U *perr)
{
  800ca4:	defff604 	addi	sp,sp,-40
  800ca8:	dfc00915 	stw	ra,36(sp)
  800cac:	df000815 	stw	fp,32(sp)
  800cb0:	df000804 	addi	fp,sp,32
  800cb4:	e13ffd15 	stw	r4,-12(fp)
  800cb8:	e17ffe15 	stw	r5,-8(fp)
  800cbc:	e1bfff15 	stw	r6,-4(fp)
    INT8U      len;
#if OS_CRITICAL_METHOD == 3                      /* Allocate storage for CPU status register           */
    OS_CPU_SR  cpu_sr = 0;
  800cc0:	e03ffb15 	stw	zero,-20(fp)
#endif



#if OS_ARG_CHK_EN > 0
    if (perr == (INT8U *)0) {                    /* Validate 'perr'                                    */
  800cc4:	e0bfff17 	ldw	r2,-4(fp)
  800cc8:	1005003a 	cmpeq	r2,r2,zero
  800ccc:	1000411e 	bne	r2,zero,800dd4 <OSEventNameSet+0x130>
        return;
    }
    if (pevent == (OS_EVENT *)0) {               /* Is 'pevent' a NULL pointer?                        */
  800cd0:	e0bffd17 	ldw	r2,-12(fp)
  800cd4:	1004c03a 	cmpne	r2,r2,zero
  800cd8:	1000041e 	bne	r2,zero,800cec <OSEventNameSet+0x48>
        *perr = OS_ERR_PEVENT_NULL;
  800cdc:	e0ffff17 	ldw	r3,-4(fp)
  800ce0:	00800104 	movi	r2,4
  800ce4:	18800005 	stb	r2,0(r3)
        return;
  800ce8:	00003a06 	br	800dd4 <OSEventNameSet+0x130>
    }
    if (pname == (INT8U *)0) {                   /* Is 'pname' a NULL pointer?                         */
  800cec:	e0bffe17 	ldw	r2,-8(fp)
  800cf0:	1004c03a 	cmpne	r2,r2,zero
  800cf4:	1000041e 	bne	r2,zero,800d08 <OSEventNameSet+0x64>
        *perr = OS_ERR_PNAME_NULL;
  800cf8:	e0ffff17 	ldw	r3,-4(fp)
  800cfc:	00800304 	movi	r2,12
  800d00:	18800005 	stb	r2,0(r3)
        return;
  800d04:	00003306 	br	800dd4 <OSEventNameSet+0x130>
    }
#endif
    if (OSIntNesting > 0) {                      /* See if trying to call from an ISR                  */
  800d08:	d0a70303 	ldbu	r2,-25588(gp)
  800d0c:	10803fcc 	andi	r2,r2,255
  800d10:	1005003a 	cmpeq	r2,r2,zero
  800d14:	1000041e 	bne	r2,zero,800d28 <OSEventNameSet+0x84>
        *perr = OS_ERR_NAME_SET_ISR;
  800d18:	e0ffff17 	ldw	r3,-4(fp)
  800d1c:	00800484 	movi	r2,18
  800d20:	18800005 	stb	r2,0(r3)
        return;
  800d24:	00002b06 	br	800dd4 <OSEventNameSet+0x130>
    }
    switch (pevent->OSEventType) {
  800d28:	e0bffd17 	ldw	r2,-12(fp)
  800d2c:	10800003 	ldbu	r2,0(r2)
  800d30:	10803fcc 	andi	r2,r2,255
  800d34:	10bfffc4 	addi	r2,r2,-1
  800d38:	10800128 	cmpgeui	r2,r2,4
  800d3c:	10000f1e 	bne	r2,zero,800d7c <OSEventNameSet+0xd8>
static ALT_INLINE alt_irq_context ALT_ALWAYS_INLINE 
       alt_irq_disable_all (void)
{
  alt_irq_context context;

  NIOS2_READ_STATUS (context);
  800d40:	0005303a 	rdctl	r2,status
  800d44:	e0bffa15 	stw	r2,-24(fp)

  NIOS2_WRITE_STATUS (context & ~NIOS2_STATUS_PIE_MSK);
  800d48:	e0fffa17 	ldw	r3,-24(fp)
  800d4c:	00bfff84 	movi	r2,-2
  800d50:	1884703a 	and	r2,r3,r2
  800d54:	1001703a 	wrctl	status,r2
  
  return context;
  800d58:	e0bffa17 	ldw	r2,-24(fp)

        default:
             *perr = OS_ERR_EVENT_TYPE;
             return;
    }
    OS_ENTER_CRITICAL();
  800d5c:	e0bffb15 	stw	r2,-20(fp)
    len = OS_StrLen(pname);                           /* Can we fit the string in the storage area?    */
  800d60:	e13ffe17 	ldw	r4,-8(fp)
  800d64:	08027780 	call	802778 <OS_StrLen>
  800d68:	e0bffc05 	stb	r2,-16(fp)
    if (len > (OS_EVENT_NAME_SIZE - 1)) {             /* No                                            */
  800d6c:	e0bffc03 	ldbu	r2,-16(fp)
  800d70:	10800828 	cmpgeui	r2,r2,32
  800d74:	1000051e 	bne	r2,zero,800d8c <OSEventNameSet+0xe8>
  800d78:	00000c06 	br	800dac <OSEventNameSet+0x108>
        case OS_EVENT_TYPE_MBOX:
        case OS_EVENT_TYPE_Q:
             break;

        default:
             *perr = OS_ERR_EVENT_TYPE;
  800d7c:	e0ffff17 	ldw	r3,-4(fp)
  800d80:	00800044 	movi	r2,1
  800d84:	18800005 	stb	r2,0(r3)
             return;
  800d88:	00001206 	br	800dd4 <OSEventNameSet+0x130>
  800d8c:	e0bffb17 	ldw	r2,-20(fp)
  800d90:	e0bff915 	stw	r2,-28(fp)
  status &= ~NIOS2_STATUS_PIE_MSK;
  status |= (context & NIOS2_STATUS_PIE_MSK);
  
  NIOS2_WRITE_STATUS (status);
#else
  NIOS2_WRITE_STATUS (context);
  800d94:	e0bff917 	ldw	r2,-28(fp)
  800d98:	1001703a 	wrctl	status,r2
    }
    OS_ENTER_CRITICAL();
    len = OS_StrLen(pname);                           /* Can we fit the string in the storage area?    */
    if (len > (OS_EVENT_NAME_SIZE - 1)) {             /* No                                            */
        OS_EXIT_CRITICAL();
        *perr = OS_ERR_EVENT_NAME_TOO_LONG;
  800d9c:	e0ffff17 	ldw	r3,-4(fp)
  800da0:	008002c4 	movi	r2,11
  800da4:	18800005 	stb	r2,0(r3)
        return;
  800da8:	00000a06 	br	800dd4 <OSEventNameSet+0x130>
    }
    (void)OS_StrCopy(pevent->OSEventName, pname);     /* Yes, copy name to the event control block     */
  800dac:	e0bffd17 	ldw	r2,-12(fp)
  800db0:	11000384 	addi	r4,r2,14
  800db4:	e17ffe17 	ldw	r5,-8(fp)
  800db8:	08026f80 	call	8026f8 <OS_StrCopy>
  800dbc:	e0bffb17 	ldw	r2,-20(fp)
  800dc0:	e0bff815 	stw	r2,-32(fp)
  800dc4:	e0bff817 	ldw	r2,-32(fp)
  800dc8:	1001703a 	wrctl	status,r2
    OS_EXIT_CRITICAL();
    *perr = OS_ERR_NONE;
  800dcc:	e0bfff17 	ldw	r2,-4(fp)
  800dd0:	10000005 	stb	zero,0(r2)
}
  800dd4:	e037883a 	mov	sp,fp
  800dd8:	dfc00117 	ldw	ra,4(sp)
  800ddc:	df000017 	ldw	fp,0(sp)
  800de0:	dec00204 	addi	sp,sp,8
  800de4:	f800283a 	ret

00800de8 <OSEventPendMulti>:
*********************************************************************************************************
*/
/*$PAGE*/
#if ((OS_EVENT_EN) && (OS_EVENT_MULTI_EN > 0))
INT16U  OSEventPendMulti (OS_EVENT **pevents_pend, OS_EVENT **pevents_rdy, void **pmsgs_rdy, INT16U timeout, INT8U *perr)
{
  800de8:	deffe704 	addi	sp,sp,-100
  800dec:	dfc01815 	stw	ra,96(sp)
  800df0:	df001715 	stw	fp,92(sp)
  800df4:	df001704 	addi	fp,sp,92
  800df8:	e13ff615 	stw	r4,-40(fp)
  800dfc:	e17ff715 	stw	r5,-36(fp)
  800e00:	e1bff815 	stw	r6,-32(fp)
  800e04:	e1fff90d 	sth	r7,-28(fp)
#endif
    BOOLEAN     events_rdy;
    INT16U      events_rdy_nbr;
    INT8U       events_stat;
#if (OS_CRITICAL_METHOD == 3)                           /* Allocate storage for CPU status register    */
    OS_CPU_SR   cpu_sr = 0;
  800e08:	e03ff015 	stw	zero,-64(fp)
#endif



#if (OS_ARG_CHK_EN > 0)
    if (perr == (INT8U *)0) {                           /* Validate 'perr'                             */
  800e0c:	e0800217 	ldw	r2,8(fp)
  800e10:	1004c03a 	cmpne	r2,r2,zero
  800e14:	1000021e 	bne	r2,zero,800e20 <OSEventPendMulti+0x38>
        return (0);
  800e18:	e03fff15 	stw	zero,-4(fp)
  800e1c:	00019906 	br	801484 <OSEventPendMulti+0x69c>
    }
    if (pevents_pend == (OS_EVENT **)0) {               /* Validate 'pevents_pend'                     */
  800e20:	e0bff617 	ldw	r2,-40(fp)
  800e24:	1004c03a 	cmpne	r2,r2,zero
  800e28:	1000051e 	bne	r2,zero,800e40 <OSEventPendMulti+0x58>
       *perr =  OS_ERR_PEVENT_NULL;
  800e2c:	e0c00217 	ldw	r3,8(fp)
  800e30:	00800104 	movi	r2,4
  800e34:	18800005 	stb	r2,0(r3)
        return (0);
  800e38:	e03fff15 	stw	zero,-4(fp)
  800e3c:	00019106 	br	801484 <OSEventPendMulti+0x69c>
    }
    if (pevents_rdy  == (OS_EVENT **)0) {               /* Validate 'pevents_rdy'                      */
  800e40:	e0bff717 	ldw	r2,-36(fp)
  800e44:	1004c03a 	cmpne	r2,r2,zero
  800e48:	1000051e 	bne	r2,zero,800e60 <OSEventPendMulti+0x78>
       *perr =  OS_ERR_PEVENT_NULL;
  800e4c:	e0c00217 	ldw	r3,8(fp)
  800e50:	00800104 	movi	r2,4
  800e54:	18800005 	stb	r2,0(r3)
        return (0);
  800e58:	e03fff15 	stw	zero,-4(fp)
  800e5c:	00018906 	br	801484 <OSEventPendMulti+0x69c>
    }
    if (pmsgs_rdy == (void **)0) {                      /* Validate 'pmsgs_rdy'                        */
  800e60:	e0bff817 	ldw	r2,-32(fp)
  800e64:	1004c03a 	cmpne	r2,r2,zero
  800e68:	1000051e 	bne	r2,zero,800e80 <OSEventPendMulti+0x98>
       *perr =  OS_ERR_PEVENT_NULL;
  800e6c:	e0c00217 	ldw	r3,8(fp)
  800e70:	00800104 	movi	r2,4
  800e74:	18800005 	stb	r2,0(r3)
        return (0);
  800e78:	e03fff15 	stw	zero,-4(fp)
  800e7c:	00018106 	br	801484 <OSEventPendMulti+0x69c>
    }
#endif

   *pevents_rdy = (OS_EVENT *)0;                        /* Init array to NULL in case of errors        */
  800e80:	e0bff717 	ldw	r2,-36(fp)
  800e84:	10000015 	stw	zero,0(r2)

    pevents     =  pevents_pend;
  800e88:	e0bff617 	ldw	r2,-40(fp)
  800e8c:	e0bff515 	stw	r2,-44(fp)
    pevent      = *pevents;
  800e90:	e0bff517 	ldw	r2,-44(fp)
  800e94:	10800017 	ldw	r2,0(r2)
  800e98:	e0bff415 	stw	r2,-48(fp)
    while  (pevent != (OS_EVENT *)0) {
  800e9c:	00001806 	br	800f00 <OSEventPendMulti+0x118>
        switch (pevent->OSEventType) {                  /* Validate event block types                  */
  800ea0:	e0bff417 	ldw	r2,-48(fp)
  800ea4:	10800003 	ldbu	r2,0(r2)
  800ea8:	10803fcc 	andi	r2,r2,255
  800eac:	e0bffe15 	stw	r2,-8(fp)
  800eb0:	e0fffe17 	ldw	r3,-8(fp)
  800eb4:	188000a0 	cmpeqi	r2,r3,2
  800eb8:	10000b1e 	bne	r2,zero,800ee8 <OSEventPendMulti+0x100>
  800ebc:	e0fffe17 	ldw	r3,-8(fp)
  800ec0:	188000e0 	cmpeqi	r2,r3,3
  800ec4:	1000081e 	bne	r2,zero,800ee8 <OSEventPendMulti+0x100>
  800ec8:	e0fffe17 	ldw	r3,-8(fp)
  800ecc:	18800060 	cmpeqi	r2,r3,1
  800ed0:	1000051e 	bne	r2,zero,800ee8 <OSEventPendMulti+0x100>
#endif

            case OS_EVENT_TYPE_MUTEX:                                            
            case OS_EVENT_TYPE_FLAG:
            default:           
                *perr = OS_ERR_EVENT_TYPE;
  800ed4:	e0c00217 	ldw	r3,8(fp)
  800ed8:	00800044 	movi	r2,1
  800edc:	18800005 	stb	r2,0(r3)
                 return (0);
  800ee0:	e03fff15 	stw	zero,-4(fp)
  800ee4:	00016706 	br	801484 <OSEventPendMulti+0x69c>
        }
        pevents++;
  800ee8:	e0bff517 	ldw	r2,-44(fp)
  800eec:	10800104 	addi	r2,r2,4
  800ef0:	e0bff515 	stw	r2,-44(fp)
        pevent = *pevents;
  800ef4:	e0bff517 	ldw	r2,-44(fp)
  800ef8:	10800017 	ldw	r2,0(r2)
  800efc:	e0bff415 	stw	r2,-48(fp)

   *pevents_rdy = (OS_EVENT *)0;                        /* Init array to NULL in case of errors        */

    pevents     =  pevents_pend;
    pevent      = *pevents;
    while  (pevent != (OS_EVENT *)0) {
  800f00:	e0bff417 	ldw	r2,-48(fp)
  800f04:	1004c03a 	cmpne	r2,r2,zero
  800f08:	103fe51e 	bne	r2,zero,800ea0 <OSEventPendMulti+0xb8>
        }
        pevents++;
        pevent = *pevents;
    }

    if (OSIntNesting  > 0) {                            /* See if called from ISR ...                  */
  800f0c:	d0a70303 	ldbu	r2,-25588(gp)
  800f10:	10803fcc 	andi	r2,r2,255
  800f14:	1005003a 	cmpeq	r2,r2,zero
  800f18:	1000051e 	bne	r2,zero,800f30 <OSEventPendMulti+0x148>
       *perr =  OS_ERR_PEND_ISR;                        /* ... can't PEND from an ISR                  */
  800f1c:	e0c00217 	ldw	r3,8(fp)
  800f20:	00800084 	movi	r2,2
  800f24:	18800005 	stb	r2,0(r3)
        return (0);
  800f28:	e03fff15 	stw	zero,-4(fp)
  800f2c:	00015506 	br	801484 <OSEventPendMulti+0x69c>
    }
    if (OSLockNesting > 0) {                            /* See if called with scheduler locked ...     */
  800f30:	d0a6f503 	ldbu	r2,-25644(gp)
  800f34:	10803fcc 	andi	r2,r2,255
  800f38:	1005003a 	cmpeq	r2,r2,zero
  800f3c:	1000051e 	bne	r2,zero,800f54 <OSEventPendMulti+0x16c>
       *perr =  OS_ERR_PEND_LOCKED;                     /* ... can't PEND when locked                  */
  800f40:	e0c00217 	ldw	r3,8(fp)
  800f44:	00800344 	movi	r2,13
  800f48:	18800005 	stb	r2,0(r3)
        return (0);
  800f4c:	e03fff15 	stw	zero,-4(fp)
  800f50:	00014c06 	br	801484 <OSEventPendMulti+0x69c>
static ALT_INLINE alt_irq_context ALT_ALWAYS_INLINE 
       alt_irq_disable_all (void)
{
  alt_irq_context context;

  NIOS2_READ_STATUS (context);
  800f54:	0005303a 	rdctl	r2,status
  800f58:	e0bfef15 	stw	r2,-68(fp)

  NIOS2_WRITE_STATUS (context & ~NIOS2_STATUS_PIE_MSK);
  800f5c:	e0ffef17 	ldw	r3,-68(fp)
  800f60:	00bfff84 	movi	r2,-2
  800f64:	1884703a 	and	r2,r3,r2
  800f68:	1001703a 	wrctl	status,r2
  
  return context;
  800f6c:	e0bfef17 	ldw	r2,-68(fp)
    }

/*$PAGE*/
    OS_ENTER_CRITICAL();
  800f70:	e0bff015 	stw	r2,-64(fp)
    events_rdy     =  OS_FALSE;
  800f74:	e03ff205 	stb	zero,-56(fp)
    events_rdy_nbr =  0;
  800f78:	e03ff18d 	sth	zero,-58(fp)
    events_stat    =  OS_STAT_RDY;
  800f7c:	e03ff105 	stb	zero,-60(fp)
    pevents        =  pevents_pend;
  800f80:	e0bff617 	ldw	r2,-40(fp)
  800f84:	e0bff515 	stw	r2,-44(fp)
    pevent         = *pevents;
  800f88:	e0bff517 	ldw	r2,-44(fp)
  800f8c:	10800017 	ldw	r2,0(r2)
  800f90:	e0bff415 	stw	r2,-48(fp)
    while (pevent != (OS_EVENT *)0) {                   /* See if any events already available         */
  800f94:	00008f06 	br	8011d4 <OSEventPendMulti+0x3ec>
        switch (pevent->OSEventType) {
  800f98:	e0bff417 	ldw	r2,-48(fp)
  800f9c:	10800003 	ldbu	r2,0(r2)
  800fa0:	10803fcc 	andi	r2,r2,255
  800fa4:	e0bffd15 	stw	r2,-12(fp)
  800fa8:	e0fffd17 	ldw	r3,-12(fp)
  800fac:	188000a0 	cmpeqi	r2,r3,2
  800fb0:	1000441e 	bne	r2,zero,8010c4 <OSEventPendMulti+0x2dc>
  800fb4:	e0fffd17 	ldw	r3,-12(fp)
  800fb8:	188000e0 	cmpeqi	r2,r3,3
  800fbc:	1000041e 	bne	r2,zero,800fd0 <OSEventPendMulti+0x1e8>
  800fc0:	e0fffd17 	ldw	r3,-12(fp)
  800fc4:	18800060 	cmpeqi	r2,r3,1
  800fc8:	1000211e 	bne	r2,zero,801050 <OSEventPendMulti+0x268>
  800fcc:	00006f06 	br	80118c <OSEventPendMulti+0x3a4>
#if (OS_SEM_EN > 0)
            case OS_EVENT_TYPE_SEM:
                 if (pevent->OSEventCnt > 0) {          /* If semaphore count > 0, resource available; */
  800fd0:	e0bff417 	ldw	r2,-48(fp)
  800fd4:	1080020b 	ldhu	r2,8(r2)
  800fd8:	10bfffcc 	andi	r2,r2,65535
  800fdc:	1005003a 	cmpeq	r2,r2,zero
  800fe0:	1000171e 	bne	r2,zero,801040 <OSEventPendMulti+0x258>
                     pevent->OSEventCnt--;              /* ... decrement semaphore,                ... */
  800fe4:	e0bff417 	ldw	r2,-48(fp)
  800fe8:	1080020b 	ldhu	r2,8(r2)
  800fec:	10bfffc4 	addi	r2,r2,-1
  800ff0:	1007883a 	mov	r3,r2
  800ff4:	e0bff417 	ldw	r2,-48(fp)
  800ff8:	10c0020d 	sth	r3,8(r2)
                    *pevents_rdy++ =  pevent;           /* ... and return available semaphore event    */
  800ffc:	e0fff717 	ldw	r3,-36(fp)
  801000:	e0bff417 	ldw	r2,-48(fp)
  801004:	18800015 	stw	r2,0(r3)
  801008:	e0bff717 	ldw	r2,-36(fp)
  80100c:	10800104 	addi	r2,r2,4
  801010:	e0bff715 	stw	r2,-36(fp)
                      events_rdy   =  OS_TRUE;
  801014:	00800044 	movi	r2,1
  801018:	e0bff205 	stb	r2,-56(fp)
                    *pmsgs_rdy++   = (void *)0;         /* NO message returned  for semaphores         */
  80101c:	e0bff817 	ldw	r2,-32(fp)
  801020:	10000015 	stw	zero,0(r2)
  801024:	e0bff817 	ldw	r2,-32(fp)
  801028:	10800104 	addi	r2,r2,4
  80102c:	e0bff815 	stw	r2,-32(fp)
                      events_rdy_nbr++;
  801030:	e0bff18b 	ldhu	r2,-58(fp)
  801034:	10800044 	addi	r2,r2,1
  801038:	e0bff18d 	sth	r2,-58(fp)
  80103c:	00005f06 	br	8011bc <OSEventPendMulti+0x3d4>

                 } else {
                      events_stat |=  OS_STAT_SEM;      /* Configure multi-pend for semaphore events   */
  801040:	e0bff103 	ldbu	r2,-60(fp)
  801044:	10800054 	ori	r2,r2,1
  801048:	e0bff105 	stb	r2,-60(fp)
                 }
                 break;
  80104c:	00005b06 	br	8011bc <OSEventPendMulti+0x3d4>
#endif

#if (OS_MBOX_EN > 0)
            case OS_EVENT_TYPE_MBOX:
                 if (pevent->OSEventPtr != (void *)0) { /* If mailbox NOT empty;                   ... */
  801050:	e0bff417 	ldw	r2,-48(fp)
  801054:	10800117 	ldw	r2,4(r2)
  801058:	1005003a 	cmpeq	r2,r2,zero
  80105c:	1000151e 	bne	r2,zero,8010b4 <OSEventPendMulti+0x2cc>
                                                        /* ... return available message,           ... */
                    *pmsgs_rdy++         = (void *)pevent->OSEventPtr;
  801060:	e0bff417 	ldw	r2,-48(fp)
  801064:	10c00117 	ldw	r3,4(r2)
  801068:	e0bff817 	ldw	r2,-32(fp)
  80106c:	10c00015 	stw	r3,0(r2)
  801070:	e0bff817 	ldw	r2,-32(fp)
  801074:	10800104 	addi	r2,r2,4
  801078:	e0bff815 	stw	r2,-32(fp)
                     pevent->OSEventPtr  = (void *)0;
  80107c:	e0bff417 	ldw	r2,-48(fp)
  801080:	10000115 	stw	zero,4(r2)
                    *pevents_rdy++       =  pevent;     /* ... and return available mailbox event      */
  801084:	e0fff717 	ldw	r3,-36(fp)
  801088:	e0bff417 	ldw	r2,-48(fp)
  80108c:	18800015 	stw	r2,0(r3)
  801090:	e0bff717 	ldw	r2,-36(fp)
  801094:	10800104 	addi	r2,r2,4
  801098:	e0bff715 	stw	r2,-36(fp)
                      events_rdy         =  OS_TRUE;
  80109c:	00800044 	movi	r2,1
  8010a0:	e0bff205 	stb	r2,-56(fp)
                      events_rdy_nbr++;
  8010a4:	e0bff18b 	ldhu	r2,-58(fp)
  8010a8:	10800044 	addi	r2,r2,1
  8010ac:	e0bff18d 	sth	r2,-58(fp)
  8010b0:	00004206 	br	8011bc <OSEventPendMulti+0x3d4>

                 } else {
                      events_stat |= OS_STAT_MBOX;      /* Configure multi-pend for mailbox events     */
  8010b4:	e0bff103 	ldbu	r2,-60(fp)
  8010b8:	10800094 	ori	r2,r2,2
  8010bc:	e0bff105 	stb	r2,-60(fp)
                 }
                 break;
  8010c0:	00003e06 	br	8011bc <OSEventPendMulti+0x3d4>
#endif

#if ((OS_Q_EN > 0) && (OS_MAX_QS > 0))
            case OS_EVENT_TYPE_Q:
                 pq = (OS_Q *)pevent->OSEventPtr;
  8010c4:	e0bff417 	ldw	r2,-48(fp)
  8010c8:	10800117 	ldw	r2,4(r2)
  8010cc:	e0bff315 	stw	r2,-52(fp)
                 if (pq->OSQEntries > 0) {              /* If queue NOT empty;                     ... */
  8010d0:	e0bff317 	ldw	r2,-52(fp)
  8010d4:	1080058b 	ldhu	r2,22(r2)
  8010d8:	10bfffcc 	andi	r2,r2,65535
  8010dc:	1005003a 	cmpeq	r2,r2,zero
  8010e0:	1000261e 	bne	r2,zero,80117c <OSEventPendMulti+0x394>
                                                        /* ... return available message,           ... */
                    *pmsgs_rdy++ = (void *)*pq->OSQOut++;
  8010e4:	e0bff317 	ldw	r2,-52(fp)
  8010e8:	11000417 	ldw	r4,16(r2)
  8010ec:	20c00017 	ldw	r3,0(r4)
  8010f0:	e0bff817 	ldw	r2,-32(fp)
  8010f4:	10c00015 	stw	r3,0(r2)
  8010f8:	e0bff817 	ldw	r2,-32(fp)
  8010fc:	10800104 	addi	r2,r2,4
  801100:	e0bff815 	stw	r2,-32(fp)
  801104:	20c00104 	addi	r3,r4,4
  801108:	e0bff317 	ldw	r2,-52(fp)
  80110c:	10c00415 	stw	r3,16(r2)
                     if (pq->OSQOut == pq->OSQEnd) {    /* If OUT ptr at queue end, ...                */
  801110:	e0bff317 	ldw	r2,-52(fp)
  801114:	10c00417 	ldw	r3,16(r2)
  801118:	e0bff317 	ldw	r2,-52(fp)
  80111c:	10800217 	ldw	r2,8(r2)
  801120:	1880041e 	bne	r3,r2,801134 <OSEventPendMulti+0x34c>
                         pq->OSQOut  = pq->OSQStart;    /* ... wrap   to queue start                   */
  801124:	e0bff317 	ldw	r2,-52(fp)
  801128:	10c00117 	ldw	r3,4(r2)
  80112c:	e0bff317 	ldw	r2,-52(fp)
  801130:	10c00415 	stw	r3,16(r2)
                     }
                     pq->OSQEntries--;                  /* Update number of queue entries              */
  801134:	e0bff317 	ldw	r2,-52(fp)
  801138:	1080058b 	ldhu	r2,22(r2)
  80113c:	10bfffc4 	addi	r2,r2,-1
  801140:	1007883a 	mov	r3,r2
  801144:	e0bff317 	ldw	r2,-52(fp)
  801148:	10c0058d 	sth	r3,22(r2)
                    *pevents_rdy++ = pevent;            /* ... and return available queue event        */
  80114c:	e0fff717 	ldw	r3,-36(fp)
  801150:	e0bff417 	ldw	r2,-48(fp)
  801154:	18800015 	stw	r2,0(r3)
  801158:	e0bff717 	ldw	r2,-36(fp)
  80115c:	10800104 	addi	r2,r2,4
  801160:	e0bff715 	stw	r2,-36(fp)
                      events_rdy   = OS_TRUE;
  801164:	00800044 	movi	r2,1
  801168:	e0bff205 	stb	r2,-56(fp)
                      events_rdy_nbr++;
  80116c:	e0bff18b 	ldhu	r2,-58(fp)
  801170:	10800044 	addi	r2,r2,1
  801174:	e0bff18d 	sth	r2,-58(fp)
  801178:	00001006 	br	8011bc <OSEventPendMulti+0x3d4>

                 } else {
                      events_stat |= OS_STAT_Q;         /* Configure multi-pend for queue events       */
  80117c:	e0bff103 	ldbu	r2,-60(fp)
  801180:	10800114 	ori	r2,r2,4
  801184:	e0bff105 	stb	r2,-60(fp)
                 }
                 break;
  801188:	00000c06 	br	8011bc <OSEventPendMulti+0x3d4>
  80118c:	e0bff017 	ldw	r2,-64(fp)
  801190:	e0bfee15 	stw	r2,-72(fp)
  status &= ~NIOS2_STATUS_PIE_MSK;
  status |= (context & NIOS2_STATUS_PIE_MSK);
  
  NIOS2_WRITE_STATUS (status);
#else
  NIOS2_WRITE_STATUS (context);
  801194:	e0bfee17 	ldw	r2,-72(fp)
  801198:	1001703a 	wrctl	status,r2

            case OS_EVENT_TYPE_MUTEX:                                            
            case OS_EVENT_TYPE_FLAG:
            default:           
                 OS_EXIT_CRITICAL();
                *pevents_rdy = (OS_EVENT *)0;           /* NULL terminate return event array           */
  80119c:	e0bff717 	ldw	r2,-36(fp)
  8011a0:	10000015 	stw	zero,0(r2)
                *perr        =  OS_ERR_EVENT_TYPE;
  8011a4:	e0c00217 	ldw	r3,8(fp)
  8011a8:	00800044 	movi	r2,1
  8011ac:	18800005 	stb	r2,0(r3)
                 return (events_rdy_nbr);
  8011b0:	e0bff18b 	ldhu	r2,-58(fp)
  8011b4:	e0bfff15 	stw	r2,-4(fp)
  8011b8:	0000b206 	br	801484 <OSEventPendMulti+0x69c>
        }
        pevents++;
  8011bc:	e0bff517 	ldw	r2,-44(fp)
  8011c0:	10800104 	addi	r2,r2,4
  8011c4:	e0bff515 	stw	r2,-44(fp)
        pevent = *pevents;
  8011c8:	e0bff517 	ldw	r2,-44(fp)
  8011cc:	10800017 	ldw	r2,0(r2)
  8011d0:	e0bff415 	stw	r2,-48(fp)
    events_rdy     =  OS_FALSE;
    events_rdy_nbr =  0;
    events_stat    =  OS_STAT_RDY;
    pevents        =  pevents_pend;
    pevent         = *pevents;
    while (pevent != (OS_EVENT *)0) {                   /* See if any events already available         */
  8011d4:	e0bff417 	ldw	r2,-48(fp)
  8011d8:	1004c03a 	cmpne	r2,r2,zero
  8011dc:	103f6e1e 	bne	r2,zero,800f98 <OSEventPendMulti+0x1b0>
        }
        pevents++;
        pevent = *pevents;
    }

    if ( events_rdy == OS_TRUE) {                       /* Return any events already available         */
  8011e0:	e0bff203 	ldbu	r2,-56(fp)
  8011e4:	10800058 	cmpnei	r2,r2,1
  8011e8:	10000b1e 	bne	r2,zero,801218 <OSEventPendMulti+0x430>
       *pevents_rdy = (OS_EVENT *)0;                    /* NULL terminate return event array           */
  8011ec:	e0bff717 	ldw	r2,-36(fp)
  8011f0:	10000015 	stw	zero,0(r2)
  8011f4:	e0bff017 	ldw	r2,-64(fp)
  8011f8:	e0bfed15 	stw	r2,-76(fp)
  8011fc:	e0bfed17 	ldw	r2,-76(fp)
  801200:	1001703a 	wrctl	status,r2
        OS_EXIT_CRITICAL();
       *perr        =  OS_ERR_NONE;
  801204:	e0800217 	ldw	r2,8(fp)
  801208:	10000005 	stb	zero,0(r2)
        return (events_rdy_nbr);
  80120c:	e0fff18b 	ldhu	r3,-58(fp)
  801210:	e0ffff15 	stw	r3,-4(fp)
  801214:	00009b06 	br	801484 <OSEventPendMulti+0x69c>
    }
/*$PAGE*/
                                                        /* Otherwise, must wait until any event occurs */
    OSTCBCur->OSTCBStat     |= events_stat  |           /* Resource not available, ...                 */
  801218:	d1270417 	ldw	r4,-25584(gp)
  80121c:	d0a70417 	ldw	r2,-25584(gp)
  801220:	10c00c03 	ldbu	r3,48(r2)
  801224:	e0bff103 	ldbu	r2,-60(fp)
  801228:	1884b03a 	or	r2,r3,r2
  80122c:	1007883a 	mov	r3,r2
  801230:	00bfe004 	movi	r2,-128
  801234:	1884b03a 	or	r2,r3,r2
  801238:	20800c05 	stb	r2,48(r4)
                               OS_STAT_MULTI;           /* ... pend on multiple events                 */
    OSTCBCur->OSTCBStatPend  = OS_STAT_PEND_OK;
  80123c:	d0a70417 	ldw	r2,-25584(gp)
  801240:	10000c45 	stb	zero,49(r2)
    OSTCBCur->OSTCBDly       = timeout;                 /* Store pend timeout in TCB                   */
  801244:	d0e70417 	ldw	r3,-25584(gp)
  801248:	e0bff90b 	ldhu	r2,-28(fp)
  80124c:	18800b8d 	sth	r2,46(r3)
    OS_EventTaskWaitMulti(pevents_pend);                /* Suspend task until events or timeout occurs */
  801250:	e13ff617 	ldw	r4,-40(fp)
  801254:	0801e180 	call	801e18 <OS_EventTaskWaitMulti>
  801258:	e0bff017 	ldw	r2,-64(fp)
  80125c:	e0bfec15 	stw	r2,-80(fp)
  801260:	e0bfec17 	ldw	r2,-80(fp)
  801264:	1001703a 	wrctl	status,r2

    OS_EXIT_CRITICAL();
    OS_Sched();                                         /* Find next highest priority task ready       */
  801268:	08025b40 	call	8025b4 <OS_Sched>
static ALT_INLINE alt_irq_context ALT_ALWAYS_INLINE 
       alt_irq_disable_all (void)
{
  alt_irq_context context;

  NIOS2_READ_STATUS (context);
  80126c:	0005303a 	rdctl	r2,status
  801270:	e0bfeb15 	stw	r2,-84(fp)

  NIOS2_WRITE_STATUS (context & ~NIOS2_STATUS_PIE_MSK);
  801274:	e0ffeb17 	ldw	r3,-84(fp)
  801278:	00bfff84 	movi	r2,-2
  80127c:	1884703a 	and	r2,r3,r2
  801280:	1001703a 	wrctl	status,r2
  
  return context;
  801284:	e0bfeb17 	ldw	r2,-84(fp)
    OS_ENTER_CRITICAL();
  801288:	e0bff015 	stw	r2,-64(fp)

    switch (OSTCBCur->OSTCBStatPend) {                  /* Handle event posted, aborted, or timed-out  */
  80128c:	d0a70417 	ldw	r2,-25584(gp)
  801290:	10800c43 	ldbu	r2,49(r2)
  801294:	10803fcc 	andi	r2,r2,255
  801298:	e0bffc15 	stw	r2,-16(fp)
  80129c:	e0fffc17 	ldw	r3,-16(fp)
  8012a0:	1805003a 	cmpeq	r2,r3,zero
  8012a4:	1000041e 	bne	r2,zero,8012b8 <OSEventPendMulti+0x4d0>
  8012a8:	e0fffc17 	ldw	r3,-16(fp)
  8012ac:	188000a0 	cmpeqi	r2,r3,2
  8012b0:	1000011e 	bne	r2,zero,8012b8 <OSEventPendMulti+0x4d0>
  8012b4:	00001906 	br	80131c <OSEventPendMulti+0x534>
        case OS_STAT_PEND_OK:
        case OS_STAT_PEND_ABORT:
             pevent = OSTCBCur->OSTCBEventPtr;
  8012b8:	d0a70417 	ldw	r2,-25584(gp)
  8012bc:	10800717 	ldw	r2,28(r2)
  8012c0:	e0bff415 	stw	r2,-48(fp)
             if (pevent != (OS_EVENT *)0) {             /* If task event ptr != NULL, ...              */
  8012c4:	e0bff417 	ldw	r2,-48(fp)
  8012c8:	1005003a 	cmpeq	r2,r2,zero
  8012cc:	10000c1e 	bne	r2,zero,801300 <OSEventPendMulti+0x518>
                *pevents_rdy++ =  pevent;               /* ... return available event ...              */
  8012d0:	e0fff717 	ldw	r3,-36(fp)
  8012d4:	e0bff417 	ldw	r2,-48(fp)
  8012d8:	18800015 	stw	r2,0(r3)
  8012dc:	e0bff717 	ldw	r2,-36(fp)
  8012e0:	10800104 	addi	r2,r2,4
  8012e4:	e0bff715 	stw	r2,-36(fp)
                *pevents_rdy   = (OS_EVENT *)0;         /* ... & NULL terminate return event array     */
  8012e8:	e0bff717 	ldw	r2,-36(fp)
  8012ec:	10000015 	stw	zero,0(r2)
                  events_rdy_nbr++;
  8012f0:	e0bff18b 	ldhu	r2,-58(fp)
  8012f4:	10800044 	addi	r2,r2,1
  8012f8:	e0bff18d 	sth	r2,-58(fp)
  8012fc:	00000a06 	br	801328 <OSEventPendMulti+0x540>

             } else {                                   /* Else NO event available, handle as timeout  */
                 OSTCBCur->OSTCBStatPend = OS_STAT_PEND_TO;
  801300:	d0a70417 	ldw	r2,-25584(gp)
  801304:	00c00044 	movi	r3,1
  801308:	10c00c45 	stb	r3,49(r2)
                 OS_EventTaskRemoveMulti(OSTCBCur, pevents_pend);
  80130c:	d1270417 	ldw	r4,-25584(gp)
  801310:	e17ff617 	ldw	r5,-40(fp)
  801314:	08020240 	call	802024 <OS_EventTaskRemoveMulti>
             }
			 break;
  801318:	00000306 	br	801328 <OSEventPendMulti+0x540>

        case OS_STAT_PEND_TO:
        default:                                        /* ... remove task from events' wait lists     */
             OS_EventTaskRemoveMulti(OSTCBCur, pevents_pend);
  80131c:	d1270417 	ldw	r4,-25584(gp)
  801320:	e17ff617 	ldw	r5,-40(fp)
  801324:	08020240 	call	802024 <OS_EventTaskRemoveMulti>
             break;
    }

    switch (OSTCBCur->OSTCBStatPend) {
  801328:	d0a70417 	ldw	r2,-25584(gp)
  80132c:	10800c43 	ldbu	r2,49(r2)
  801330:	10803fcc 	andi	r2,r2,255
  801334:	e0bffb15 	stw	r2,-20(fp)
  801338:	e0fffb17 	ldw	r3,-20(fp)
  80133c:	1805003a 	cmpeq	r2,r3,zero
  801340:	1000041e 	bne	r2,zero,801354 <OSEventPendMulti+0x56c>
  801344:	e0fffb17 	ldw	r3,-20(fp)
  801348:	188000a0 	cmpeqi	r2,r3,2
  80134c:	10002c1e 	bne	r2,zero,801400 <OSEventPendMulti+0x618>
  801350:	00003406 	br	801424 <OSEventPendMulti+0x63c>
        case OS_STAT_PEND_OK:
             switch (pevent->OSEventType) {             /* Return event's message                      */
  801354:	e0bff417 	ldw	r2,-48(fp)
  801358:	10800003 	ldbu	r2,0(r2)
  80135c:	10803fcc 	andi	r2,r2,255
  801360:	e0bffa15 	stw	r2,-24(fp)
  801364:	e0fffa17 	ldw	r3,-24(fp)
  801368:	18800050 	cmplti	r2,r3,1
  80136c:	1000151e 	bne	r2,zero,8013c4 <OSEventPendMulti+0x5dc>
  801370:	e0fffa17 	ldw	r3,-24(fp)
  801374:	188000d0 	cmplti	r2,r3,3
  801378:	10000a1e 	bne	r2,zero,8013a4 <OSEventPendMulti+0x5bc>
  80137c:	e0fffa17 	ldw	r3,-24(fp)
  801380:	188000e0 	cmpeqi	r2,r3,3
  801384:	1000011e 	bne	r2,zero,80138c <OSEventPendMulti+0x5a4>
  801388:	00000e06 	br	8013c4 <OSEventPendMulti+0x5dc>
#if (OS_SEM_EN > 0)
                 case OS_EVENT_TYPE_SEM:
                     *pmsgs_rdy++ = (void *)0;          /* NO message returned for semaphores          */
  80138c:	e0bff817 	ldw	r2,-32(fp)
  801390:	10000015 	stw	zero,0(r2)
  801394:	e0bff817 	ldw	r2,-32(fp)
  801398:	10800104 	addi	r2,r2,4
  80139c:	e0bff815 	stw	r2,-32(fp)
                      break;
  8013a0:	00001406 	br	8013f4 <OSEventPendMulti+0x60c>

#if ((OS_MBOX_EN > 0) ||                 \
    ((OS_Q_EN    > 0) && (OS_MAX_QS > 0)))
                 case OS_EVENT_TYPE_MBOX:
                 case OS_EVENT_TYPE_Q:
                     *pmsgs_rdy++ = (void *)OSTCBCur->OSTCBMsg;     /* Return received message         */
  8013a4:	d0a70417 	ldw	r2,-25584(gp)
  8013a8:	10c00917 	ldw	r3,36(r2)
  8013ac:	e0bff817 	ldw	r2,-32(fp)
  8013b0:	10c00015 	stw	r3,0(r2)
  8013b4:	e0bff817 	ldw	r2,-32(fp)
  8013b8:	10800104 	addi	r2,r2,4
  8013bc:	e0bff815 	stw	r2,-32(fp)
                      break;
  8013c0:	00000c06 	br	8013f4 <OSEventPendMulti+0x60c>
  8013c4:	e0bff017 	ldw	r2,-64(fp)
  8013c8:	e0bfea15 	stw	r2,-88(fp)
  status &= ~NIOS2_STATUS_PIE_MSK;
  status |= (context & NIOS2_STATUS_PIE_MSK);
  
  NIOS2_WRITE_STATUS (status);
#else
  NIOS2_WRITE_STATUS (context);
  8013cc:	e0bfea17 	ldw	r2,-88(fp)
  8013d0:	1001703a 	wrctl	status,r2

                 case OS_EVENT_TYPE_MUTEX:                                       
                 case OS_EVENT_TYPE_FLAG:
                 default:           
                      OS_EXIT_CRITICAL();
                     *pevents_rdy = (OS_EVENT *)0;      /* NULL terminate return event array           */
  8013d4:	e0bff717 	ldw	r2,-36(fp)
  8013d8:	10000015 	stw	zero,0(r2)
                     *perr        =  OS_ERR_EVENT_TYPE;
  8013dc:	e0c00217 	ldw	r3,8(fp)
  8013e0:	00800044 	movi	r2,1
  8013e4:	18800005 	stb	r2,0(r3)
                      return (events_rdy_nbr);
  8013e8:	e0bff18b 	ldhu	r2,-58(fp)
  8013ec:	e0bfff15 	stw	r2,-4(fp)
  8013f0:	00002406 	br	801484 <OSEventPendMulti+0x69c>
             }
            *perr = OS_ERR_NONE;
  8013f4:	e0800217 	ldw	r2,8(fp)
  8013f8:	10000005 	stb	zero,0(r2)
             break;
  8013fc:	00001106 	br	801444 <OSEventPendMulti+0x65c>

        case OS_STAT_PEND_ABORT:
            *pmsgs_rdy++ = (void *)0;                   /* NO message returned for abort               */
  801400:	e0bff817 	ldw	r2,-32(fp)
  801404:	10000015 	stw	zero,0(r2)
  801408:	e0bff817 	ldw	r2,-32(fp)
  80140c:	10800104 	addi	r2,r2,4
  801410:	e0bff815 	stw	r2,-32(fp)
            *perr        =  OS_ERR_PEND_ABORT;          /* Indicate that event  aborted                */
  801414:	e0c00217 	ldw	r3,8(fp)
  801418:	00800384 	movi	r2,14
  80141c:	18800005 	stb	r2,0(r3)
             break;
  801420:	00000806 	br	801444 <OSEventPendMulti+0x65c>
                                                        
        case OS_STAT_PEND_TO:                                                
        default:        
            *pmsgs_rdy++ = (void *)0;                   /* NO message returned for timeout             */
  801424:	e0bff817 	ldw	r2,-32(fp)
  801428:	10000015 	stw	zero,0(r2)
  80142c:	e0bff817 	ldw	r2,-32(fp)
  801430:	10800104 	addi	r2,r2,4
  801434:	e0bff815 	stw	r2,-32(fp)
            *perr        =  OS_ERR_TIMEOUT;             /* Indicate that events timed out              */
  801438:	e0c00217 	ldw	r3,8(fp)
  80143c:	00800284 	movi	r2,10
  801440:	18800005 	stb	r2,0(r3)
             break;
    }

    OSTCBCur->OSTCBStat          =  OS_STAT_RDY;        /* Set   task  status to ready                 */
  801444:	d0a70417 	ldw	r2,-25584(gp)
  801448:	10000c05 	stb	zero,48(r2)
    OSTCBCur->OSTCBStatPend      =  OS_STAT_PEND_OK;    /* Clear pend  status                          */
  80144c:	d0a70417 	ldw	r2,-25584(gp)
  801450:	10000c45 	stb	zero,49(r2)
    OSTCBCur->OSTCBEventPtr      = (OS_EVENT  *)0;      /* Clear event pointers                        */
  801454:	d0a70417 	ldw	r2,-25584(gp)
  801458:	10000715 	stw	zero,28(r2)
    OSTCBCur->OSTCBEventMultiPtr = (OS_EVENT **)0;
  80145c:	d0a70417 	ldw	r2,-25584(gp)
  801460:	10000815 	stw	zero,32(r2)
    OSTCBCur->OSTCBMsg           = (void      *)0;      /* Clear task  message                         */
  801464:	d0a70417 	ldw	r2,-25584(gp)
  801468:	10000915 	stw	zero,36(r2)
  80146c:	e0bff017 	ldw	r2,-64(fp)
  801470:	e0bfe915 	stw	r2,-92(fp)
  801474:	e0bfe917 	ldw	r2,-92(fp)
  801478:	1001703a 	wrctl	status,r2
    OS_EXIT_CRITICAL();

    return (events_rdy_nbr);
  80147c:	e0fff18b 	ldhu	r3,-58(fp)
  801480:	e0ffff15 	stw	r3,-4(fp)
  801484:	e0bfff17 	ldw	r2,-4(fp)
}
  801488:	e037883a 	mov	sp,fp
  80148c:	dfc00117 	ldw	ra,4(sp)
  801490:	df000017 	ldw	fp,0(sp)
  801494:	dec00204 	addi	sp,sp,8
  801498:	f800283a 	ret

0080149c <OSInit>:
* Returns    : none
*********************************************************************************************************
*/

void  OSInit (void)
{
  80149c:	defffe04 	addi	sp,sp,-8
  8014a0:	dfc00115 	stw	ra,4(sp)
  8014a4:	df000015 	stw	fp,0(sp)
  8014a8:	d839883a 	mov	fp,sp
    OSInitHookBegin();                                           /* Call port specific initialization code   */
  8014ac:	080b6080 	call	80b608 <OSInitHookBegin>

    OS_InitMisc();                                               /* Initialize miscellaneous variables       */
  8014b0:	080226c0 	call	80226c <OS_InitMisc>

    OS_InitRdyList();                                            /* Initialize the Ready List                */
  8014b4:	08022b00 	call	8022b0 <OS_InitRdyList>

    OS_InitTCBList();                                            /* Initialize the free list of OS_TCBs      */
  8014b8:	08024140 	call	802414 <OS_InitTCBList>

    OS_InitEventList();                                          /* Initialize the free list of OS_EVENTs    */
  8014bc:	08021900 	call	802190 <OS_InitEventList>

#if (OS_FLAG_EN > 0) && (OS_MAX_FLAGS > 0)
    OS_FlagInit();                                               /* Initialize the event flag structures     */
  8014c0:	08044c40 	call	8044c4 <OS_FlagInit>
#endif

#if (OS_MEM_EN > 0) && (OS_MAX_MEM_PART > 0)
    OS_MemInit();                                                /* Initialize the memory manager            */
  8014c4:	0804e9c0 	call	804e9c <OS_MemInit>
#endif

#if (OS_Q_EN > 0) && (OS_MAX_QS > 0)
    OS_QInit();                                                  /* Initialize the message queue structures  */
  8014c8:	08061f80 	call	8061f8 <OS_QInit>
#endif

    OS_InitTaskIdle();                                           /* Create the Idle Task                     */
  8014cc:	080231c0 	call	80231c <OS_InitTaskIdle>
#if OS_TASK_STAT_EN > 0
    OS_InitTaskStat();                                           /* Create the Statistic Task                */
  8014d0:	08023980 	call	802398 <OS_InitTaskStat>

#if OS_TMR_EN > 0
    OSTmr_Init();                                                /* Initialize the Timer Manager             */
#endif

    OSInitHookEnd();                                             /* Call port specific init. code            */
  8014d4:	080b6240 	call	80b624 <OSInitHookEnd>

#if OS_DEBUG_EN > 0
    OSDebugInit();
  8014d8:	0802c9c0 	call	802c9c <OSDebugInit>
#endif
}
  8014dc:	e037883a 	mov	sp,fp
  8014e0:	dfc00117 	ldw	ra,4(sp)
  8014e4:	df000017 	ldw	fp,0(sp)
  8014e8:	dec00204 	addi	sp,sp,8
  8014ec:	f800283a 	ret

008014f0 <OSIntEnter>:
*              5) You are allowed to nest interrupts up to 255 levels deep.
*********************************************************************************************************
*/

void  OSIntEnter (void)
{
  8014f0:	defffc04 	addi	sp,sp,-16
  8014f4:	df000315 	stw	fp,12(sp)
  8014f8:	df000304 	addi	fp,sp,12
#if OS_CRITICAL_METHOD == 3                                /* Allocate storage for CPU status register */
    OS_CPU_SR  cpu_sr = 0;
  8014fc:	e03fff15 	stw	zero,-4(fp)
#endif

    if (OSRunning == OS_TRUE) {
  801500:	d0a6f543 	ldbu	r2,-25643(gp)
  801504:	10803fcc 	andi	r2,r2,255
  801508:	10800058 	cmpnei	r2,r2,1
  80150c:	1000131e 	bne	r2,zero,80155c <OSIntEnter+0x6c>
static ALT_INLINE alt_irq_context ALT_ALWAYS_INLINE 
       alt_irq_disable_all (void)
{
  alt_irq_context context;

  NIOS2_READ_STATUS (context);
  801510:	0005303a 	rdctl	r2,status
  801514:	e0bffe15 	stw	r2,-8(fp)

  NIOS2_WRITE_STATUS (context & ~NIOS2_STATUS_PIE_MSK);
  801518:	e0fffe17 	ldw	r3,-8(fp)
  80151c:	00bfff84 	movi	r2,-2
  801520:	1884703a 	and	r2,r3,r2
  801524:	1001703a 	wrctl	status,r2
  
  return context;
  801528:	e0bffe17 	ldw	r2,-8(fp)
        OS_ENTER_CRITICAL();
  80152c:	e0bfff15 	stw	r2,-4(fp)
        if (OSIntNesting < 255u) {
  801530:	d0a70303 	ldbu	r2,-25588(gp)
  801534:	10803fcc 	andi	r2,r2,255
  801538:	10803fe0 	cmpeqi	r2,r2,255
  80153c:	1000031e 	bne	r2,zero,80154c <OSIntEnter+0x5c>
            OSIntNesting++;                      /* Increment ISR nesting level                        */
  801540:	d0a70303 	ldbu	r2,-25588(gp)
  801544:	10800044 	addi	r2,r2,1
  801548:	d0a70305 	stb	r2,-25588(gp)
  80154c:	e0bfff17 	ldw	r2,-4(fp)
  801550:	e0bffd15 	stw	r2,-12(fp)
  status &= ~NIOS2_STATUS_PIE_MSK;
  status |= (context & NIOS2_STATUS_PIE_MSK);
  
  NIOS2_WRITE_STATUS (status);
#else
  NIOS2_WRITE_STATUS (context);
  801554:	e0bffd17 	ldw	r2,-12(fp)
  801558:	1001703a 	wrctl	status,r2
        }
        OS_EXIT_CRITICAL();
    }
}
  80155c:	e037883a 	mov	sp,fp
  801560:	df000017 	ldw	fp,0(sp)
  801564:	dec00104 	addi	sp,sp,4
  801568:	f800283a 	ret

0080156c <OSIntExit>:
*              2) Rescheduling is prevented when the scheduler is locked (see OS_SchedLock())
*********************************************************************************************************
*/

void  OSIntExit (void)
{
  80156c:	defffb04 	addi	sp,sp,-20
  801570:	dfc00415 	stw	ra,16(sp)
  801574:	df000315 	stw	fp,12(sp)
  801578:	df000304 	addi	fp,sp,12
#if OS_CRITICAL_METHOD == 3                                /* Allocate storage for CPU status register */
    OS_CPU_SR  cpu_sr = 0;
  80157c:	e03fff15 	stw	zero,-4(fp)
#endif



    if (OSRunning == OS_TRUE) {
  801580:	d0a6f543 	ldbu	r2,-25643(gp)
  801584:	10803fcc 	andi	r2,r2,255
  801588:	10800058 	cmpnei	r2,r2,1
  80158c:	1000321e 	bne	r2,zero,801658 <OSIntExit+0xec>
static ALT_INLINE alt_irq_context ALT_ALWAYS_INLINE 
       alt_irq_disable_all (void)
{
  alt_irq_context context;

  NIOS2_READ_STATUS (context);
  801590:	0005303a 	rdctl	r2,status
  801594:	e0bffe15 	stw	r2,-8(fp)

  NIOS2_WRITE_STATUS (context & ~NIOS2_STATUS_PIE_MSK);
  801598:	e0fffe17 	ldw	r3,-8(fp)
  80159c:	00bfff84 	movi	r2,-2
  8015a0:	1884703a 	and	r2,r3,r2
  8015a4:	1001703a 	wrctl	status,r2
  
  return context;
  8015a8:	e0bffe17 	ldw	r2,-8(fp)
        OS_ENTER_CRITICAL();
  8015ac:	e0bfff15 	stw	r2,-4(fp)
        if (OSIntNesting > 0) {                            /* Prevent OSIntNesting from wrapping       */
  8015b0:	d0a70303 	ldbu	r2,-25588(gp)
  8015b4:	10803fcc 	andi	r2,r2,255
  8015b8:	1005003a 	cmpeq	r2,r2,zero
  8015bc:	1000031e 	bne	r2,zero,8015cc <OSIntExit+0x60>
            OSIntNesting--;
  8015c0:	d0a70303 	ldbu	r2,-25588(gp)
  8015c4:	10bfffc4 	addi	r2,r2,-1
  8015c8:	d0a70305 	stb	r2,-25588(gp)
        }
        if (OSIntNesting == 0) {                           /* Reschedule only if all ISRs complete ... */
  8015cc:	d0a70303 	ldbu	r2,-25588(gp)
  8015d0:	10803fcc 	andi	r2,r2,255
  8015d4:	1004c03a 	cmpne	r2,r2,zero
  8015d8:	10001b1e 	bne	r2,zero,801648 <OSIntExit+0xdc>
            if (OSLockNesting == 0) {                      /* ... and not locked.                      */
  8015dc:	d0a6f503 	ldbu	r2,-25644(gp)
  8015e0:	10803fcc 	andi	r2,r2,255
  8015e4:	1004c03a 	cmpne	r2,r2,zero
  8015e8:	1000171e 	bne	r2,zero,801648 <OSIntExit+0xdc>
                OS_SchedNew();
  8015ec:	08026880 	call	802688 <OS_SchedNew>
                if (OSPrioHighRdy != OSPrioCur) {          /* No Ctx Sw if current task is highest rdy */
  8015f0:	d0a6f703 	ldbu	r2,-25636(gp)
  8015f4:	d0e6f743 	ldbu	r3,-25635(gp)
  8015f8:	11003fcc 	andi	r4,r2,255
  8015fc:	18803fcc 	andi	r2,r3,255
  801600:	20801126 	beq	r4,r2,801648 <OSIntExit+0xdc>
                    OSTCBHighRdy  = OSTCBPrioTbl[OSPrioHighRdy];
  801604:	d0a6f703 	ldbu	r2,-25636(gp)
  801608:	10803fcc 	andi	r2,r2,255
  80160c:	00c020b4 	movhi	r3,130
  801610:	18ebe104 	addi	r3,r3,-20604
  801614:	1085883a 	add	r2,r2,r2
  801618:	1085883a 	add	r2,r2,r2
  80161c:	10c5883a 	add	r2,r2,r3
  801620:	10800017 	ldw	r2,0(r2)
  801624:	d0a6ff15 	stw	r2,-25604(gp)
#if OS_TASK_PROFILE_EN > 0
                    OSTCBHighRdy->OSTCBCtxSwCtr++;         /* Inc. # of context switches to this task  */
  801628:	d0e6ff17 	ldw	r3,-25604(gp)
  80162c:	18800e17 	ldw	r2,56(r3)
  801630:	10800044 	addi	r2,r2,1
  801634:	18800e15 	stw	r2,56(r3)
#endif
                    OSCtxSwCtr++;                          /* Keep track of the number of ctx switches */
  801638:	d0a6fa17 	ldw	r2,-25624(gp)
  80163c:	10800044 	addi	r2,r2,1
  801640:	d0a6fa15 	stw	r2,-25624(gp)
                    OSIntCtxSw();                          /* Perform interrupt level ctx switch       */
  801644:	080b1940 	call	80b194 <OSCtxSw>
  801648:	e0bfff17 	ldw	r2,-4(fp)
  80164c:	e0bffd15 	stw	r2,-12(fp)
  status &= ~NIOS2_STATUS_PIE_MSK;
  status |= (context & NIOS2_STATUS_PIE_MSK);
  
  NIOS2_WRITE_STATUS (status);
#else
  NIOS2_WRITE_STATUS (context);
  801650:	e0bffd17 	ldw	r2,-12(fp)
  801654:	1001703a 	wrctl	status,r2
                }
            }
        }
        OS_EXIT_CRITICAL();
    }
}
  801658:	e037883a 	mov	sp,fp
  80165c:	dfc00117 	ldw	ra,4(sp)
  801660:	df000017 	ldw	fp,0(sp)
  801664:	dec00204 	addi	sp,sp,8
  801668:	f800283a 	ret

0080166c <OSSchedLock>:
*********************************************************************************************************
*/

#if OS_SCHED_LOCK_EN > 0
void  OSSchedLock (void)
{
  80166c:	defffc04 	addi	sp,sp,-16
  801670:	df000315 	stw	fp,12(sp)
  801674:	df000304 	addi	fp,sp,12
#if OS_CRITICAL_METHOD == 3                      /* Allocate storage for CPU status register           */
    OS_CPU_SR  cpu_sr = 0;
  801678:	e03fff15 	stw	zero,-4(fp)
#endif



    if (OSRunning == OS_TRUE) {                  /* Make sure multitasking is running                  */
  80167c:	d0a6f543 	ldbu	r2,-25643(gp)
  801680:	10803fcc 	andi	r2,r2,255
  801684:	10800058 	cmpnei	r2,r2,1
  801688:	1000171e 	bne	r2,zero,8016e8 <OSSchedLock+0x7c>
static ALT_INLINE alt_irq_context ALT_ALWAYS_INLINE 
       alt_irq_disable_all (void)
{
  alt_irq_context context;

  NIOS2_READ_STATUS (context);
  80168c:	0005303a 	rdctl	r2,status
  801690:	e0bffe15 	stw	r2,-8(fp)

  NIOS2_WRITE_STATUS (context & ~NIOS2_STATUS_PIE_MSK);
  801694:	e0fffe17 	ldw	r3,-8(fp)
  801698:	00bfff84 	movi	r2,-2
  80169c:	1884703a 	and	r2,r3,r2
  8016a0:	1001703a 	wrctl	status,r2
  
  return context;
  8016a4:	e0bffe17 	ldw	r2,-8(fp)
        OS_ENTER_CRITICAL();
  8016a8:	e0bfff15 	stw	r2,-4(fp)
        if (OSIntNesting == 0) {                 /* Can't call from an ISR                             */
  8016ac:	d0a70303 	ldbu	r2,-25588(gp)
  8016b0:	10803fcc 	andi	r2,r2,255
  8016b4:	1004c03a 	cmpne	r2,r2,zero
  8016b8:	1000071e 	bne	r2,zero,8016d8 <OSSchedLock+0x6c>
            if (OSLockNesting < 255u) {          /* Prevent OSLockNesting from wrapping back to 0      */
  8016bc:	d0a6f503 	ldbu	r2,-25644(gp)
  8016c0:	10803fcc 	andi	r2,r2,255
  8016c4:	10803fe0 	cmpeqi	r2,r2,255
  8016c8:	1000031e 	bne	r2,zero,8016d8 <OSSchedLock+0x6c>
                OSLockNesting++;                 /* Increment lock nesting level                       */
  8016cc:	d0a6f503 	ldbu	r2,-25644(gp)
  8016d0:	10800044 	addi	r2,r2,1
  8016d4:	d0a6f505 	stb	r2,-25644(gp)
  8016d8:	e0bfff17 	ldw	r2,-4(fp)
  8016dc:	e0bffd15 	stw	r2,-12(fp)
  status &= ~NIOS2_STATUS_PIE_MSK;
  status |= (context & NIOS2_STATUS_PIE_MSK);
  
  NIOS2_WRITE_STATUS (status);
#else
  NIOS2_WRITE_STATUS (context);
  8016e0:	e0bffd17 	ldw	r2,-12(fp)
  8016e4:	1001703a 	wrctl	status,r2
            }
        }
        OS_EXIT_CRITICAL();
    }
}
  8016e8:	e037883a 	mov	sp,fp
  8016ec:	df000017 	ldw	fp,0(sp)
  8016f0:	dec00104 	addi	sp,sp,4
  8016f4:	f800283a 	ret

008016f8 <OSSchedUnlock>:
*********************************************************************************************************
*/

#if OS_SCHED_LOCK_EN > 0
void  OSSchedUnlock (void)
{
  8016f8:	defff804 	addi	sp,sp,-32
  8016fc:	dfc00715 	stw	ra,28(sp)
  801700:	df000615 	stw	fp,24(sp)
  801704:	df000604 	addi	fp,sp,24
#if OS_CRITICAL_METHOD == 3                                /* Allocate storage for CPU status register */
    OS_CPU_SR  cpu_sr = 0;
  801708:	e03fff15 	stw	zero,-4(fp)
#endif



    if (OSRunning == OS_TRUE) {                            /* Make sure multitasking is running        */
  80170c:	d0a6f543 	ldbu	r2,-25643(gp)
  801710:	10803fcc 	andi	r2,r2,255
  801714:	10800058 	cmpnei	r2,r2,1
  801718:	10002b1e 	bne	r2,zero,8017c8 <OSSchedUnlock+0xd0>
static ALT_INLINE alt_irq_context ALT_ALWAYS_INLINE 
       alt_irq_disable_all (void)
{
  alt_irq_context context;

  NIOS2_READ_STATUS (context);
  80171c:	0005303a 	rdctl	r2,status
  801720:	e0bffe15 	stw	r2,-8(fp)

  NIOS2_WRITE_STATUS (context & ~NIOS2_STATUS_PIE_MSK);
  801724:	e0fffe17 	ldw	r3,-8(fp)
  801728:	00bfff84 	movi	r2,-2
  80172c:	1884703a 	and	r2,r3,r2
  801730:	1001703a 	wrctl	status,r2
  
  return context;
  801734:	e0bffe17 	ldw	r2,-8(fp)
        OS_ENTER_CRITICAL();
  801738:	e0bfff15 	stw	r2,-4(fp)
        if (OSLockNesting > 0) {                           /* Do not decrement if already 0            */
  80173c:	d0a6f503 	ldbu	r2,-25644(gp)
  801740:	10803fcc 	andi	r2,r2,255
  801744:	1005003a 	cmpeq	r2,r2,zero
  801748:	10001b1e 	bne	r2,zero,8017b8 <OSSchedUnlock+0xc0>
            OSLockNesting--;                               /* Decrement lock nesting level             */
  80174c:	d0a6f503 	ldbu	r2,-25644(gp)
  801750:	10bfffc4 	addi	r2,r2,-1
  801754:	d0a6f505 	stb	r2,-25644(gp)
            if (OSLockNesting == 0) {                      /* See if scheduler is enabled and ...      */
  801758:	d0a6f503 	ldbu	r2,-25644(gp)
  80175c:	10803fcc 	andi	r2,r2,255
  801760:	1004c03a 	cmpne	r2,r2,zero
  801764:	10000f1e 	bne	r2,zero,8017a4 <OSSchedUnlock+0xac>
                if (OSIntNesting == 0) {                   /* ... not in an ISR                        */
  801768:	d0a70303 	ldbu	r2,-25588(gp)
  80176c:	10803fcc 	andi	r2,r2,255
  801770:	1004c03a 	cmpne	r2,r2,zero
  801774:	1000061e 	bne	r2,zero,801790 <OSSchedUnlock+0x98>
  801778:	e0bfff17 	ldw	r2,-4(fp)
  80177c:	e0bffd15 	stw	r2,-12(fp)
  status &= ~NIOS2_STATUS_PIE_MSK;
  status |= (context & NIOS2_STATUS_PIE_MSK);
  
  NIOS2_WRITE_STATUS (status);
#else
  NIOS2_WRITE_STATUS (context);
  801780:	e0bffd17 	ldw	r2,-12(fp)
  801784:	1001703a 	wrctl	status,r2
                    OS_EXIT_CRITICAL();
                    OS_Sched();                            /* See if a HPT is ready                    */
  801788:	08025b40 	call	8025b4 <OS_Sched>
  80178c:	00000e06 	br	8017c8 <OSSchedUnlock+0xd0>
  801790:	e0bfff17 	ldw	r2,-4(fp)
  801794:	e0bffc15 	stw	r2,-16(fp)
  801798:	e0bffc17 	ldw	r2,-16(fp)
  80179c:	1001703a 	wrctl	status,r2
  8017a0:	00000906 	br	8017c8 <OSSchedUnlock+0xd0>
  8017a4:	e0bfff17 	ldw	r2,-4(fp)
  8017a8:	e0bffb15 	stw	r2,-20(fp)
  8017ac:	e0bffb17 	ldw	r2,-20(fp)
  8017b0:	1001703a 	wrctl	status,r2
  8017b4:	00000406 	br	8017c8 <OSSchedUnlock+0xd0>
  8017b8:	e0bfff17 	ldw	r2,-4(fp)
  8017bc:	e0bffa15 	stw	r2,-24(fp)
  8017c0:	e0bffa17 	ldw	r2,-24(fp)
  8017c4:	1001703a 	wrctl	status,r2
            }
        } else {
            OS_EXIT_CRITICAL();
        }
    }
}
  8017c8:	e037883a 	mov	sp,fp
  8017cc:	dfc00117 	ldw	ra,4(sp)
  8017d0:	df000017 	ldw	fp,0(sp)
  8017d4:	dec00204 	addi	sp,sp,8
  8017d8:	f800283a 	ret

008017dc <OSStart>:
*                 d_ Execute the task.
*********************************************************************************************************
*/

void  OSStart (void)
{
  8017dc:	defffe04 	addi	sp,sp,-8
  8017e0:	dfc00115 	stw	ra,4(sp)
  8017e4:	df000015 	stw	fp,0(sp)
  8017e8:	d839883a 	mov	fp,sp
    if (OSRunning == OS_FALSE) {
  8017ec:	d0a6f543 	ldbu	r2,-25643(gp)
  8017f0:	10803fcc 	andi	r2,r2,255
  8017f4:	1004c03a 	cmpne	r2,r2,zero
  8017f8:	10000f1e 	bne	r2,zero,801838 <OSStart+0x5c>
        OS_SchedNew();                               /* Find highest priority's task priority number   */
  8017fc:	08026880 	call	802688 <OS_SchedNew>
        OSPrioCur     = OSPrioHighRdy;
  801800:	d0a6f703 	ldbu	r2,-25636(gp)
  801804:	d0a6f745 	stb	r2,-25635(gp)
        OSTCBHighRdy  = OSTCBPrioTbl[OSPrioHighRdy]; /* Point to highest priority task ready to run    */
  801808:	d0a6f703 	ldbu	r2,-25636(gp)
  80180c:	10803fcc 	andi	r2,r2,255
  801810:	00c020b4 	movhi	r3,130
  801814:	18ebe104 	addi	r3,r3,-20604
  801818:	1085883a 	add	r2,r2,r2
  80181c:	1085883a 	add	r2,r2,r2
  801820:	10c5883a 	add	r2,r2,r3
  801824:	10800017 	ldw	r2,0(r2)
  801828:	d0a6ff15 	stw	r2,-25604(gp)
        OSTCBCur      = OSTCBHighRdy;
  80182c:	d0a6ff17 	ldw	r2,-25604(gp)
  801830:	d0a70415 	stw	r2,-25584(gp)
        OSStartHighRdy();                            /* Execute target specific code to start task     */
  801834:	080b2200 	call	80b220 <OSStartHighRdy>
    }
}
  801838:	e037883a 	mov	sp,fp
  80183c:	dfc00117 	ldw	ra,4(sp)
  801840:	df000017 	ldw	fp,0(sp)
  801844:	dec00204 	addi	sp,sp,8
  801848:	f800283a 	ret

0080184c <OSStatInit>:
*********************************************************************************************************
*/

#if OS_TASK_STAT_EN > 0
void  OSStatInit (void)
{
  80184c:	defff904 	addi	sp,sp,-28
  801850:	dfc00615 	stw	ra,24(sp)
  801854:	df000515 	stw	fp,20(sp)
  801858:	df000504 	addi	fp,sp,20
#if OS_CRITICAL_METHOD == 3                      /* Allocate storage for CPU status register           */
    OS_CPU_SR  cpu_sr = 0;
  80185c:	e03fff15 	stw	zero,-4(fp)
#endif



    OSTimeDly(2);                                /* Synchronize with clock tick                        */
  801860:	01000084 	movi	r4,2
  801864:	08088ac0 	call	8088ac <OSTimeDly>
static ALT_INLINE alt_irq_context ALT_ALWAYS_INLINE 
       alt_irq_disable_all (void)
{
  alt_irq_context context;

  NIOS2_READ_STATUS (context);
  801868:	0005303a 	rdctl	r2,status
  80186c:	e0bffe15 	stw	r2,-8(fp)

  NIOS2_WRITE_STATUS (context & ~NIOS2_STATUS_PIE_MSK);
  801870:	e0fffe17 	ldw	r3,-8(fp)
  801874:	00bfff84 	movi	r2,-2
  801878:	1884703a 	and	r2,r3,r2
  80187c:	1001703a 	wrctl	status,r2
  
  return context;
  801880:	e0bffe17 	ldw	r2,-8(fp)
    OS_ENTER_CRITICAL();
  801884:	e0bfff15 	stw	r2,-4(fp)
    OSIdleCtr    = 0L;                           /* Clear idle counter                                 */
  801888:	d026f615 	stw	zero,-25640(gp)
  80188c:	e0bfff17 	ldw	r2,-4(fp)
  801890:	e0bffd15 	stw	r2,-12(fp)
  status &= ~NIOS2_STATUS_PIE_MSK;
  status |= (context & NIOS2_STATUS_PIE_MSK);
  
  NIOS2_WRITE_STATUS (status);
#else
  NIOS2_WRITE_STATUS (context);
  801894:	e0bffd17 	ldw	r2,-12(fp)
  801898:	1001703a 	wrctl	status,r2
    OS_EXIT_CRITICAL();
    OSTimeDly(OS_TICKS_PER_SEC / 10);            /* Determine MAX. idle counter value for 1/10 second  */
  80189c:	01001904 	movi	r4,100
  8018a0:	08088ac0 	call	8088ac <OSTimeDly>
static ALT_INLINE alt_irq_context ALT_ALWAYS_INLINE 
       alt_irq_disable_all (void)
{
  alt_irq_context context;

  NIOS2_READ_STATUS (context);
  8018a4:	0005303a 	rdctl	r2,status
  8018a8:	e0bffc15 	stw	r2,-16(fp)

  NIOS2_WRITE_STATUS (context & ~NIOS2_STATUS_PIE_MSK);
  8018ac:	e0fffc17 	ldw	r3,-16(fp)
  8018b0:	00bfff84 	movi	r2,-2
  8018b4:	1884703a 	and	r2,r3,r2
  8018b8:	1001703a 	wrctl	status,r2
  
  return context;
  8018bc:	e0bffc17 	ldw	r2,-16(fp)
    OS_ENTER_CRITICAL();
  8018c0:	e0bfff15 	stw	r2,-4(fp)
    OSIdleCtrMax = OSIdleCtr;                    /* Store maximum idle counter count in 1/10 second    */
  8018c4:	d0a6f617 	ldw	r2,-25640(gp)
  8018c8:	d0a6fb15 	stw	r2,-25620(gp)
    OSStatRdy    = OS_TRUE;
  8018cc:	00800044 	movi	r2,1
  8018d0:	d0a70705 	stb	r2,-25572(gp)
  8018d4:	e0bfff17 	ldw	r2,-4(fp)
  8018d8:	e0bffb15 	stw	r2,-20(fp)
  status &= ~NIOS2_STATUS_PIE_MSK;
  status |= (context & NIOS2_STATUS_PIE_MSK);
  
  NIOS2_WRITE_STATUS (status);
#else
  NIOS2_WRITE_STATUS (context);
  8018dc:	e0bffb17 	ldw	r2,-20(fp)
  8018e0:	1001703a 	wrctl	status,r2
    OS_EXIT_CRITICAL();
}
  8018e4:	e037883a 	mov	sp,fp
  8018e8:	dfc00117 	ldw	ra,4(sp)
  8018ec:	df000017 	ldw	fp,0(sp)
  8018f0:	dec00204 	addi	sp,sp,8
  8018f4:	f800283a 	ret

008018f8 <OSTimeTick>:
* Returns    : none
*********************************************************************************************************
*/

void  OSTimeTick (void)
{
  8018f8:	defff604 	addi	sp,sp,-40
  8018fc:	dfc00915 	stw	ra,36(sp)
  801900:	df000815 	stw	fp,32(sp)
  801904:	df000804 	addi	fp,sp,32
    OS_TCB    *ptcb;
#if OS_TICK_STEP_EN > 0
    BOOLEAN    step;
#endif
#if OS_CRITICAL_METHOD == 3                                /* Allocate storage for CPU status register     */
    OS_CPU_SR  cpu_sr = 0;
  801908:	e03ffc15 	stw	zero,-16(fp)
#endif



#if OS_TIME_TICK_HOOK_EN > 0
    OSTimeTickHook();                                      /* Call user definable hook                     */
  80190c:	080b5ec0 	call	80b5ec <OSTimeTickHook>
static ALT_INLINE alt_irq_context ALT_ALWAYS_INLINE 
       alt_irq_disable_all (void)
{
  alt_irq_context context;

  NIOS2_READ_STATUS (context);
  801910:	0005303a 	rdctl	r2,status
  801914:	e0bffb15 	stw	r2,-20(fp)

  NIOS2_WRITE_STATUS (context & ~NIOS2_STATUS_PIE_MSK);
  801918:	e0fffb17 	ldw	r3,-20(fp)
  80191c:	00bfff84 	movi	r2,-2
  801920:	1884703a 	and	r2,r3,r2
  801924:	1001703a 	wrctl	status,r2
  
  return context;
  801928:	e0bffb17 	ldw	r2,-20(fp)
#endif
#if OS_TIME_GET_SET_EN > 0
    OS_ENTER_CRITICAL();                                   /* Update the 32-bit tick counter               */
  80192c:	e0bffc15 	stw	r2,-16(fp)
    OSTime++;
  801930:	d0a70517 	ldw	r2,-25580(gp)
  801934:	10800044 	addi	r2,r2,1
  801938:	d0a70515 	stw	r2,-25580(gp)
  80193c:	e0bffc17 	ldw	r2,-16(fp)
  801940:	e0bffa15 	stw	r2,-24(fp)
  status &= ~NIOS2_STATUS_PIE_MSK;
  status |= (context & NIOS2_STATUS_PIE_MSK);
  
  NIOS2_WRITE_STATUS (status);
#else
  NIOS2_WRITE_STATUS (context);
  801944:	e0bffa17 	ldw	r2,-24(fp)
  801948:	1001703a 	wrctl	status,r2
    OS_EXIT_CRITICAL();
#endif
    if (OSRunning == OS_TRUE) {
  80194c:	d0a6f543 	ldbu	r2,-25643(gp)
  801950:	10803fcc 	andi	r2,r2,255
  801954:	10800058 	cmpnei	r2,r2,1
  801958:	1000721e 	bne	r2,zero,801b24 <OSTimeTick+0x22c>
#if OS_TICK_STEP_EN > 0
        switch (OSTickStepState) {                         /* Determine whether we need to process a tick  */
  80195c:	d0a6f903 	ldbu	r2,-25628(gp)
  801960:	10803fcc 	andi	r2,r2,255
  801964:	e0bfff15 	stw	r2,-4(fp)
  801968:	e0ffff17 	ldw	r3,-4(fp)
  80196c:	18800060 	cmpeqi	r2,r3,1
  801970:	10000a1e 	bne	r2,zero,80199c <OSTimeTick+0xa4>
  801974:	e0ffff17 	ldw	r3,-4(fp)
  801978:	188000a0 	cmpeqi	r2,r3,2
  80197c:	1000091e 	bne	r2,zero,8019a4 <OSTimeTick+0xac>
  801980:	e0ffff17 	ldw	r3,-4(fp)
  801984:	1805003a 	cmpeq	r2,r3,zero
  801988:	1000011e 	bne	r2,zero,801990 <OSTimeTick+0x98>
  80198c:	00000a06 	br	8019b8 <OSTimeTick+0xc0>
            case OS_TICK_STEP_DIS:                         /* Yes, stepping is disabled                    */
                 step = OS_TRUE;
  801990:	00800044 	movi	r2,1
  801994:	e0bffd05 	stb	r2,-12(fp)
                 break;
  801998:	00000a06 	br	8019c4 <OSTimeTick+0xcc>

            case OS_TICK_STEP_WAIT:                        /* No,  waiting for uC/OS-View to set ...       */
                 step = OS_FALSE;                          /*      .. OSTickStepState to OS_TICK_STEP_ONCE */
  80199c:	e03ffd05 	stb	zero,-12(fp)
                 break;
  8019a0:	00000806 	br	8019c4 <OSTimeTick+0xcc>

            case OS_TICK_STEP_ONCE:                        /* Yes, process tick once and wait for next ... */
                 step            = OS_TRUE;                /*      ... step command from uC/OS-View        */
  8019a4:	00800044 	movi	r2,1
  8019a8:	e0bffd05 	stb	r2,-12(fp)
                 OSTickStepState = OS_TICK_STEP_WAIT;
  8019ac:	00800044 	movi	r2,1
  8019b0:	d0a6f905 	stb	r2,-25628(gp)
                 break;
  8019b4:	00000306 	br	8019c4 <OSTimeTick+0xcc>

            default:                                       /* Invalid case, correct situation              */
                 step            = OS_TRUE;
  8019b8:	00800044 	movi	r2,1
  8019bc:	e0bffd05 	stb	r2,-12(fp)
                 OSTickStepState = OS_TICK_STEP_DIS;
  8019c0:	d026f905 	stb	zero,-25628(gp)
                 break;
        }
        if (step == OS_FALSE) {                            /* Return if waiting for step command           */
  8019c4:	e0bffd03 	ldbu	r2,-12(fp)
  8019c8:	1005003a 	cmpeq	r2,r2,zero
  8019cc:	1000551e 	bne	r2,zero,801b24 <OSTimeTick+0x22c>
            return;
        }
#endif
        ptcb = OSTCBList;                                  /* Point at first TCB in TCB list               */
  8019d0:	d0a6f817 	ldw	r2,-25632(gp)
  8019d4:	e0bffe15 	stw	r2,-8(fp)
        while (ptcb->OSTCBPrio != OS_TASK_IDLE_PRIO) {     /* Go through all TCBs in TCB list              */
  8019d8:	00004d06 	br	801b10 <OSTimeTick+0x218>
static ALT_INLINE alt_irq_context ALT_ALWAYS_INLINE 
       alt_irq_disable_all (void)
{
  alt_irq_context context;

  NIOS2_READ_STATUS (context);
  8019dc:	0005303a 	rdctl	r2,status
  8019e0:	e0bff915 	stw	r2,-28(fp)

  NIOS2_WRITE_STATUS (context & ~NIOS2_STATUS_PIE_MSK);
  8019e4:	e0fff917 	ldw	r3,-28(fp)
  8019e8:	00bfff84 	movi	r2,-2
  8019ec:	1884703a 	and	r2,r3,r2
  8019f0:	1001703a 	wrctl	status,r2
  
  return context;
  8019f4:	e0bff917 	ldw	r2,-28(fp)
            OS_ENTER_CRITICAL();
  8019f8:	e0bffc15 	stw	r2,-16(fp)
            if (ptcb->OSTCBDly != 0) {                     /* No, Delayed or waiting for event with TO     */
  8019fc:	e0bffe17 	ldw	r2,-8(fp)
  801a00:	10800b8b 	ldhu	r2,46(r2)
  801a04:	10bfffcc 	andi	r2,r2,65535
  801a08:	1005003a 	cmpeq	r2,r2,zero
  801a0c:	1000391e 	bne	r2,zero,801af4 <OSTimeTick+0x1fc>
                if (--ptcb->OSTCBDly == 0) {               /* Decrement nbr of ticks to end of delay       */
  801a10:	e0bffe17 	ldw	r2,-8(fp)
  801a14:	10800b8b 	ldhu	r2,46(r2)
  801a18:	10bfffc4 	addi	r2,r2,-1
  801a1c:	1007883a 	mov	r3,r2
  801a20:	e0bffe17 	ldw	r2,-8(fp)
  801a24:	10c00b8d 	sth	r3,46(r2)
  801a28:	e0bffe17 	ldw	r2,-8(fp)
  801a2c:	10800b8b 	ldhu	r2,46(r2)
  801a30:	10bfffcc 	andi	r2,r2,65535
  801a34:	1004c03a 	cmpne	r2,r2,zero
  801a38:	10002e1e 	bne	r2,zero,801af4 <OSTimeTick+0x1fc>
                                                           /* Check for timeout                            */
                    if ((ptcb->OSTCBStat & OS_STAT_PEND_ANY) != OS_STAT_RDY) {
  801a3c:	e0bffe17 	ldw	r2,-8(fp)
  801a40:	10800c03 	ldbu	r2,48(r2)
  801a44:	10803fcc 	andi	r2,r2,255
  801a48:	10800dcc 	andi	r2,r2,55
  801a4c:	1005003a 	cmpeq	r2,r2,zero
  801a50:	10000b1e 	bne	r2,zero,801a80 <OSTimeTick+0x188>
                        ptcb->OSTCBStat  &= ~(INT8U)OS_STAT_PEND_ANY;          /* Yes, Clear status flag   */
  801a54:	e0bffe17 	ldw	r2,-8(fp)
  801a58:	10c00c03 	ldbu	r3,48(r2)
  801a5c:	00bff204 	movi	r2,-56
  801a60:	1884703a 	and	r2,r3,r2
  801a64:	1007883a 	mov	r3,r2
  801a68:	e0bffe17 	ldw	r2,-8(fp)
  801a6c:	10c00c05 	stb	r3,48(r2)
                        ptcb->OSTCBStatPend = OS_STAT_PEND_TO;                 /* Indicate PEND timeout    */
  801a70:	e0fffe17 	ldw	r3,-8(fp)
  801a74:	00800044 	movi	r2,1
  801a78:	18800c45 	stb	r2,49(r3)
  801a7c:	00000206 	br	801a88 <OSTimeTick+0x190>
                    } else {
                        ptcb->OSTCBStatPend = OS_STAT_PEND_OK;
  801a80:	e0bffe17 	ldw	r2,-8(fp)
  801a84:	10000c45 	stb	zero,49(r2)
                    }

                    if ((ptcb->OSTCBStat & OS_STAT_SUSPEND) == OS_STAT_RDY) {  /* Is task suspended?       */
  801a88:	e0bffe17 	ldw	r2,-8(fp)
  801a8c:	10800c03 	ldbu	r2,48(r2)
  801a90:	10803fcc 	andi	r2,r2,255
  801a94:	1080020c 	andi	r2,r2,8
  801a98:	1004c03a 	cmpne	r2,r2,zero
  801a9c:	1000151e 	bne	r2,zero,801af4 <OSTimeTick+0x1fc>
                        OSRdyGrp               |= ptcb->OSTCBBitY;             /* No,  Make ready          */
  801aa0:	e0bffe17 	ldw	r2,-8(fp)
  801aa4:	10c00d83 	ldbu	r3,54(r2)
  801aa8:	d0a70103 	ldbu	r2,-25596(gp)
  801aac:	1884b03a 	or	r2,r3,r2
  801ab0:	d0a70105 	stb	r2,-25596(gp)
                        OSRdyTbl[ptcb->OSTCBY] |= ptcb->OSTCBBitX;
  801ab4:	e0bffe17 	ldw	r2,-8(fp)
  801ab8:	10800d03 	ldbu	r2,52(r2)
  801abc:	11003fcc 	andi	r4,r2,255
  801ac0:	e0bffe17 	ldw	r2,-8(fp)
  801ac4:	10800d03 	ldbu	r2,52(r2)
  801ac8:	10c03fcc 	andi	r3,r2,255
  801acc:	d0a70144 	addi	r2,gp,-25595
  801ad0:	1885883a 	add	r2,r3,r2
  801ad4:	10c00003 	ldbu	r3,0(r2)
  801ad8:	e0bffe17 	ldw	r2,-8(fp)
  801adc:	10800d43 	ldbu	r2,53(r2)
  801ae0:	1884b03a 	or	r2,r3,r2
  801ae4:	1007883a 	mov	r3,r2
  801ae8:	d0a70144 	addi	r2,gp,-25595
  801aec:	2085883a 	add	r2,r4,r2
  801af0:	10c00005 	stb	r3,0(r2)
                    }
                }
            }
            ptcb = ptcb->OSTCBNext;                        /* Point at next TCB in TCB list                */
  801af4:	e0bffe17 	ldw	r2,-8(fp)
  801af8:	10800517 	ldw	r2,20(r2)
  801afc:	e0bffe15 	stw	r2,-8(fp)
  801b00:	e0bffc17 	ldw	r2,-16(fp)
  801b04:	e0bff815 	stw	r2,-32(fp)
  status &= ~NIOS2_STATUS_PIE_MSK;
  status |= (context & NIOS2_STATUS_PIE_MSK);
  
  NIOS2_WRITE_STATUS (status);
#else
  NIOS2_WRITE_STATUS (context);
  801b08:	e0bff817 	ldw	r2,-32(fp)
  801b0c:	1001703a 	wrctl	status,r2
        if (step == OS_FALSE) {                            /* Return if waiting for step command           */
            return;
        }
#endif
        ptcb = OSTCBList;                                  /* Point at first TCB in TCB list               */
        while (ptcb->OSTCBPrio != OS_TASK_IDLE_PRIO) {     /* Go through all TCBs in TCB list              */
  801b10:	e0bffe17 	ldw	r2,-8(fp)
  801b14:	10800c83 	ldbu	r2,50(r2)
  801b18:	10803fcc 	andi	r2,r2,255
  801b1c:	10800518 	cmpnei	r2,r2,20
  801b20:	103fae1e 	bne	r2,zero,8019dc <OSTimeTick+0xe4>
            }
            ptcb = ptcb->OSTCBNext;                        /* Point at next TCB in TCB list                */
            OS_EXIT_CRITICAL();
        }
    }
}
  801b24:	e037883a 	mov	sp,fp
  801b28:	dfc00117 	ldw	ra,4(sp)
  801b2c:	df000017 	ldw	fp,0(sp)
  801b30:	dec00204 	addi	sp,sp,8
  801b34:	f800283a 	ret

00801b38 <OSVersion>:
* Returns    : the version number of uC/OS-II multiplied by 100.
*********************************************************************************************************
*/

INT16U  OSVersion (void)
{
  801b38:	deffff04 	addi	sp,sp,-4
  801b3c:	df000015 	stw	fp,0(sp)
  801b40:	d839883a 	mov	fp,sp
    return (OS_VERSION);
  801b44:	00804784 	movi	r2,286
}
  801b48:	e037883a 	mov	sp,fp
  801b4c:	df000017 	ldw	fp,0(sp)
  801b50:	dec00104 	addi	sp,sp,4
  801b54:	f800283a 	ret

00801b58 <OS_Dummy>:
*********************************************************************************************************
*/

#if OS_TASK_DEL_EN > 0
void  OS_Dummy (void)
{
  801b58:	deffff04 	addi	sp,sp,-4
  801b5c:	df000015 	stw	fp,0(sp)
  801b60:	d839883a 	mov	fp,sp
}
  801b64:	e037883a 	mov	sp,fp
  801b68:	df000017 	ldw	fp,0(sp)
  801b6c:	dec00104 	addi	sp,sp,4
  801b70:	f800283a 	ret

00801b74 <OS_EventTaskRdy>:
* Note       : This function is INTERNAL to uC/OS-II and your application should not call it.
*********************************************************************************************************
*/
#if (OS_EVENT_EN)
INT8U  OS_EventTaskRdy (OS_EVENT *pevent, void *pmsg, INT8U msk, INT8U pend_stat)
{
  801b74:	defff804 	addi	sp,sp,-32
  801b78:	dfc00715 	stw	ra,28(sp)
  801b7c:	df000615 	stw	fp,24(sp)
  801b80:	df000604 	addi	fp,sp,24
  801b84:	e13ffc15 	stw	r4,-16(fp)
  801b88:	e17ffd15 	stw	r5,-12(fp)
  801b8c:	e1bffe05 	stb	r6,-8(fp)
  801b90:	e1ffff05 	stb	r7,-4(fp)
    INT16U  *ptbl;
#endif


#if OS_LOWEST_PRIO <= 63
    y    = OSUnMapTbl[pevent->OSEventGrp];              /* Find HPT waiting for message                */
  801b94:	e0bffc17 	ldw	r2,-16(fp)
  801b98:	10800283 	ldbu	r2,10(r2)
  801b9c:	10c03fcc 	andi	r3,r2,255
  801ba0:	00802074 	movhi	r2,129
  801ba4:	10b96804 	addi	r2,r2,-6752
  801ba8:	10c5883a 	add	r2,r2,r3
  801bac:	10800003 	ldbu	r2,0(r2)
  801bb0:	e0bffa85 	stb	r2,-22(fp)
    x    = OSUnMapTbl[pevent->OSEventTbl[y]];
  801bb4:	e0fffa83 	ldbu	r3,-22(fp)
  801bb8:	e0bffc17 	ldw	r2,-16(fp)
  801bbc:	1885883a 	add	r2,r3,r2
  801bc0:	10800204 	addi	r2,r2,8
  801bc4:	108000c3 	ldbu	r2,3(r2)
  801bc8:	10c03fcc 	andi	r3,r2,255
  801bcc:	00802074 	movhi	r2,129
  801bd0:	10b96804 	addi	r2,r2,-6752
  801bd4:	10c5883a 	add	r2,r2,r3
  801bd8:	10800003 	ldbu	r2,0(r2)
  801bdc:	e0bffa45 	stb	r2,-23(fp)
    prio = (INT8U)((y << 3) + x);                       /* Find priority of task getting the msg       */
  801be0:	e0bffa83 	ldbu	r2,-22(fp)
  801be4:	100490fa 	slli	r2,r2,3
  801be8:	1007883a 	mov	r3,r2
  801bec:	e0bffa43 	ldbu	r2,-23(fp)
  801bf0:	1885883a 	add	r2,r3,r2
  801bf4:	e0bffa05 	stb	r2,-24(fp)
        x = OSUnMapTbl[(*ptbl >> 8) & 0xFF] + 8;
    }
    prio = (INT8U)((y << 4) + x);                       /* Find priority of task getting the msg       */
#endif

    ptcb                  =  OSTCBPrioTbl[prio];        /* Point to this task's OS_TCB                 */
  801bf8:	e0bffa03 	ldbu	r2,-24(fp)
  801bfc:	00c020b4 	movhi	r3,130
  801c00:	18ebe104 	addi	r3,r3,-20604
  801c04:	1085883a 	add	r2,r2,r2
  801c08:	1085883a 	add	r2,r2,r2
  801c0c:	10c5883a 	add	r2,r2,r3
  801c10:	10800017 	ldw	r2,0(r2)
  801c14:	e0bffb15 	stw	r2,-20(fp)
    ptcb->OSTCBDly        =  0;                         /* Prevent OSTimeTick() from readying task     */
  801c18:	e0bffb17 	ldw	r2,-20(fp)
  801c1c:	10000b8d 	sth	zero,46(r2)
#if ((OS_Q_EN > 0) && (OS_MAX_QS > 0)) || (OS_MBOX_EN > 0)
    ptcb->OSTCBMsg        =  pmsg;                      /* Send message directly to waiting task       */
  801c20:	e0fffb17 	ldw	r3,-20(fp)
  801c24:	e0bffd17 	ldw	r2,-12(fp)
  801c28:	18800915 	stw	r2,36(r3)
#else
    pmsg                  =  pmsg;                      /* Prevent compiler warning if not used        */
#endif
    ptcb->OSTCBStat      &= ~msk;                       /* Clear bit associated with event type        */
  801c2c:	e0bffb17 	ldw	r2,-20(fp)
  801c30:	10800c03 	ldbu	r2,48(r2)
  801c34:	1007883a 	mov	r3,r2
  801c38:	e0bffe03 	ldbu	r2,-8(fp)
  801c3c:	0084303a 	nor	r2,zero,r2
  801c40:	1884703a 	and	r2,r3,r2
  801c44:	1007883a 	mov	r3,r2
  801c48:	e0bffb17 	ldw	r2,-20(fp)
  801c4c:	10c00c05 	stb	r3,48(r2)
    ptcb->OSTCBStatPend   =  pend_stat;                 /* Set pend status of post or abort            */
  801c50:	e0fffb17 	ldw	r3,-20(fp)
  801c54:	e0bfff03 	ldbu	r2,-4(fp)
  801c58:	18800c45 	stb	r2,49(r3)
                                                        /* See if task is ready (could be susp'd)      */
    if ((ptcb->OSTCBStat &   OS_STAT_SUSPEND) == OS_STAT_RDY) {
  801c5c:	e0bffb17 	ldw	r2,-20(fp)
  801c60:	10800c03 	ldbu	r2,48(r2)
  801c64:	10803fcc 	andi	r2,r2,255
  801c68:	1080020c 	andi	r2,r2,8
  801c6c:	1004c03a 	cmpne	r2,r2,zero
  801c70:	1000111e 	bne	r2,zero,801cb8 <OS_EventTaskRdy+0x144>
        OSRdyGrp         |=  ptcb->OSTCBBitY;           /* Put task in the ready to run list           */
  801c74:	e0bffb17 	ldw	r2,-20(fp)
  801c78:	10c00d83 	ldbu	r3,54(r2)
  801c7c:	d0a70103 	ldbu	r2,-25596(gp)
  801c80:	1884b03a 	or	r2,r3,r2
  801c84:	d0a70105 	stb	r2,-25596(gp)
        OSRdyTbl[y]      |=  ptcb->OSTCBBitX;
  801c88:	e13ffa83 	ldbu	r4,-22(fp)
  801c8c:	e0fffa83 	ldbu	r3,-22(fp)
  801c90:	d0a70144 	addi	r2,gp,-25595
  801c94:	1885883a 	add	r2,r3,r2
  801c98:	10c00003 	ldbu	r3,0(r2)
  801c9c:	e0bffb17 	ldw	r2,-20(fp)
  801ca0:	10800d43 	ldbu	r2,53(r2)
  801ca4:	1884b03a 	or	r2,r3,r2
  801ca8:	1007883a 	mov	r3,r2
  801cac:	d0a70144 	addi	r2,gp,-25595
  801cb0:	2085883a 	add	r2,r4,r2
  801cb4:	10c00005 	stb	r3,0(r2)
    }

    OS_EventTaskRemove(ptcb, pevent);                   /* Remove this task from event   wait list     */
  801cb8:	e13ffb17 	ldw	r4,-20(fp)
  801cbc:	e17ffc17 	ldw	r5,-16(fp)
  801cc0:	0801f6c0 	call	801f6c <OS_EventTaskRemove>
#if (OS_EVENT_MULTI_EN > 0)
    if (ptcb->OSTCBEventMultiPtr != (OS_EVENT **)0) {   /* Remove this task from events' wait lists    */
  801cc4:	e0bffb17 	ldw	r2,-20(fp)
  801cc8:	10800817 	ldw	r2,32(r2)
  801ccc:	1005003a 	cmpeq	r2,r2,zero
  801cd0:	1000071e 	bne	r2,zero,801cf0 <OS_EventTaskRdy+0x17c>
        OS_EventTaskRemoveMulti(ptcb, ptcb->OSTCBEventMultiPtr);
  801cd4:	e0bffb17 	ldw	r2,-20(fp)
  801cd8:	11400817 	ldw	r5,32(r2)
  801cdc:	e13ffb17 	ldw	r4,-20(fp)
  801ce0:	08020240 	call	802024 <OS_EventTaskRemoveMulti>
        ptcb->OSTCBEventPtr       = (OS_EVENT  *)pevent;/* Return event as first multi-pend event ready*/
  801ce4:	e0fffb17 	ldw	r3,-20(fp)
  801ce8:	e0bffc17 	ldw	r2,-16(fp)
  801cec:	18800715 	stw	r2,28(r3)
    }
#endif

    return (prio);
  801cf0:	e0bffa03 	ldbu	r2,-24(fp)
}
  801cf4:	e037883a 	mov	sp,fp
  801cf8:	dfc00117 	ldw	ra,4(sp)
  801cfc:	df000017 	ldw	fp,0(sp)
  801d00:	dec00204 	addi	sp,sp,8
  801d04:	f800283a 	ret

00801d08 <OS_EventTaskWait>:
* Note       : This function is INTERNAL to uC/OS-II and your application should not call it.
*********************************************************************************************************
*/
#if (OS_EVENT_EN)
void  OS_EventTaskWait (OS_EVENT *pevent)
{
  801d08:	defffd04 	addi	sp,sp,-12
  801d0c:	df000215 	stw	fp,8(sp)
  801d10:	df000204 	addi	fp,sp,8
  801d14:	e13fff15 	stw	r4,-4(fp)
    INT8U  y;


    OSTCBCur->OSTCBEventPtr               = pevent;                 /* Store ptr to ECB in TCB         */
  801d18:	d0e70417 	ldw	r3,-25584(gp)
  801d1c:	e0bfff17 	ldw	r2,-4(fp)
  801d20:	18800715 	stw	r2,28(r3)

    pevent->OSEventTbl[OSTCBCur->OSTCBY] |= OSTCBCur->OSTCBBitX;    /* Put task in waiting list        */
  801d24:	d0a70417 	ldw	r2,-25584(gp)
  801d28:	10800d03 	ldbu	r2,52(r2)
  801d2c:	11003fcc 	andi	r4,r2,255
  801d30:	d0a70417 	ldw	r2,-25584(gp)
  801d34:	10800d03 	ldbu	r2,52(r2)
  801d38:	10c03fcc 	andi	r3,r2,255
  801d3c:	e0bfff17 	ldw	r2,-4(fp)
  801d40:	1885883a 	add	r2,r3,r2
  801d44:	10800204 	addi	r2,r2,8
  801d48:	10c000c3 	ldbu	r3,3(r2)
  801d4c:	d0a70417 	ldw	r2,-25584(gp)
  801d50:	10800d43 	ldbu	r2,53(r2)
  801d54:	1884b03a 	or	r2,r3,r2
  801d58:	1007883a 	mov	r3,r2
  801d5c:	e0bfff17 	ldw	r2,-4(fp)
  801d60:	2085883a 	add	r2,r4,r2
  801d64:	10800204 	addi	r2,r2,8
  801d68:	10c000c5 	stb	r3,3(r2)
    pevent->OSEventGrp                   |= OSTCBCur->OSTCBBitY;
  801d6c:	e0bfff17 	ldw	r2,-4(fp)
  801d70:	10c00283 	ldbu	r3,10(r2)
  801d74:	d0a70417 	ldw	r2,-25584(gp)
  801d78:	10800d83 	ldbu	r2,54(r2)
  801d7c:	1884b03a 	or	r2,r3,r2
  801d80:	1007883a 	mov	r3,r2
  801d84:	e0bfff17 	ldw	r2,-4(fp)
  801d88:	10c00285 	stb	r3,10(r2)

    y             =  OSTCBCur->OSTCBY;            /* Task no longer ready                              */
  801d8c:	d0a70417 	ldw	r2,-25584(gp)
  801d90:	10800d03 	ldbu	r2,52(r2)
  801d94:	e0bffe05 	stb	r2,-8(fp)
    OSRdyTbl[y]  &= ~OSTCBCur->OSTCBBitX;
  801d98:	e13ffe03 	ldbu	r4,-8(fp)
  801d9c:	e0fffe03 	ldbu	r3,-8(fp)
  801da0:	d0a70144 	addi	r2,gp,-25595
  801da4:	1885883a 	add	r2,r3,r2
  801da8:	10800003 	ldbu	r2,0(r2)
  801dac:	1007883a 	mov	r3,r2
  801db0:	d0a70417 	ldw	r2,-25584(gp)
  801db4:	10800d43 	ldbu	r2,53(r2)
  801db8:	0084303a 	nor	r2,zero,r2
  801dbc:	1884703a 	and	r2,r3,r2
  801dc0:	1007883a 	mov	r3,r2
  801dc4:	d0a70144 	addi	r2,gp,-25595
  801dc8:	2085883a 	add	r2,r4,r2
  801dcc:	10c00005 	stb	r3,0(r2)
    if (OSRdyTbl[y] == 0) {
  801dd0:	e0fffe03 	ldbu	r3,-8(fp)
  801dd4:	d0a70144 	addi	r2,gp,-25595
  801dd8:	1885883a 	add	r2,r3,r2
  801ddc:	10800003 	ldbu	r2,0(r2)
  801de0:	10803fcc 	andi	r2,r2,255
  801de4:	1004c03a 	cmpne	r2,r2,zero
  801de8:	1000071e 	bne	r2,zero,801e08 <OS_EventTaskWait+0x100>
        OSRdyGrp &= ~OSTCBCur->OSTCBBitY;         /* Clear event grp bit if this was only task pending */
  801dec:	d0a70417 	ldw	r2,-25584(gp)
  801df0:	10800d83 	ldbu	r2,54(r2)
  801df4:	0084303a 	nor	r2,zero,r2
  801df8:	1007883a 	mov	r3,r2
  801dfc:	d0a70103 	ldbu	r2,-25596(gp)
  801e00:	1884703a 	and	r2,r3,r2
  801e04:	d0a70105 	stb	r2,-25596(gp)
    }
}
  801e08:	e037883a 	mov	sp,fp
  801e0c:	df000017 	ldw	fp,0(sp)
  801e10:	dec00104 	addi	sp,sp,4
  801e14:	f800283a 	ret

00801e18 <OS_EventTaskWaitMulti>:
* Note       : This function is INTERNAL to uC/OS-II and your application should not call it.
*********************************************************************************************************
*/
#if ((OS_EVENT_EN) && (OS_EVENT_MULTI_EN > 0))
void  OS_EventTaskWaitMulti (OS_EVENT **pevents_wait)
{
  801e18:	defffb04 	addi	sp,sp,-20
  801e1c:	df000415 	stw	fp,16(sp)
  801e20:	df000404 	addi	fp,sp,16
  801e24:	e13fff15 	stw	r4,-4(fp)
    OS_EVENT **pevents;
    OS_EVENT  *pevent;
    INT8U      y;


    OSTCBCur->OSTCBEventPtr      = (OS_EVENT  *)0;
  801e28:	d0a70417 	ldw	r2,-25584(gp)
  801e2c:	10000715 	stw	zero,28(r2)
    OSTCBCur->OSTCBEventMultiPtr = (OS_EVENT **)pevents_wait;       /* Store ptr to ECBs in TCB        */
  801e30:	d0e70417 	ldw	r3,-25584(gp)
  801e34:	e0bfff17 	ldw	r2,-4(fp)
  801e38:	18800815 	stw	r2,32(r3)

    pevents =  pevents_wait;
  801e3c:	e0bfff17 	ldw	r2,-4(fp)
  801e40:	e0bffe15 	stw	r2,-8(fp)
    pevent  = *pevents;
  801e44:	e0bffe17 	ldw	r2,-8(fp)
  801e48:	10800017 	ldw	r2,0(r2)
  801e4c:	e0bffd15 	stw	r2,-12(fp)
    while (pevent != (OS_EVENT *)0) {                               /* Put task in waiting lists       */
  801e50:	00002006 	br	801ed4 <OS_EventTaskWaitMulti+0xbc>
        pevent->OSEventTbl[OSTCBCur->OSTCBY] |= OSTCBCur->OSTCBBitX;
  801e54:	d0a70417 	ldw	r2,-25584(gp)
  801e58:	10800d03 	ldbu	r2,52(r2)
  801e5c:	11003fcc 	andi	r4,r2,255
  801e60:	d0a70417 	ldw	r2,-25584(gp)
  801e64:	10800d03 	ldbu	r2,52(r2)
  801e68:	10c03fcc 	andi	r3,r2,255
  801e6c:	e0bffd17 	ldw	r2,-12(fp)
  801e70:	1885883a 	add	r2,r3,r2
  801e74:	10800204 	addi	r2,r2,8
  801e78:	10c000c3 	ldbu	r3,3(r2)
  801e7c:	d0a70417 	ldw	r2,-25584(gp)
  801e80:	10800d43 	ldbu	r2,53(r2)
  801e84:	1884b03a 	or	r2,r3,r2
  801e88:	1007883a 	mov	r3,r2
  801e8c:	e0bffd17 	ldw	r2,-12(fp)
  801e90:	2085883a 	add	r2,r4,r2
  801e94:	10800204 	addi	r2,r2,8
  801e98:	10c000c5 	stb	r3,3(r2)
        pevent->OSEventGrp                   |= OSTCBCur->OSTCBBitY;
  801e9c:	e0bffd17 	ldw	r2,-12(fp)
  801ea0:	10c00283 	ldbu	r3,10(r2)
  801ea4:	d0a70417 	ldw	r2,-25584(gp)
  801ea8:	10800d83 	ldbu	r2,54(r2)
  801eac:	1884b03a 	or	r2,r3,r2
  801eb0:	1007883a 	mov	r3,r2
  801eb4:	e0bffd17 	ldw	r2,-12(fp)
  801eb8:	10c00285 	stb	r3,10(r2)
        pevents++;
  801ebc:	e0bffe17 	ldw	r2,-8(fp)
  801ec0:	10800104 	addi	r2,r2,4
  801ec4:	e0bffe15 	stw	r2,-8(fp)
        pevent = *pevents;
  801ec8:	e0bffe17 	ldw	r2,-8(fp)
  801ecc:	10800017 	ldw	r2,0(r2)
  801ed0:	e0bffd15 	stw	r2,-12(fp)
    OSTCBCur->OSTCBEventPtr      = (OS_EVENT  *)0;
    OSTCBCur->OSTCBEventMultiPtr = (OS_EVENT **)pevents_wait;       /* Store ptr to ECBs in TCB        */

    pevents =  pevents_wait;
    pevent  = *pevents;
    while (pevent != (OS_EVENT *)0) {                               /* Put task in waiting lists       */
  801ed4:	e0bffd17 	ldw	r2,-12(fp)
  801ed8:	1004c03a 	cmpne	r2,r2,zero
  801edc:	103fdd1e 	bne	r2,zero,801e54 <OS_EventTaskWaitMulti+0x3c>
        pevent->OSEventGrp                   |= OSTCBCur->OSTCBBitY;
        pevents++;
        pevent = *pevents;
    }

    y             =  OSTCBCur->OSTCBY;            /* Task no longer ready                              */
  801ee0:	d0a70417 	ldw	r2,-25584(gp)
  801ee4:	10800d03 	ldbu	r2,52(r2)
  801ee8:	e0bffc05 	stb	r2,-16(fp)
    OSRdyTbl[y]  &= ~OSTCBCur->OSTCBBitX;
  801eec:	e13ffc03 	ldbu	r4,-16(fp)
  801ef0:	e0fffc03 	ldbu	r3,-16(fp)
  801ef4:	d0a70144 	addi	r2,gp,-25595
  801ef8:	1885883a 	add	r2,r3,r2
  801efc:	10800003 	ldbu	r2,0(r2)
  801f00:	1007883a 	mov	r3,r2
  801f04:	d0a70417 	ldw	r2,-25584(gp)
  801f08:	10800d43 	ldbu	r2,53(r2)
  801f0c:	0084303a 	nor	r2,zero,r2
  801f10:	1884703a 	and	r2,r3,r2
  801f14:	1007883a 	mov	r3,r2
  801f18:	d0a70144 	addi	r2,gp,-25595
  801f1c:	2085883a 	add	r2,r4,r2
  801f20:	10c00005 	stb	r3,0(r2)
    if (OSRdyTbl[y] == 0) {
  801f24:	e0fffc03 	ldbu	r3,-16(fp)
  801f28:	d0a70144 	addi	r2,gp,-25595
  801f2c:	1885883a 	add	r2,r3,r2
  801f30:	10800003 	ldbu	r2,0(r2)
  801f34:	10803fcc 	andi	r2,r2,255
  801f38:	1004c03a 	cmpne	r2,r2,zero
  801f3c:	1000071e 	bne	r2,zero,801f5c <OS_EventTaskWaitMulti+0x144>
        OSRdyGrp &= ~OSTCBCur->OSTCBBitY;         /* Clear event grp bit if this was only task pending */
  801f40:	d0a70417 	ldw	r2,-25584(gp)
  801f44:	10800d83 	ldbu	r2,54(r2)
  801f48:	0084303a 	nor	r2,zero,r2
  801f4c:	1007883a 	mov	r3,r2
  801f50:	d0a70103 	ldbu	r2,-25596(gp)
  801f54:	1884703a 	and	r2,r3,r2
  801f58:	d0a70105 	stb	r2,-25596(gp)
    }
}
  801f5c:	e037883a 	mov	sp,fp
  801f60:	df000017 	ldw	fp,0(sp)
  801f64:	dec00104 	addi	sp,sp,4
  801f68:	f800283a 	ret

00801f6c <OS_EventTaskRemove>:
*********************************************************************************************************
*/
#if (OS_EVENT_EN)
void  OS_EventTaskRemove (OS_TCB   *ptcb,
                          OS_EVENT *pevent)
{
  801f6c:	defffc04 	addi	sp,sp,-16
  801f70:	df000315 	stw	fp,12(sp)
  801f74:	df000304 	addi	fp,sp,12
  801f78:	e13ffe15 	stw	r4,-8(fp)
  801f7c:	e17fff15 	stw	r5,-4(fp)
    INT8U  y;


    y                       =  ptcb->OSTCBY;
  801f80:	e0bffe17 	ldw	r2,-8(fp)
  801f84:	10800d03 	ldbu	r2,52(r2)
  801f88:	e0bffd05 	stb	r2,-12(fp)
    pevent->OSEventTbl[y]  &= ~ptcb->OSTCBBitX;         /* Remove task from wait list                  */
  801f8c:	e13ffd03 	ldbu	r4,-12(fp)
  801f90:	e0fffd03 	ldbu	r3,-12(fp)
  801f94:	e0bfff17 	ldw	r2,-4(fp)
  801f98:	1885883a 	add	r2,r3,r2
  801f9c:	10800204 	addi	r2,r2,8
  801fa0:	108000c3 	ldbu	r2,3(r2)
  801fa4:	1007883a 	mov	r3,r2
  801fa8:	e0bffe17 	ldw	r2,-8(fp)
  801fac:	10800d43 	ldbu	r2,53(r2)
  801fb0:	0084303a 	nor	r2,zero,r2
  801fb4:	1884703a 	and	r2,r3,r2
  801fb8:	1007883a 	mov	r3,r2
  801fbc:	e0bfff17 	ldw	r2,-4(fp)
  801fc0:	2085883a 	add	r2,r4,r2
  801fc4:	10800204 	addi	r2,r2,8
  801fc8:	10c000c5 	stb	r3,3(r2)
    if (pevent->OSEventTbl[y] == 0) {
  801fcc:	e0fffd03 	ldbu	r3,-12(fp)
  801fd0:	e0bfff17 	ldw	r2,-4(fp)
  801fd4:	1885883a 	add	r2,r3,r2
  801fd8:	10800204 	addi	r2,r2,8
  801fdc:	108000c3 	ldbu	r2,3(r2)
  801fe0:	10803fcc 	andi	r2,r2,255
  801fe4:	1004c03a 	cmpne	r2,r2,zero
  801fe8:	10000a1e 	bne	r2,zero,802014 <OS_EventTaskRemove+0xa8>
        pevent->OSEventGrp &= ~ptcb->OSTCBBitY;
  801fec:	e0bfff17 	ldw	r2,-4(fp)
  801ff0:	10800283 	ldbu	r2,10(r2)
  801ff4:	1007883a 	mov	r3,r2
  801ff8:	e0bffe17 	ldw	r2,-8(fp)
  801ffc:	10800d83 	ldbu	r2,54(r2)
  802000:	0084303a 	nor	r2,zero,r2
  802004:	1884703a 	and	r2,r3,r2
  802008:	1007883a 	mov	r3,r2
  80200c:	e0bfff17 	ldw	r2,-4(fp)
  802010:	10c00285 	stb	r3,10(r2)
    }
}
  802014:	e037883a 	mov	sp,fp
  802018:	df000017 	ldw	fp,0(sp)
  80201c:	dec00104 	addi	sp,sp,4
  802020:	f800283a 	ret

00802024 <OS_EventTaskRemoveMulti>:
*********************************************************************************************************
*/
#if ((OS_EVENT_EN) && (OS_EVENT_MULTI_EN > 0))
void  OS_EventTaskRemoveMulti (OS_TCB    *ptcb,
                               OS_EVENT **pevents_multi)
{
  802024:	defffa04 	addi	sp,sp,-24
  802028:	df000515 	stw	fp,20(sp)
  80202c:	df000504 	addi	fp,sp,20
  802030:	e13ffe15 	stw	r4,-8(fp)
  802034:	e17fff15 	stw	r5,-4(fp)
    INT16U     bity;
    INT16U     bitx;
#endif


    y       =  ptcb->OSTCBY;
  802038:	e0bffe17 	ldw	r2,-8(fp)
  80203c:	10800d03 	ldbu	r2,52(r2)
  802040:	e0bffb85 	stb	r2,-18(fp)
    bity    =  ptcb->OSTCBBitY;
  802044:	e0bffe17 	ldw	r2,-8(fp)
  802048:	10800d83 	ldbu	r2,54(r2)
  80204c:	e0bffb45 	stb	r2,-19(fp)
    bitx    =  ptcb->OSTCBBitX;
  802050:	e0bffe17 	ldw	r2,-8(fp)
  802054:	10800d43 	ldbu	r2,53(r2)
  802058:	e0bffb05 	stb	r2,-20(fp)
    pevents =  pevents_multi;
  80205c:	e0bfff17 	ldw	r2,-4(fp)
  802060:	e0bffd15 	stw	r2,-12(fp)
    pevent  = *pevents;
  802064:	e0bffd17 	ldw	r2,-12(fp)
  802068:	10800017 	ldw	r2,0(r2)
  80206c:	e0bffc15 	stw	r2,-16(fp)
    while (pevent != (OS_EVENT *)0) {                   /* Remove task from all events' wait lists     */
  802070:	00002606 	br	80210c <OS_EventTaskRemoveMulti+0xe8>
        pevent->OSEventTbl[y]  &= ~bitx;
  802074:	e13ffb83 	ldbu	r4,-18(fp)
  802078:	e0fffb83 	ldbu	r3,-18(fp)
  80207c:	e0bffc17 	ldw	r2,-16(fp)
  802080:	1885883a 	add	r2,r3,r2
  802084:	10800204 	addi	r2,r2,8
  802088:	108000c3 	ldbu	r2,3(r2)
  80208c:	1007883a 	mov	r3,r2
  802090:	e0bffb03 	ldbu	r2,-20(fp)
  802094:	0084303a 	nor	r2,zero,r2
  802098:	1884703a 	and	r2,r3,r2
  80209c:	1007883a 	mov	r3,r2
  8020a0:	e0bffc17 	ldw	r2,-16(fp)
  8020a4:	2085883a 	add	r2,r4,r2
  8020a8:	10800204 	addi	r2,r2,8
  8020ac:	10c000c5 	stb	r3,3(r2)
        if (pevent->OSEventTbl[y] == 0) {
  8020b0:	e0fffb83 	ldbu	r3,-18(fp)
  8020b4:	e0bffc17 	ldw	r2,-16(fp)
  8020b8:	1885883a 	add	r2,r3,r2
  8020bc:	10800204 	addi	r2,r2,8
  8020c0:	108000c3 	ldbu	r2,3(r2)
  8020c4:	10803fcc 	andi	r2,r2,255
  8020c8:	1004c03a 	cmpne	r2,r2,zero
  8020cc:	1000091e 	bne	r2,zero,8020f4 <OS_EventTaskRemoveMulti+0xd0>
            pevent->OSEventGrp &= ~bity;
  8020d0:	e0bffc17 	ldw	r2,-16(fp)
  8020d4:	10800283 	ldbu	r2,10(r2)
  8020d8:	1007883a 	mov	r3,r2
  8020dc:	e0bffb43 	ldbu	r2,-19(fp)
  8020e0:	0084303a 	nor	r2,zero,r2
  8020e4:	1884703a 	and	r2,r3,r2
  8020e8:	1007883a 	mov	r3,r2
  8020ec:	e0bffc17 	ldw	r2,-16(fp)
  8020f0:	10c00285 	stb	r3,10(r2)
        }
        pevents++;
  8020f4:	e0bffd17 	ldw	r2,-12(fp)
  8020f8:	10800104 	addi	r2,r2,4
  8020fc:	e0bffd15 	stw	r2,-12(fp)
        pevent = *pevents;
  802100:	e0bffd17 	ldw	r2,-12(fp)
  802104:	10800017 	ldw	r2,0(r2)
  802108:	e0bffc15 	stw	r2,-16(fp)
    y       =  ptcb->OSTCBY;
    bity    =  ptcb->OSTCBBitY;
    bitx    =  ptcb->OSTCBBitX;
    pevents =  pevents_multi;
    pevent  = *pevents;
    while (pevent != (OS_EVENT *)0) {                   /* Remove task from all events' wait lists     */
  80210c:	e0bffc17 	ldw	r2,-16(fp)
  802110:	1004c03a 	cmpne	r2,r2,zero
  802114:	103fd71e 	bne	r2,zero,802074 <OS_EventTaskRemoveMulti+0x50>
            pevent->OSEventGrp &= ~bity;
        }
        pevents++;
        pevent = *pevents;
    }
}
  802118:	e037883a 	mov	sp,fp
  80211c:	df000017 	ldw	fp,0(sp)
  802120:	dec00104 	addi	sp,sp,4
  802124:	f800283a 	ret

00802128 <OS_EventWaitListInit>:
* Note       : This function is INTERNAL to uC/OS-II and your application should not call it.
*********************************************************************************************************
*/
#if (OS_EVENT_EN)
void  OS_EventWaitListInit (OS_EVENT *pevent)
{
  802128:	defffc04 	addi	sp,sp,-16
  80212c:	df000315 	stw	fp,12(sp)
  802130:	df000304 	addi	fp,sp,12
  802134:	e13fff15 	stw	r4,-4(fp)
    INT16U *ptbl;
#endif
    INT8U   i;


    pevent->OSEventGrp = 0;                      /* No task waiting on event                           */
  802138:	e0bfff17 	ldw	r2,-4(fp)
  80213c:	10000285 	stb	zero,10(r2)
    ptbl               = &pevent->OSEventTbl[0];
  802140:	e0bfff17 	ldw	r2,-4(fp)
  802144:	108002c4 	addi	r2,r2,11
  802148:	e0bffe15 	stw	r2,-8(fp)

    for (i = 0; i < OS_EVENT_TBL_SIZE; i++) {
  80214c:	e03ffd05 	stb	zero,-12(fp)
  802150:	00000806 	br	802174 <OS_EventWaitListInit+0x4c>
        *ptbl++ = 0;
  802154:	e0bffe17 	ldw	r2,-8(fp)
  802158:	10000005 	stb	zero,0(r2)
  80215c:	e0bffe17 	ldw	r2,-8(fp)
  802160:	10800044 	addi	r2,r2,1
  802164:	e0bffe15 	stw	r2,-8(fp)


    pevent->OSEventGrp = 0;                      /* No task waiting on event                           */
    ptbl               = &pevent->OSEventTbl[0];

    for (i = 0; i < OS_EVENT_TBL_SIZE; i++) {
  802168:	e0bffd03 	ldbu	r2,-12(fp)
  80216c:	10800044 	addi	r2,r2,1
  802170:	e0bffd05 	stb	r2,-12(fp)
  802174:	e0bffd03 	ldbu	r2,-12(fp)
  802178:	108000f0 	cmpltui	r2,r2,3
  80217c:	103ff51e 	bne	r2,zero,802154 <OS_EventWaitListInit+0x2c>
        *ptbl++ = 0;
    }
}
  802180:	e037883a 	mov	sp,fp
  802184:	df000017 	ldw	fp,0(sp)
  802188:	dec00104 	addi	sp,sp,4
  80218c:	f800283a 	ret

00802190 <OS_InitEventList>:
* Returns    : none
*********************************************************************************************************
*/

static  void  OS_InitEventList (void)
{
  802190:	defffb04 	addi	sp,sp,-20
  802194:	dfc00415 	stw	ra,16(sp)
  802198:	df000315 	stw	fp,12(sp)
  80219c:	df000304 	addi	fp,sp,12
    INT16U     i;
    OS_EVENT  *pevent1;
    OS_EVENT  *pevent2;


    OS_MemClr((INT8U *)&OSEventTbl[0], sizeof(OSEventTbl)); /* Clear the event table                   */
  8021a0:	010020b4 	movhi	r4,130
  8021a4:	2127cd04 	addi	r4,r4,-24780
  8021a8:	0142d004 	movi	r5,2880
  8021ac:	08024f40 	call	8024f4 <OS_MemClr>
    pevent1 = &OSEventTbl[0];
  8021b0:	008020b4 	movhi	r2,130
  8021b4:	10a7cd04 	addi	r2,r2,-24780
  8021b8:	e0bffe15 	stw	r2,-8(fp)
    pevent2 = &OSEventTbl[1];
  8021bc:	008020b4 	movhi	r2,130
  8021c0:	10a7d904 	addi	r2,r2,-24732
  8021c4:	e0bffd15 	stw	r2,-12(fp)
    for (i = 0; i < (OS_MAX_EVENTS - 1); i++) {             /* Init. list of free EVENT control blocks */
  8021c8:	e03fff0d 	sth	zero,-4(fp)
  8021cc:	00001306 	br	80221c <OS_InitEventList+0x8c>
        pevent1->OSEventType    = OS_EVENT_TYPE_UNUSED;
  8021d0:	e0bffe17 	ldw	r2,-8(fp)
  8021d4:	10000005 	stb	zero,0(r2)
        pevent1->OSEventPtr     = pevent2;
  8021d8:	e0fffe17 	ldw	r3,-8(fp)
  8021dc:	e0bffd17 	ldw	r2,-12(fp)
  8021e0:	18800115 	stw	r2,4(r3)
#if OS_EVENT_NAME_SIZE > 1
        pevent1->OSEventName[0] = '?';                      /* Unknown name                            */
  8021e4:	e0fffe17 	ldw	r3,-8(fp)
  8021e8:	00800fc4 	movi	r2,63
  8021ec:	18800385 	stb	r2,14(r3)
        pevent1->OSEventName[1] = OS_ASCII_NUL;
  8021f0:	e0bffe17 	ldw	r2,-8(fp)
  8021f4:	100003c5 	stb	zero,15(r2)
#endif
        pevent1++;
  8021f8:	e0bffe17 	ldw	r2,-8(fp)
  8021fc:	10800c04 	addi	r2,r2,48
  802200:	e0bffe15 	stw	r2,-8(fp)
        pevent2++;
  802204:	e0bffd17 	ldw	r2,-12(fp)
  802208:	10800c04 	addi	r2,r2,48
  80220c:	e0bffd15 	stw	r2,-12(fp)


    OS_MemClr((INT8U *)&OSEventTbl[0], sizeof(OSEventTbl)); /* Clear the event table                   */
    pevent1 = &OSEventTbl[0];
    pevent2 = &OSEventTbl[1];
    for (i = 0; i < (OS_MAX_EVENTS - 1); i++) {             /* Init. list of free EVENT control blocks */
  802210:	e0bfff0b 	ldhu	r2,-4(fp)
  802214:	10800044 	addi	r2,r2,1
  802218:	e0bfff0d 	sth	r2,-4(fp)
  80221c:	e0bfff0b 	ldhu	r2,-4(fp)
  802220:	10800ef0 	cmpltui	r2,r2,59
  802224:	103fea1e 	bne	r2,zero,8021d0 <OS_InitEventList+0x40>
        pevent1->OSEventName[1] = OS_ASCII_NUL;
#endif
        pevent1++;
        pevent2++;
    }
    pevent1->OSEventType            = OS_EVENT_TYPE_UNUSED;
  802228:	e0bffe17 	ldw	r2,-8(fp)
  80222c:	10000005 	stb	zero,0(r2)
    pevent1->OSEventPtr             = (OS_EVENT *)0;
  802230:	e0bffe17 	ldw	r2,-8(fp)
  802234:	10000115 	stw	zero,4(r2)
#if OS_EVENT_NAME_SIZE > 1
    pevent1->OSEventName[0]         = '?';
  802238:	e0fffe17 	ldw	r3,-8(fp)
  80223c:	00800fc4 	movi	r2,63
  802240:	18800385 	stb	r2,14(r3)
    pevent1->OSEventName[1]         = OS_ASCII_NUL;
  802244:	e0bffe17 	ldw	r2,-8(fp)
  802248:	100003c5 	stb	zero,15(r2)
#endif
    OSEventFreeList                 = &OSEventTbl[0];
  80224c:	008020b4 	movhi	r2,130
  802250:	10a7cd04 	addi	r2,r2,-24780
  802254:	d0a70215 	stw	r2,-25592(gp)
    OSEventFreeList->OSEventName[0] = '?';                  /* Unknown name                            */
    OSEventFreeList->OSEventName[1] = OS_ASCII_NUL;
#endif
#endif
#endif
}
  802258:	e037883a 	mov	sp,fp
  80225c:	dfc00117 	ldw	ra,4(sp)
  802260:	df000017 	ldw	fp,0(sp)
  802264:	dec00204 	addi	sp,sp,8
  802268:	f800283a 	ret

0080226c <OS_InitMisc>:
* Returns    : none
*********************************************************************************************************
*/

static  void  OS_InitMisc (void)
{
  80226c:	deffff04 	addi	sp,sp,-4
  802270:	df000015 	stw	fp,0(sp)
  802274:	d839883a 	mov	fp,sp
#if OS_TIME_GET_SET_EN > 0
    OSTime        = 0L;                                    /* Clear the 32-bit system clock            */
  802278:	d0270515 	stw	zero,-25580(gp)
#endif

    OSIntNesting  = 0;                                     /* Clear the interrupt nesting counter      */
  80227c:	d0270305 	stb	zero,-25588(gp)
    OSLockNesting = 0;                                     /* Clear the scheduling lock counter        */
  802280:	d026f505 	stb	zero,-25644(gp)

    OSTaskCtr     = 0;                                     /* Clear the number of tasks                */
  802284:	d026fd45 	stb	zero,-25611(gp)

    OSRunning     = OS_FALSE;                              /* Indicate that multitasking not started   */
  802288:	d026f545 	stb	zero,-25643(gp)

    OSCtxSwCtr    = 0;                                     /* Clear the context switch counter         */
  80228c:	d026fa15 	stw	zero,-25624(gp)
    OSIdleCtr     = 0L;                                    /* Clear the 32-bit idle counter            */
  802290:	d026f615 	stw	zero,-25640(gp)

#if OS_TASK_STAT_EN > 0
    OSIdleCtrRun  = 0L;
  802294:	d0270815 	stw	zero,-25568(gp)
    OSIdleCtrMax  = 0L;
  802298:	d026fb15 	stw	zero,-25620(gp)
    OSStatRdy     = OS_FALSE;                              /* Statistic task is not ready              */
  80229c:	d0270705 	stb	zero,-25572(gp)
#endif
}
  8022a0:	e037883a 	mov	sp,fp
  8022a4:	df000017 	ldw	fp,0(sp)
  8022a8:	dec00104 	addi	sp,sp,4
  8022ac:	f800283a 	ret

008022b0 <OS_InitRdyList>:
* Returns    : none
*********************************************************************************************************
*/

static  void  OS_InitRdyList (void)
{
  8022b0:	defffd04 	addi	sp,sp,-12
  8022b4:	df000215 	stw	fp,8(sp)
  8022b8:	df000204 	addi	fp,sp,8
#else
    INT16U  *prdytbl;
#endif


    OSRdyGrp      = 0;                                     /* Clear the ready list                     */
  8022bc:	d0270105 	stb	zero,-25596(gp)
    prdytbl       = &OSRdyTbl[0];
  8022c0:	d0a70144 	addi	r2,gp,-25595
  8022c4:	e0bffe15 	stw	r2,-8(fp)
    for (i = 0; i < OS_RDY_TBL_SIZE; i++) {
  8022c8:	e03fff05 	stb	zero,-4(fp)
  8022cc:	00000806 	br	8022f0 <OS_InitRdyList+0x40>
        *prdytbl++ = 0;
  8022d0:	e0bffe17 	ldw	r2,-8(fp)
  8022d4:	10000005 	stb	zero,0(r2)
  8022d8:	e0bffe17 	ldw	r2,-8(fp)
  8022dc:	10800044 	addi	r2,r2,1
  8022e0:	e0bffe15 	stw	r2,-8(fp)
#endif


    OSRdyGrp      = 0;                                     /* Clear the ready list                     */
    prdytbl       = &OSRdyTbl[0];
    for (i = 0; i < OS_RDY_TBL_SIZE; i++) {
  8022e4:	e0bfff03 	ldbu	r2,-4(fp)
  8022e8:	10800044 	addi	r2,r2,1
  8022ec:	e0bfff05 	stb	r2,-4(fp)
  8022f0:	e0bfff03 	ldbu	r2,-4(fp)
  8022f4:	108000f0 	cmpltui	r2,r2,3
  8022f8:	103ff51e 	bne	r2,zero,8022d0 <OS_InitRdyList+0x20>
        *prdytbl++ = 0;
    }

    OSPrioCur     = 0;
  8022fc:	d026f745 	stb	zero,-25635(gp)
    OSPrioHighRdy = 0;
  802300:	d026f705 	stb	zero,-25636(gp)

    OSTCBHighRdy  = (OS_TCB *)0;
  802304:	d026ff15 	stw	zero,-25604(gp)
    OSTCBCur      = (OS_TCB *)0;
  802308:	d0270415 	stw	zero,-25584(gp)
}
  80230c:	e037883a 	mov	sp,fp
  802310:	df000017 	ldw	fp,0(sp)
  802314:	dec00104 	addi	sp,sp,4
  802318:	f800283a 	ret

0080231c <OS_InitTaskIdle>:
* Returns    : none
*********************************************************************************************************
*/

static  void  OS_InitTaskIdle (void)
{
  80231c:	defff804 	addi	sp,sp,-32
  802320:	dfc00715 	stw	ra,28(sp)
  802324:	df000615 	stw	fp,24(sp)
  802328:	df000604 	addi	fp,sp,24
#endif


#if OS_TASK_CREATE_EXT_EN > 0
    #if OS_STK_GROWTH == 1
    (void)OSTaskCreateExt(OS_TaskIdle,
  80232c:	018020b4 	movhi	r6,130
  802330:	31a7cc04 	addi	r6,r6,-24784
  802334:	00bfffd4 	movui	r2,65535
  802338:	d8800015 	stw	r2,0(sp)
  80233c:	008020b4 	movhi	r2,130
  802340:	10a5cd04 	addi	r2,r2,-26828
  802344:	d8800115 	stw	r2,4(sp)
  802348:	00808004 	movi	r2,512
  80234c:	d8800215 	stw	r2,8(sp)
  802350:	d8000315 	stw	zero,12(sp)
  802354:	008000c4 	movi	r2,3
  802358:	d8800415 	stw	r2,16(sp)
  80235c:	01002034 	movhi	r4,128
  802360:	2109f404 	addi	r4,r4,10192
  802364:	000b883a 	mov	r5,zero
  802368:	01c00504 	movi	r7,20
  80236c:	08075b40 	call	8075b4 <OSTaskCreateExt>
                       OS_TASK_IDLE_PRIO);
    #endif
#endif

#if OS_TASK_NAME_SIZE > 14
    OSTaskNameSet(OS_TASK_IDLE_PRIO, (INT8U *)"uC/OS-II Idle", &err);
  802370:	01402074 	movhi	r5,129
  802374:	2979a804 	addi	r5,r5,-6496
  802378:	01000504 	movi	r4,20
  80237c:	e1bfff04 	addi	r6,fp,-4
  802380:	0807ee80 	call	807ee8 <OSTaskNameSet>
#else
#if OS_TASK_NAME_SIZE > 7
    OSTaskNameSet(OS_TASK_IDLE_PRIO, (INT8U *)"OS-Idle", &err);
#endif
#endif
}
  802384:	e037883a 	mov	sp,fp
  802388:	dfc00117 	ldw	ra,4(sp)
  80238c:	df000017 	ldw	fp,0(sp)
  802390:	dec00204 	addi	sp,sp,8
  802394:	f800283a 	ret

00802398 <OS_InitTaskStat>:
*********************************************************************************************************
*/

#if OS_TASK_STAT_EN > 0
static  void  OS_InitTaskStat (void)
{
  802398:	defff804 	addi	sp,sp,-32
  80239c:	dfc00715 	stw	ra,28(sp)
  8023a0:	df000615 	stw	fp,24(sp)
  8023a4:	df000604 	addi	fp,sp,24
#endif


#if OS_TASK_CREATE_EXT_EN > 0
    #if OS_STK_GROWTH == 1
    (void)OSTaskCreateExt(OS_TaskStat,
  8023a8:	018020b4 	movhi	r6,130
  8023ac:	31a55404 	addi	r6,r6,-27312
  8023b0:	00bfff94 	movui	r2,65534
  8023b4:	d8800015 	stw	r2,0(sp)
  8023b8:	008020b4 	movhi	r2,130
  8023bc:	10a35504 	addi	r2,r2,-29356
  8023c0:	d8800115 	stw	r2,4(sp)
  8023c4:	00808004 	movi	r2,512
  8023c8:	d8800215 	stw	r2,8(sp)
  8023cc:	d8000315 	stw	zero,12(sp)
  8023d0:	008000c4 	movi	r2,3
  8023d4:	d8800415 	stw	r2,16(sp)
  8023d8:	01002034 	movhi	r4,128
  8023dc:	210a0b04 	addi	r4,r4,10284
  8023e0:	000b883a 	mov	r5,zero
  8023e4:	01c004c4 	movi	r7,19
  8023e8:	08075b40 	call	8075b4 <OSTaskCreateExt>
                       OS_TASK_STAT_PRIO);                             /* One higher than the idle task  */
    #endif
#endif

#if OS_TASK_NAME_SIZE > 14
    OSTaskNameSet(OS_TASK_STAT_PRIO, (INT8U *)"uC/OS-II Stat", &err);
  8023ec:	01402074 	movhi	r5,129
  8023f0:	2979ac04 	addi	r5,r5,-6480
  8023f4:	010004c4 	movi	r4,19
  8023f8:	e1bfff04 	addi	r6,fp,-4
  8023fc:	0807ee80 	call	807ee8 <OSTaskNameSet>
#else
#if OS_TASK_NAME_SIZE > 7
    OSTaskNameSet(OS_TASK_STAT_PRIO, (INT8U *)"OS-Stat", &err);
#endif
#endif
}
  802400:	e037883a 	mov	sp,fp
  802404:	dfc00117 	ldw	ra,4(sp)
  802408:	df000017 	ldw	fp,0(sp)
  80240c:	dec00204 	addi	sp,sp,8
  802410:	f800283a 	ret

00802414 <OS_InitTCBList>:
* Returns    : none
*********************************************************************************************************
*/

static  void  OS_InitTCBList (void)
{
  802414:	defffb04 	addi	sp,sp,-20
  802418:	dfc00415 	stw	ra,16(sp)
  80241c:	df000315 	stw	fp,12(sp)
  802420:	df000304 	addi	fp,sp,12
    INT8U    i;
    OS_TCB  *ptcb1;
    OS_TCB  *ptcb2;


    OS_MemClr((INT8U *)&OSTCBTbl[0],     sizeof(OSTCBTbl));      /* Clear all the TCBs                 */
  802424:	010020b4 	movhi	r4,130
  802428:	212a9d04 	addi	r4,r4,-21900
  80242c:	01414404 	movi	r5,1296
  802430:	08024f40 	call	8024f4 <OS_MemClr>
    OS_MemClr((INT8U *)&OSTCBPrioTbl[0], sizeof(OSTCBPrioTbl));  /* Clear the priority table           */
  802434:	010020b4 	movhi	r4,130
  802438:	212be104 	addi	r4,r4,-20604
  80243c:	01401504 	movi	r5,84
  802440:	08024f40 	call	8024f4 <OS_MemClr>
    ptcb1 = &OSTCBTbl[0];
  802444:	008020b4 	movhi	r2,130
  802448:	10aa9d04 	addi	r2,r2,-21900
  80244c:	e0bffe15 	stw	r2,-8(fp)
    ptcb2 = &OSTCBTbl[1];
  802450:	008020b4 	movhi	r2,130
  802454:	10aab804 	addi	r2,r2,-21792
  802458:	e0bffd15 	stw	r2,-12(fp)
    for (i = 0; i < (OS_MAX_TASKS + OS_N_SYS_TASKS - 1); i++) {  /* Init. list of free TCBs            */
  80245c:	e03fff05 	stb	zero,-4(fp)
  802460:	00001106 	br	8024a8 <OS_InitTCBList+0x94>
        ptcb1->OSTCBNext = ptcb2;
  802464:	e0fffe17 	ldw	r3,-8(fp)
  802468:	e0bffd17 	ldw	r2,-12(fp)
  80246c:	18800515 	stw	r2,20(r3)
#if OS_TASK_NAME_SIZE > 1
        ptcb1->OSTCBTaskName[0] = '?';                           /* Unknown name                       */
  802470:	e0fffe17 	ldw	r3,-8(fp)
  802474:	00800fc4 	movi	r2,63
  802478:	18801305 	stb	r2,76(r3)
        ptcb1->OSTCBTaskName[1] = OS_ASCII_NUL;
  80247c:	e0bffe17 	ldw	r2,-8(fp)
  802480:	10001345 	stb	zero,77(r2)
#endif
        ptcb1++;
  802484:	e0bffe17 	ldw	r2,-8(fp)
  802488:	10801b04 	addi	r2,r2,108
  80248c:	e0bffe15 	stw	r2,-8(fp)
        ptcb2++;
  802490:	e0bffd17 	ldw	r2,-12(fp)
  802494:	10801b04 	addi	r2,r2,108
  802498:	e0bffd15 	stw	r2,-12(fp)

    OS_MemClr((INT8U *)&OSTCBTbl[0],     sizeof(OSTCBTbl));      /* Clear all the TCBs                 */
    OS_MemClr((INT8U *)&OSTCBPrioTbl[0], sizeof(OSTCBPrioTbl));  /* Clear the priority table           */
    ptcb1 = &OSTCBTbl[0];
    ptcb2 = &OSTCBTbl[1];
    for (i = 0; i < (OS_MAX_TASKS + OS_N_SYS_TASKS - 1); i++) {  /* Init. list of free TCBs            */
  80249c:	e0bfff03 	ldbu	r2,-4(fp)
  8024a0:	10800044 	addi	r2,r2,1
  8024a4:	e0bfff05 	stb	r2,-4(fp)
  8024a8:	e0bfff03 	ldbu	r2,-4(fp)
  8024ac:	108002f0 	cmpltui	r2,r2,11
  8024b0:	103fec1e 	bne	r2,zero,802464 <OS_InitTCBList+0x50>
        ptcb1->OSTCBTaskName[1] = OS_ASCII_NUL;
#endif
        ptcb1++;
        ptcb2++;
    }
    ptcb1->OSTCBNext = (OS_TCB *)0;                              /* Last OS_TCB                        */
  8024b4:	e0bffe17 	ldw	r2,-8(fp)
  8024b8:	10000515 	stw	zero,20(r2)
#if OS_TASK_NAME_SIZE > 1
    ptcb1->OSTCBTaskName[0] = '?';                               /* Unknown name                       */
  8024bc:	e0fffe17 	ldw	r3,-8(fp)
  8024c0:	00800fc4 	movi	r2,63
  8024c4:	18801305 	stb	r2,76(r3)
    ptcb1->OSTCBTaskName[1] = OS_ASCII_NUL;
  8024c8:	e0bffe17 	ldw	r2,-8(fp)
  8024cc:	10001345 	stb	zero,77(r2)
#endif
    OSTCBList               = (OS_TCB *)0;                       /* TCB lists initializations          */
  8024d0:	d026f815 	stw	zero,-25632(gp)
    OSTCBFreeList           = &OSTCBTbl[0];
  8024d4:	008020b4 	movhi	r2,130
  8024d8:	10aa9d04 	addi	r2,r2,-21900
  8024dc:	d0a6fc15 	stw	r2,-25616(gp)
}
  8024e0:	e037883a 	mov	sp,fp
  8024e4:	dfc00117 	ldw	ra,4(sp)
  8024e8:	df000017 	ldw	fp,0(sp)
  8024ec:	dec00204 	addi	sp,sp,8
  8024f0:	f800283a 	ret

008024f4 <OS_MemClr>:
*                 of the alignment of the destination.
*********************************************************************************************************
*/

void  OS_MemClr (INT8U *pdest, INT16U size)
{
  8024f4:	defffd04 	addi	sp,sp,-12
  8024f8:	df000215 	stw	fp,8(sp)
  8024fc:	df000204 	addi	fp,sp,8
  802500:	e13ffe15 	stw	r4,-8(fp)
  802504:	e17fff0d 	sth	r5,-4(fp)
    while (size > 0) {
  802508:	00000806 	br	80252c <OS_MemClr+0x38>
        *pdest++ = (INT8U)0;
  80250c:	e0bffe17 	ldw	r2,-8(fp)
  802510:	10000005 	stb	zero,0(r2)
  802514:	e0bffe17 	ldw	r2,-8(fp)
  802518:	10800044 	addi	r2,r2,1
  80251c:	e0bffe15 	stw	r2,-8(fp)
        size--;
  802520:	e0bfff0b 	ldhu	r2,-4(fp)
  802524:	10bfffc4 	addi	r2,r2,-1
  802528:	e0bfff0d 	sth	r2,-4(fp)
*********************************************************************************************************
*/

void  OS_MemClr (INT8U *pdest, INT16U size)
{
    while (size > 0) {
  80252c:	e0bfff0b 	ldhu	r2,-4(fp)
  802530:	1004c03a 	cmpne	r2,r2,zero
  802534:	103ff51e 	bne	r2,zero,80250c <OS_MemClr+0x18>
        *pdest++ = (INT8U)0;
        size--;
    }
}
  802538:	e037883a 	mov	sp,fp
  80253c:	df000017 	ldw	fp,0(sp)
  802540:	dec00104 	addi	sp,sp,4
  802544:	f800283a 	ret

00802548 <OS_MemCopy>:
*                 of the alignment of the source and destination.
*********************************************************************************************************
*/

void  OS_MemCopy (INT8U *pdest, INT8U *psrc, INT16U size)
{
  802548:	defffc04 	addi	sp,sp,-16
  80254c:	df000315 	stw	fp,12(sp)
  802550:	df000304 	addi	fp,sp,12
  802554:	e13ffd15 	stw	r4,-12(fp)
  802558:	e17ffe15 	stw	r5,-8(fp)
  80255c:	e1bfff0d 	sth	r6,-4(fp)
    while (size > 0) {
  802560:	00000d06 	br	802598 <OS_MemCopy+0x50>
        *pdest++ = *psrc++;
  802564:	e0bffe17 	ldw	r2,-8(fp)
  802568:	10c00003 	ldbu	r3,0(r2)
  80256c:	e0bffd17 	ldw	r2,-12(fp)
  802570:	10c00005 	stb	r3,0(r2)
  802574:	e0bffd17 	ldw	r2,-12(fp)
  802578:	10800044 	addi	r2,r2,1
  80257c:	e0bffd15 	stw	r2,-12(fp)
  802580:	e0bffe17 	ldw	r2,-8(fp)
  802584:	10800044 	addi	r2,r2,1
  802588:	e0bffe15 	stw	r2,-8(fp)
        size--;
  80258c:	e0bfff0b 	ldhu	r2,-4(fp)
  802590:	10bfffc4 	addi	r2,r2,-1
  802594:	e0bfff0d 	sth	r2,-4(fp)
*********************************************************************************************************
*/

void  OS_MemCopy (INT8U *pdest, INT8U *psrc, INT16U size)
{
    while (size > 0) {
  802598:	e0bfff0b 	ldhu	r2,-4(fp)
  80259c:	1004c03a 	cmpne	r2,r2,zero
  8025a0:	103ff01e 	bne	r2,zero,802564 <OS_MemCopy+0x1c>
        *pdest++ = *psrc++;
        size--;
    }
}
  8025a4:	e037883a 	mov	sp,fp
  8025a8:	df000017 	ldw	fp,0(sp)
  8025ac:	dec00104 	addi	sp,sp,4
  8025b0:	f800283a 	ret

008025b4 <OS_Sched>:
*              2) Rescheduling is prevented when the scheduler is locked (see OS_SchedLock())
*********************************************************************************************************
*/

void  OS_Sched (void)
{
  8025b4:	defffb04 	addi	sp,sp,-20
  8025b8:	dfc00415 	stw	ra,16(sp)
  8025bc:	df000315 	stw	fp,12(sp)
  8025c0:	df000304 	addi	fp,sp,12
#if OS_CRITICAL_METHOD == 3                            /* Allocate storage for CPU status register     */
    OS_CPU_SR  cpu_sr = 0;
  8025c4:	e03fff15 	stw	zero,-4(fp)
static ALT_INLINE alt_irq_context ALT_ALWAYS_INLINE 
       alt_irq_disable_all (void)
{
  alt_irq_context context;

  NIOS2_READ_STATUS (context);
  8025c8:	0005303a 	rdctl	r2,status
  8025cc:	e0bffe15 	stw	r2,-8(fp)

  NIOS2_WRITE_STATUS (context & ~NIOS2_STATUS_PIE_MSK);
  8025d0:	e0fffe17 	ldw	r3,-8(fp)
  8025d4:	00bfff84 	movi	r2,-2
  8025d8:	1884703a 	and	r2,r3,r2
  8025dc:	1001703a 	wrctl	status,r2
  
  return context;
  8025e0:	e0bffe17 	ldw	r2,-8(fp)
#endif



    OS_ENTER_CRITICAL();
  8025e4:	e0bfff15 	stw	r2,-4(fp)
    if (OSIntNesting == 0) {                           /* Schedule only if all ISRs done and ...       */
  8025e8:	d0a70303 	ldbu	r2,-25588(gp)
  8025ec:	10803fcc 	andi	r2,r2,255
  8025f0:	1004c03a 	cmpne	r2,r2,zero
  8025f4:	10001b1e 	bne	r2,zero,802664 <OS_Sched+0xb0>
        if (OSLockNesting == 0) {                      /* ... scheduler is not locked                  */
  8025f8:	d0a6f503 	ldbu	r2,-25644(gp)
  8025fc:	10803fcc 	andi	r2,r2,255
  802600:	1004c03a 	cmpne	r2,r2,zero
  802604:	1000171e 	bne	r2,zero,802664 <OS_Sched+0xb0>
            OS_SchedNew();
  802608:	08026880 	call	802688 <OS_SchedNew>
            if (OSPrioHighRdy != OSPrioCur) {          /* No Ctx Sw if current task is highest rdy     */
  80260c:	d0a6f703 	ldbu	r2,-25636(gp)
  802610:	d0e6f743 	ldbu	r3,-25635(gp)
  802614:	11003fcc 	andi	r4,r2,255
  802618:	18803fcc 	andi	r2,r3,255
  80261c:	20801126 	beq	r4,r2,802664 <OS_Sched+0xb0>
                OSTCBHighRdy = OSTCBPrioTbl[OSPrioHighRdy];
  802620:	d0a6f703 	ldbu	r2,-25636(gp)
  802624:	10803fcc 	andi	r2,r2,255
  802628:	00c020b4 	movhi	r3,130
  80262c:	18ebe104 	addi	r3,r3,-20604
  802630:	1085883a 	add	r2,r2,r2
  802634:	1085883a 	add	r2,r2,r2
  802638:	10c5883a 	add	r2,r2,r3
  80263c:	10800017 	ldw	r2,0(r2)
  802640:	d0a6ff15 	stw	r2,-25604(gp)
#if OS_TASK_PROFILE_EN > 0
                OSTCBHighRdy->OSTCBCtxSwCtr++;         /* Inc. # of context switches to this task      */
  802644:	d0e6ff17 	ldw	r3,-25604(gp)
  802648:	18800e17 	ldw	r2,56(r3)
  80264c:	10800044 	addi	r2,r2,1
  802650:	18800e15 	stw	r2,56(r3)
#endif
                OSCtxSwCtr++;                          /* Increment context switch counter             */
  802654:	d0a6fa17 	ldw	r2,-25624(gp)
  802658:	10800044 	addi	r2,r2,1
  80265c:	d0a6fa15 	stw	r2,-25624(gp)
                OS_TASK_SW();                          /* Perform a context switch                     */
  802660:	080b1940 	call	80b194 <OSCtxSw>
  802664:	e0bfff17 	ldw	r2,-4(fp)
  802668:	e0bffd15 	stw	r2,-12(fp)
  status &= ~NIOS2_STATUS_PIE_MSK;
  status |= (context & NIOS2_STATUS_PIE_MSK);
  
  NIOS2_WRITE_STATUS (status);
#else
  NIOS2_WRITE_STATUS (context);
  80266c:	e0bffd17 	ldw	r2,-12(fp)
  802670:	1001703a 	wrctl	status,r2
            }
        }
    }
    OS_EXIT_CRITICAL();
}
  802674:	e037883a 	mov	sp,fp
  802678:	dfc00117 	ldw	ra,4(sp)
  80267c:	df000017 	ldw	fp,0(sp)
  802680:	dec00204 	addi	sp,sp,8
  802684:	f800283a 	ret

00802688 <OS_SchedNew>:
*              2) Interrupts are assumed to be disabled when this function is called.
*********************************************************************************************************
*/

static  void  OS_SchedNew (void)
{
  802688:	defffe04 	addi	sp,sp,-8
  80268c:	df000115 	stw	fp,4(sp)
  802690:	df000104 	addi	fp,sp,4
#if OS_LOWEST_PRIO <= 63                         /* See if we support up to 64 tasks                   */
    INT8U   y;


    y             = OSUnMapTbl[OSRdyGrp];
  802694:	d0a70103 	ldbu	r2,-25596(gp)
  802698:	10c03fcc 	andi	r3,r2,255
  80269c:	00802074 	movhi	r2,129
  8026a0:	10b96804 	addi	r2,r2,-6752
  8026a4:	10c5883a 	add	r2,r2,r3
  8026a8:	10800003 	ldbu	r2,0(r2)
  8026ac:	e0bfff05 	stb	r2,-4(fp)
    OSPrioHighRdy = (INT8U)((y << 3) + OSUnMapTbl[OSRdyTbl[y]]);
  8026b0:	e0bfff03 	ldbu	r2,-4(fp)
  8026b4:	100490fa 	slli	r2,r2,3
  8026b8:	1009883a 	mov	r4,r2
  8026bc:	e0ffff03 	ldbu	r3,-4(fp)
  8026c0:	d0a70144 	addi	r2,gp,-25595
  8026c4:	1885883a 	add	r2,r3,r2
  8026c8:	10800003 	ldbu	r2,0(r2)
  8026cc:	10c03fcc 	andi	r3,r2,255
  8026d0:	00802074 	movhi	r2,129
  8026d4:	10b96804 	addi	r2,r2,-6752
  8026d8:	10c5883a 	add	r2,r2,r3
  8026dc:	10800003 	ldbu	r2,0(r2)
  8026e0:	2085883a 	add	r2,r4,r2
  8026e4:	d0a6f705 	stb	r2,-25636(gp)
        OSPrioHighRdy = (INT8U)((y << 4) + OSUnMapTbl[(*ptbl & 0xFF)]);
    } else {
        OSPrioHighRdy = (INT8U)((y << 4) + OSUnMapTbl[(*ptbl >> 8) & 0xFF] + 8);
    }
#endif
}
  8026e8:	e037883a 	mov	sp,fp
  8026ec:	df000017 	ldw	fp,0(sp)
  8026f0:	dec00104 	addi	sp,sp,4
  8026f4:	f800283a 	ret

008026f8 <OS_StrCopy>:
*********************************************************************************************************
*/

#if (OS_EVENT_NAME_SIZE > 1) || (OS_FLAG_NAME_SIZE > 1) || (OS_MEM_NAME_SIZE > 1) || (OS_TASK_NAME_SIZE > 1) || (OS_TMR_CFG_NAME_SIZE > 1)
INT8U  OS_StrCopy (INT8U *pdest, INT8U *psrc)
{
  8026f8:	defffc04 	addi	sp,sp,-16
  8026fc:	df000315 	stw	fp,12(sp)
  802700:	df000304 	addi	fp,sp,12
  802704:	e13ffe15 	stw	r4,-8(fp)
  802708:	e17fff15 	stw	r5,-4(fp)
    INT8U  len;


    len = 0;
  80270c:	e03ffd05 	stb	zero,-12(fp)
    while (*psrc != OS_ASCII_NUL) {
  802710:	00000d06 	br	802748 <OS_StrCopy+0x50>
        *pdest++ = *psrc++;
  802714:	e0bfff17 	ldw	r2,-4(fp)
  802718:	10c00003 	ldbu	r3,0(r2)
  80271c:	e0bffe17 	ldw	r2,-8(fp)
  802720:	10c00005 	stb	r3,0(r2)
  802724:	e0bffe17 	ldw	r2,-8(fp)
  802728:	10800044 	addi	r2,r2,1
  80272c:	e0bffe15 	stw	r2,-8(fp)
  802730:	e0bfff17 	ldw	r2,-4(fp)
  802734:	10800044 	addi	r2,r2,1
  802738:	e0bfff15 	stw	r2,-4(fp)
        len++;
  80273c:	e0bffd03 	ldbu	r2,-12(fp)
  802740:	10800044 	addi	r2,r2,1
  802744:	e0bffd05 	stb	r2,-12(fp)
{
    INT8U  len;


    len = 0;
    while (*psrc != OS_ASCII_NUL) {
  802748:	e0bfff17 	ldw	r2,-4(fp)
  80274c:	10800003 	ldbu	r2,0(r2)
  802750:	10803fcc 	andi	r2,r2,255
  802754:	1004c03a 	cmpne	r2,r2,zero
  802758:	103fee1e 	bne	r2,zero,802714 <OS_StrCopy+0x1c>
        *pdest++ = *psrc++;
        len++;
    }
    *pdest = OS_ASCII_NUL;
  80275c:	e0bffe17 	ldw	r2,-8(fp)
  802760:	10000005 	stb	zero,0(r2)
    return (len);
  802764:	e0bffd03 	ldbu	r2,-12(fp)
}
  802768:	e037883a 	mov	sp,fp
  80276c:	df000017 	ldw	fp,0(sp)
  802770:	dec00104 	addi	sp,sp,4
  802774:	f800283a 	ret

00802778 <OS_StrLen>:
*********************************************************************************************************
*/

#if (OS_EVENT_NAME_SIZE > 1) || (OS_FLAG_NAME_SIZE > 1) || (OS_MEM_NAME_SIZE > 1) || (OS_TASK_NAME_SIZE > 1) || (OS_TMR_CFG_NAME_SIZE > 1)
INT8U  OS_StrLen (INT8U *psrc)
{
  802778:	defffd04 	addi	sp,sp,-12
  80277c:	df000215 	stw	fp,8(sp)
  802780:	df000204 	addi	fp,sp,8
  802784:	e13fff15 	stw	r4,-4(fp)
    INT8U  len;


    len = 0;
  802788:	e03ffe05 	stb	zero,-8(fp)
    while (*psrc != OS_ASCII_NUL) {
  80278c:	00000606 	br	8027a8 <OS_StrLen+0x30>
        psrc++;
  802790:	e0bfff17 	ldw	r2,-4(fp)
  802794:	10800044 	addi	r2,r2,1
  802798:	e0bfff15 	stw	r2,-4(fp)
        len++;
  80279c:	e0bffe03 	ldbu	r2,-8(fp)
  8027a0:	10800044 	addi	r2,r2,1
  8027a4:	e0bffe05 	stb	r2,-8(fp)
{
    INT8U  len;


    len = 0;
    while (*psrc != OS_ASCII_NUL) {
  8027a8:	e0bfff17 	ldw	r2,-4(fp)
  8027ac:	10800003 	ldbu	r2,0(r2)
  8027b0:	10803fcc 	andi	r2,r2,255
  8027b4:	1004c03a 	cmpne	r2,r2,zero
  8027b8:	103ff51e 	bne	r2,zero,802790 <OS_StrLen+0x18>
        psrc++;
        len++;
    }
    return (len);
  8027bc:	e0bffe03 	ldbu	r2,-8(fp)
}
  8027c0:	e037883a 	mov	sp,fp
  8027c4:	df000017 	ldw	fp,0(sp)
  8027c8:	dec00104 	addi	sp,sp,4
  8027cc:	f800283a 	ret

008027d0 <OS_TaskIdle>:
*                 power.
*********************************************************************************************************
*/

void  OS_TaskIdle (void *p_arg)
{
  8027d0:	defffa04 	addi	sp,sp,-24
  8027d4:	dfc00515 	stw	ra,20(sp)
  8027d8:	df000415 	stw	fp,16(sp)
  8027dc:	df000404 	addi	fp,sp,16
  8027e0:	e13fff15 	stw	r4,-4(fp)
#if OS_CRITICAL_METHOD == 3                      /* Allocate storage for CPU status register           */
    OS_CPU_SR  cpu_sr = 0;
  8027e4:	e03ffe15 	stw	zero,-8(fp)
static ALT_INLINE alt_irq_context ALT_ALWAYS_INLINE 
       alt_irq_disable_all (void)
{
  alt_irq_context context;

  NIOS2_READ_STATUS (context);
  8027e8:	0005303a 	rdctl	r2,status
  8027ec:	e0bffd15 	stw	r2,-12(fp)

  NIOS2_WRITE_STATUS (context & ~NIOS2_STATUS_PIE_MSK);
  8027f0:	e0fffd17 	ldw	r3,-12(fp)
  8027f4:	00bfff84 	movi	r2,-2
  8027f8:	1884703a 	and	r2,r3,r2
  8027fc:	1001703a 	wrctl	status,r2
  
  return context;
  802800:	e0bffd17 	ldw	r2,-12(fp)



    (void)p_arg;                                 /* Prevent compiler warning for not using 'p_arg'     */
    for (;;) {
        OS_ENTER_CRITICAL();
  802804:	e0bffe15 	stw	r2,-8(fp)
        OSIdleCtr++;
  802808:	d0a6f617 	ldw	r2,-25640(gp)
  80280c:	10800044 	addi	r2,r2,1
  802810:	d0a6f615 	stw	r2,-25640(gp)
  802814:	e0bffe17 	ldw	r2,-8(fp)
  802818:	e0bffc15 	stw	r2,-16(fp)
  status &= ~NIOS2_STATUS_PIE_MSK;
  status |= (context & NIOS2_STATUS_PIE_MSK);
  
  NIOS2_WRITE_STATUS (status);
#else
  NIOS2_WRITE_STATUS (context);
  80281c:	e0bffc17 	ldw	r2,-16(fp)
  802820:	1001703a 	wrctl	status,r2
        OS_EXIT_CRITICAL();
        OSTaskIdleHook();                        /* Call user definable HOOK                           */
  802824:	080b6400 	call	80b640 <OSTaskIdleHook>
    }
  802828:	003fef06 	br	8027e8 <OS_TaskIdle+0x18>

0080282c <OS_TaskStat>:
*********************************************************************************************************
*/

#if OS_TASK_STAT_EN > 0
void  OS_TaskStat (void *p_arg)
{
  80282c:	defffa04 	addi	sp,sp,-24
  802830:	dfc00515 	stw	ra,20(sp)
  802834:	df000415 	stw	fp,16(sp)
  802838:	df000404 	addi	fp,sp,16
  80283c:	e13fff15 	stw	r4,-4(fp)
#if OS_CRITICAL_METHOD == 3                      /* Allocate storage for CPU status register           */
    OS_CPU_SR  cpu_sr = 0;
  802840:	e03ffe15 	stw	zero,-8(fp)
#endif



    (void)p_arg;                                 /* Prevent compiler warning for not using 'p_arg'     */
    while (OSStatRdy == OS_FALSE) {
  802844:	00000206 	br	802850 <OS_TaskStat+0x24>
        OSTimeDly(2 * OS_TICKS_PER_SEC / 10);    /* Wait until statistic task is ready                 */
  802848:	01003204 	movi	r4,200
  80284c:	08088ac0 	call	8088ac <OSTimeDly>
#endif



    (void)p_arg;                                 /* Prevent compiler warning for not using 'p_arg'     */
    while (OSStatRdy == OS_FALSE) {
  802850:	d0a70703 	ldbu	r2,-25572(gp)
  802854:	10803fcc 	andi	r2,r2,255
  802858:	1005003a 	cmpeq	r2,r2,zero
  80285c:	103ffa1e 	bne	r2,zero,802848 <OS_TaskStat+0x1c>
        OSTimeDly(2 * OS_TICKS_PER_SEC / 10);    /* Wait until statistic task is ready                 */
    }
    OSIdleCtrMax /= 100L;
  802860:	d126fb17 	ldw	r4,-25620(gp)
  802864:	01401904 	movi	r5,100
  802868:	080dcf80 	call	80dcf8 <__udivsi3>
  80286c:	d0a6fb15 	stw	r2,-25620(gp)
    if (OSIdleCtrMax == 0L) {
  802870:	d0a6fb17 	ldw	r2,-25620(gp)
  802874:	1004c03a 	cmpne	r2,r2,zero
  802878:	1000031e 	bne	r2,zero,802888 <OS_TaskStat+0x5c>
        OSCPUUsage = 0;
  80287c:	d026fd05 	stb	zero,-25612(gp)
        (void)OSTaskSuspend(OS_PRIO_SELF);
  802880:	01003fc4 	movi	r4,255
  802884:	08084c00 	call	8084c0 <OSTaskSuspend>
static ALT_INLINE alt_irq_context ALT_ALWAYS_INLINE 
       alt_irq_disable_all (void)
{
  alt_irq_context context;

  NIOS2_READ_STATUS (context);
  802888:	0005303a 	rdctl	r2,status
  80288c:	e0bffd15 	stw	r2,-12(fp)

  NIOS2_WRITE_STATUS (context & ~NIOS2_STATUS_PIE_MSK);
  802890:	e0fffd17 	ldw	r3,-12(fp)
  802894:	00bfff84 	movi	r2,-2
  802898:	1884703a 	and	r2,r3,r2
  80289c:	1001703a 	wrctl	status,r2
  
  return context;
  8028a0:	e0bffd17 	ldw	r2,-12(fp)
    }
    for (;;) {
        OS_ENTER_CRITICAL();
  8028a4:	e0bffe15 	stw	r2,-8(fp)
        OSIdleCtrRun = OSIdleCtr;                /* Obtain the of the idle counter for the past second */
  8028a8:	d0a6f617 	ldw	r2,-25640(gp)
  8028ac:	d0a70815 	stw	r2,-25568(gp)
        OSIdleCtr    = 0L;                       /* Reset the idle counter for the next second         */
  8028b0:	d026f615 	stw	zero,-25640(gp)
  8028b4:	e0bffe17 	ldw	r2,-8(fp)
  8028b8:	e0bffc15 	stw	r2,-16(fp)
  status &= ~NIOS2_STATUS_PIE_MSK;
  status |= (context & NIOS2_STATUS_PIE_MSK);
  
  NIOS2_WRITE_STATUS (status);
#else
  NIOS2_WRITE_STATUS (context);
  8028bc:	e0bffc17 	ldw	r2,-16(fp)
  8028c0:	1001703a 	wrctl	status,r2
        OS_EXIT_CRITICAL();
        OSCPUUsage   = (INT8U)(100L - OSIdleCtrRun / OSIdleCtrMax);
  8028c4:	d1270817 	ldw	r4,-25568(gp)
  8028c8:	d166fb17 	ldw	r5,-25620(gp)
  8028cc:	080dcf80 	call	80dcf8 <__udivsi3>
  8028d0:	1007883a 	mov	r3,r2
  8028d4:	00801904 	movi	r2,100
  8028d8:	10c5c83a 	sub	r2,r2,r3
  8028dc:	d0a6fd05 	stb	r2,-25612(gp)
        OSTaskStatHook();                        /* Invoke user definable hook                         */
  8028e0:	080b5d00 	call	80b5d0 <OSTaskStatHook>
#if (OS_TASK_STAT_STK_CHK_EN > 0) && (OS_TASK_CREATE_EXT_EN > 0)
        OS_TaskStatStkChk();                     /* Check the stacks for each task                     */
  8028e4:	08028f40 	call	8028f4 <OS_TaskStatStkChk>
#endif
        OSTimeDly(OS_TICKS_PER_SEC / 10);        /* Accumulate OSIdleCtr for the next 1/10 second      */
  8028e8:	01001904 	movi	r4,100
  8028ec:	08088ac0 	call	8088ac <OSTimeDly>
    }
  8028f0:	003fe506 	br	802888 <OS_TaskStat+0x5c>

008028f4 <OS_TaskStatStkChk>:
*********************************************************************************************************
*/

#if (OS_TASK_STAT_STK_CHK_EN > 0) && (OS_TASK_CREATE_EXT_EN > 0)
void  OS_TaskStatStkChk (void)
{
  8028f4:	defffa04 	addi	sp,sp,-24
  8028f8:	dfc00515 	stw	ra,20(sp)
  8028fc:	df000415 	stw	fp,16(sp)
  802900:	df000404 	addi	fp,sp,16
    OS_STK_DATA  stk_data;
    INT8U        err;
    INT8U        prio;


    for (prio = 0; prio <= OS_TASK_IDLE_PRIO; prio++) {
  802904:	e03ffc05 	stb	zero,-16(fp)
  802908:	00002406 	br	80299c <OS_TaskStatStkChk+0xa8>
        err = OSTaskStkChk(prio, &stk_data);
  80290c:	e13ffc03 	ldbu	r4,-16(fp)
  802910:	e17ffe04 	addi	r5,fp,-8
  802914:	08082c40 	call	8082c4 <OSTaskStkChk>
  802918:	e0bffc45 	stb	r2,-15(fp)
        if (err == OS_ERR_NONE) {
  80291c:	e0bffc43 	ldbu	r2,-15(fp)
  802920:	1004c03a 	cmpne	r2,r2,zero
  802924:	10001a1e 	bne	r2,zero,802990 <OS_TaskStatStkChk+0x9c>
            ptcb = OSTCBPrioTbl[prio];
  802928:	e0bffc03 	ldbu	r2,-16(fp)
  80292c:	00c020b4 	movhi	r3,130
  802930:	18ebe104 	addi	r3,r3,-20604
  802934:	1085883a 	add	r2,r2,r2
  802938:	1085883a 	add	r2,r2,r2
  80293c:	10c5883a 	add	r2,r2,r3
  802940:	10800017 	ldw	r2,0(r2)
  802944:	e0bffd15 	stw	r2,-12(fp)
            if (ptcb != (OS_TCB *)0) {                               /* Make sure task 'ptcb' is ...   */
  802948:	e0bffd17 	ldw	r2,-12(fp)
  80294c:	1005003a 	cmpeq	r2,r2,zero
  802950:	10000f1e 	bne	r2,zero,802990 <OS_TaskStatStkChk+0x9c>
                if (ptcb != OS_TCB_RESERVED) {                       /* ... still valid.               */
  802954:	e0bffd17 	ldw	r2,-12(fp)
  802958:	10800060 	cmpeqi	r2,r2,1
  80295c:	10000c1e 	bne	r2,zero,802990 <OS_TaskStatStkChk+0x9c>
#if OS_TASK_PROFILE_EN > 0
                    #if OS_STK_GROWTH == 1
                    ptcb->OSTCBStkBase = ptcb->OSTCBStkBottom + ptcb->OSTCBStkSize;
  802960:	e0bffd17 	ldw	r2,-12(fp)
  802964:	10c00217 	ldw	r3,8(r2)
  802968:	e0bffd17 	ldw	r2,-12(fp)
  80296c:	10800317 	ldw	r2,12(r2)
  802970:	1085883a 	add	r2,r2,r2
  802974:	1085883a 	add	r2,r2,r2
  802978:	1887883a 	add	r3,r3,r2
  80297c:	e0bffd17 	ldw	r2,-12(fp)
  802980:	10c01115 	stw	r3,68(r2)
                    #else
                    ptcb->OSTCBStkBase = ptcb->OSTCBStkBottom - ptcb->OSTCBStkSize;
                    #endif
                    ptcb->OSTCBStkUsed = stk_data.OSUsed;            /* Store the number of bytes used */
  802984:	e0ffff17 	ldw	r3,-4(fp)
  802988:	e0bffd17 	ldw	r2,-12(fp)
  80298c:	10c01215 	stw	r3,72(r2)
    OS_STK_DATA  stk_data;
    INT8U        err;
    INT8U        prio;


    for (prio = 0; prio <= OS_TASK_IDLE_PRIO; prio++) {
  802990:	e0bffc03 	ldbu	r2,-16(fp)
  802994:	10800044 	addi	r2,r2,1
  802998:	e0bffc05 	stb	r2,-16(fp)
  80299c:	e0bffc03 	ldbu	r2,-16(fp)
  8029a0:	10800570 	cmpltui	r2,r2,21
  8029a4:	103fd91e 	bne	r2,zero,80290c <OS_TaskStatStkChk+0x18>
#endif
                }
            }
        }
    }
}
  8029a8:	e037883a 	mov	sp,fp
  8029ac:	dfc00117 	ldw	ra,4(sp)
  8029b0:	df000017 	ldw	fp,0(sp)
  8029b4:	dec00204 	addi	sp,sp,8
  8029b8:	f800283a 	ret

008029bc <OS_TCBInit>:
* Note       : This function is INTERNAL to uC/OS-II and your application should not call it.
*********************************************************************************************************
*/

INT8U  OS_TCBInit (INT8U prio, OS_STK *ptos, OS_STK *pbos, INT16U id, INT32U stk_size, void *pext, INT16U opt)
{
  8029bc:	defff104 	addi	sp,sp,-60
  8029c0:	dfc00e15 	stw	ra,56(sp)
  8029c4:	df000d15 	stw	fp,52(sp)
  8029c8:	df000d04 	addi	fp,sp,52
  8029cc:	e17ffb15 	stw	r5,-20(fp)
  8029d0:	e1bffc15 	stw	r6,-16(fp)
  8029d4:	e0800417 	ldw	r2,16(fp)
  8029d8:	e13ffa05 	stb	r4,-24(fp)
  8029dc:	e1fffd0d 	sth	r7,-12(fp)
  8029e0:	e0bffe0d 	sth	r2,-8(fp)
    OS_TCB    *ptcb;
#if OS_CRITICAL_METHOD == 3                                /* Allocate storage for CPU status register */
    OS_CPU_SR  cpu_sr = 0;
  8029e4:	e03ff815 	stw	zero,-32(fp)
static ALT_INLINE alt_irq_context ALT_ALWAYS_INLINE 
       alt_irq_disable_all (void)
{
  alt_irq_context context;

  NIOS2_READ_STATUS (context);
  8029e8:	0005303a 	rdctl	r2,status
  8029ec:	e0bff715 	stw	r2,-36(fp)

  NIOS2_WRITE_STATUS (context & ~NIOS2_STATUS_PIE_MSK);
  8029f0:	e0fff717 	ldw	r3,-36(fp)
  8029f4:	00bfff84 	movi	r2,-2
  8029f8:	1884703a 	and	r2,r3,r2
  8029fc:	1001703a 	wrctl	status,r2
  
  return context;
  802a00:	e0bff717 	ldw	r2,-36(fp)
#endif



    OS_ENTER_CRITICAL();
  802a04:	e0bff815 	stw	r2,-32(fp)
    ptcb = OSTCBFreeList;                                  /* Get a free TCB from the free TCB list    */
  802a08:	d0a6fc17 	ldw	r2,-25616(gp)
  802a0c:	e0bff915 	stw	r2,-28(fp)
    if (ptcb != (OS_TCB *)0) {
  802a10:	e0bff917 	ldw	r2,-28(fp)
  802a14:	1005003a 	cmpeq	r2,r2,zero
  802a18:	1000941e 	bne	r2,zero,802c6c <OS_TCBInit+0x2b0>
        OSTCBFreeList            = ptcb->OSTCBNext;        /* Update pointer to free TCB list          */
  802a1c:	e0bff917 	ldw	r2,-28(fp)
  802a20:	10800517 	ldw	r2,20(r2)
  802a24:	d0a6fc15 	stw	r2,-25616(gp)
  802a28:	e0bff817 	ldw	r2,-32(fp)
  802a2c:	e0bff615 	stw	r2,-40(fp)
  status &= ~NIOS2_STATUS_PIE_MSK;
  status |= (context & NIOS2_STATUS_PIE_MSK);
  
  NIOS2_WRITE_STATUS (status);
#else
  NIOS2_WRITE_STATUS (context);
  802a30:	e0bff617 	ldw	r2,-40(fp)
  802a34:	1001703a 	wrctl	status,r2
        OS_EXIT_CRITICAL();
        ptcb->OSTCBStkPtr        = ptos;                   /* Load Stack pointer in TCB                */
  802a38:	e0fff917 	ldw	r3,-28(fp)
  802a3c:	e0bffb17 	ldw	r2,-20(fp)
  802a40:	18800015 	stw	r2,0(r3)
        ptcb->OSTCBPrio          = prio;                   /* Load task priority into TCB              */
  802a44:	e0fff917 	ldw	r3,-28(fp)
  802a48:	e0bffa03 	ldbu	r2,-24(fp)
  802a4c:	18800c85 	stb	r2,50(r3)
        ptcb->OSTCBStat          = OS_STAT_RDY;            /* Task is ready to run                     */
  802a50:	e0bff917 	ldw	r2,-28(fp)
  802a54:	10000c05 	stb	zero,48(r2)
        ptcb->OSTCBStatPend      = OS_STAT_PEND_OK;        /* Clear pend status                        */
  802a58:	e0bff917 	ldw	r2,-28(fp)
  802a5c:	10000c45 	stb	zero,49(r2)
        ptcb->OSTCBDly           = 0;                      /* Task is not delayed                      */
  802a60:	e0bff917 	ldw	r2,-28(fp)
  802a64:	10000b8d 	sth	zero,46(r2)

#if OS_TASK_CREATE_EXT_EN > 0
        ptcb->OSTCBExtPtr        = pext;                   /* Store pointer to TCB extension           */
  802a68:	e0fff917 	ldw	r3,-28(fp)
  802a6c:	e0800317 	ldw	r2,12(fp)
  802a70:	18800115 	stw	r2,4(r3)
        ptcb->OSTCBStkSize       = stk_size;               /* Store stack size                         */
  802a74:	e0fff917 	ldw	r3,-28(fp)
  802a78:	e0800217 	ldw	r2,8(fp)
  802a7c:	18800315 	stw	r2,12(r3)
        ptcb->OSTCBStkBottom     = pbos;                   /* Store pointer to bottom of stack         */
  802a80:	e0fff917 	ldw	r3,-28(fp)
  802a84:	e0bffc17 	ldw	r2,-16(fp)
  802a88:	18800215 	stw	r2,8(r3)
        ptcb->OSTCBOpt           = opt;                    /* Store task options                       */
  802a8c:	e0fff917 	ldw	r3,-28(fp)
  802a90:	e0bffe0b 	ldhu	r2,-8(fp)
  802a94:	1880040d 	sth	r2,16(r3)
        ptcb->OSTCBId            = id;                     /* Store task ID                            */
  802a98:	e0fff917 	ldw	r3,-28(fp)
  802a9c:	e0bffd0b 	ldhu	r2,-12(fp)
  802aa0:	1880048d 	sth	r2,18(r3)
        opt                      = opt;
        id                       = id;
#endif

#if OS_TASK_DEL_EN > 0
        ptcb->OSTCBDelReq        = OS_ERR_NONE;
  802aa4:	e0bff917 	ldw	r2,-28(fp)
  802aa8:	10000dc5 	stb	zero,55(r2)
#endif

#if OS_LOWEST_PRIO <= 63
        ptcb->OSTCBY             = (INT8U)(prio >> 3);          /* Pre-compute X, Y, BitX and BitY     */
  802aac:	e0bffa03 	ldbu	r2,-24(fp)
  802ab0:	1004d0fa 	srli	r2,r2,3
  802ab4:	1007883a 	mov	r3,r2
  802ab8:	e0bff917 	ldw	r2,-28(fp)
  802abc:	10c00d05 	stb	r3,52(r2)
        ptcb->OSTCBX             = (INT8U)(prio & 0x07);
  802ac0:	e0bffa03 	ldbu	r2,-24(fp)
  802ac4:	108001cc 	andi	r2,r2,7
  802ac8:	1007883a 	mov	r3,r2
  802acc:	e0bff917 	ldw	r2,-28(fp)
  802ad0:	10c00cc5 	stb	r3,51(r2)
        ptcb->OSTCBBitY          = (INT8U)(1 << ptcb->OSTCBY);
  802ad4:	e0bff917 	ldw	r2,-28(fp)
  802ad8:	10800d03 	ldbu	r2,52(r2)
  802adc:	10c03fcc 	andi	r3,r2,255
  802ae0:	00800044 	movi	r2,1
  802ae4:	10c4983a 	sll	r2,r2,r3
  802ae8:	1007883a 	mov	r3,r2
  802aec:	e0bff917 	ldw	r2,-28(fp)
  802af0:	10c00d85 	stb	r3,54(r2)
        ptcb->OSTCBBitX          = (INT8U)(1 << ptcb->OSTCBX);
  802af4:	e0bff917 	ldw	r2,-28(fp)
  802af8:	10800cc3 	ldbu	r2,51(r2)
  802afc:	10c03fcc 	andi	r3,r2,255
  802b00:	00800044 	movi	r2,1
  802b04:	10c4983a 	sll	r2,r2,r3
  802b08:	1007883a 	mov	r3,r2
  802b0c:	e0bff917 	ldw	r2,-28(fp)
  802b10:	10c00d45 	stb	r3,53(r2)
        ptcb->OSTCBBitY          = (INT16U)(1 << ptcb->OSTCBY);
        ptcb->OSTCBBitX          = (INT16U)(1 << ptcb->OSTCBX);
#endif

#if (OS_EVENT_EN)
        ptcb->OSTCBEventPtr      = (OS_EVENT  *)0;         /* Task is not pending on an  event         */
  802b14:	e0bff917 	ldw	r2,-28(fp)
  802b18:	10000715 	stw	zero,28(r2)
#if (OS_EVENT_MULTI_EN > 0)
        ptcb->OSTCBEventMultiPtr = (OS_EVENT **)0;         /* Task is not pending on any events        */
  802b1c:	e0bff917 	ldw	r2,-28(fp)
  802b20:	10000815 	stw	zero,32(r2)
#endif
#endif

#if (OS_FLAG_EN > 0) && (OS_MAX_FLAGS > 0) && (OS_TASK_DEL_EN > 0)
        ptcb->OSTCBFlagNode  = (OS_FLAG_NODE *)0;          /* Task is not pending on an event flag     */
  802b24:	e0bff917 	ldw	r2,-28(fp)
  802b28:	10000a15 	stw	zero,40(r2)
#endif

#if (OS_MBOX_EN > 0) || ((OS_Q_EN > 0) && (OS_MAX_QS > 0))
        ptcb->OSTCBMsg       = (void *)0;                  /* No message received                      */
  802b2c:	e0bff917 	ldw	r2,-28(fp)
  802b30:	10000915 	stw	zero,36(r2)
#endif

#if OS_TASK_PROFILE_EN > 0
        ptcb->OSTCBCtxSwCtr    = 0L;                       /* Initialize profiling variables           */
  802b34:	e0bff917 	ldw	r2,-28(fp)
  802b38:	10000e15 	stw	zero,56(r2)
        ptcb->OSTCBCyclesStart = 0L;
  802b3c:	e0bff917 	ldw	r2,-28(fp)
  802b40:	10001015 	stw	zero,64(r2)
        ptcb->OSTCBCyclesTot   = 0L;
  802b44:	e0bff917 	ldw	r2,-28(fp)
  802b48:	10000f15 	stw	zero,60(r2)
        ptcb->OSTCBStkBase     = (OS_STK *)0;
  802b4c:	e0bff917 	ldw	r2,-28(fp)
  802b50:	10001115 	stw	zero,68(r2)
        ptcb->OSTCBStkUsed     = 0L;
  802b54:	e0bff917 	ldw	r2,-28(fp)
  802b58:	10001215 	stw	zero,72(r2)
#endif

#if OS_TASK_NAME_SIZE > 1
        ptcb->OSTCBTaskName[0] = '?';                      /* Unknown name at task creation            */
  802b5c:	e0fff917 	ldw	r3,-28(fp)
  802b60:	00800fc4 	movi	r2,63
  802b64:	18801305 	stb	r2,76(r3)
        ptcb->OSTCBTaskName[1] = OS_ASCII_NUL;
  802b68:	e0bff917 	ldw	r2,-28(fp)
  802b6c:	10001345 	stb	zero,77(r2)
#endif

        OSTCBInitHook(ptcb);
  802b70:	e13ff917 	ldw	r4,-28(fp)
  802b74:	080b65c0 	call	80b65c <OSTCBInitHook>

        OSTaskCreateHook(ptcb);                            /* Call user defined hook                   */
  802b78:	e13ff917 	ldw	r4,-28(fp)
  802b7c:	080b5740 	call	80b574 <OSTaskCreateHook>
static ALT_INLINE alt_irq_context ALT_ALWAYS_INLINE 
       alt_irq_disable_all (void)
{
  alt_irq_context context;

  NIOS2_READ_STATUS (context);
  802b80:	0005303a 	rdctl	r2,status
  802b84:	e0bff515 	stw	r2,-44(fp)

  NIOS2_WRITE_STATUS (context & ~NIOS2_STATUS_PIE_MSK);
  802b88:	e0fff517 	ldw	r3,-44(fp)
  802b8c:	00bfff84 	movi	r2,-2
  802b90:	1884703a 	and	r2,r3,r2
  802b94:	1001703a 	wrctl	status,r2
  
  return context;
  802b98:	e0bff517 	ldw	r2,-44(fp)

        OS_ENTER_CRITICAL();
  802b9c:	e0bff815 	stw	r2,-32(fp)
        OSTCBPrioTbl[prio] = ptcb;
  802ba0:	e0bffa03 	ldbu	r2,-24(fp)
  802ba4:	00c020b4 	movhi	r3,130
  802ba8:	18ebe104 	addi	r3,r3,-20604
  802bac:	1085883a 	add	r2,r2,r2
  802bb0:	1085883a 	add	r2,r2,r2
  802bb4:	10c7883a 	add	r3,r2,r3
  802bb8:	e0bff917 	ldw	r2,-28(fp)
  802bbc:	18800015 	stw	r2,0(r3)
        ptcb->OSTCBNext    = OSTCBList;                    /* Link into TCB chain                      */
  802bc0:	d0e6f817 	ldw	r3,-25632(gp)
  802bc4:	e0bff917 	ldw	r2,-28(fp)
  802bc8:	10c00515 	stw	r3,20(r2)
        ptcb->OSTCBPrev    = (OS_TCB *)0;
  802bcc:	e0bff917 	ldw	r2,-28(fp)
  802bd0:	10000615 	stw	zero,24(r2)
        if (OSTCBList != (OS_TCB *)0) {
  802bd4:	d0a6f817 	ldw	r2,-25632(gp)
  802bd8:	1005003a 	cmpeq	r2,r2,zero
  802bdc:	1000031e 	bne	r2,zero,802bec <OS_TCBInit+0x230>
            OSTCBList->OSTCBPrev = ptcb;
  802be0:	d0e6f817 	ldw	r3,-25632(gp)
  802be4:	e0bff917 	ldw	r2,-28(fp)
  802be8:	18800615 	stw	r2,24(r3)
        }
        OSTCBList               = ptcb;
  802bec:	e0bff917 	ldw	r2,-28(fp)
  802bf0:	d0a6f815 	stw	r2,-25632(gp)
        OSRdyGrp               |= ptcb->OSTCBBitY;         /* Make task ready to run                   */
  802bf4:	e0bff917 	ldw	r2,-28(fp)
  802bf8:	10c00d83 	ldbu	r3,54(r2)
  802bfc:	d0a70103 	ldbu	r2,-25596(gp)
  802c00:	1884b03a 	or	r2,r3,r2
  802c04:	d0a70105 	stb	r2,-25596(gp)
        OSRdyTbl[ptcb->OSTCBY] |= ptcb->OSTCBBitX;
  802c08:	e0bff917 	ldw	r2,-28(fp)
  802c0c:	10800d03 	ldbu	r2,52(r2)
  802c10:	11003fcc 	andi	r4,r2,255
  802c14:	e0bff917 	ldw	r2,-28(fp)
  802c18:	10800d03 	ldbu	r2,52(r2)
  802c1c:	10c03fcc 	andi	r3,r2,255
  802c20:	d0a70144 	addi	r2,gp,-25595
  802c24:	1885883a 	add	r2,r3,r2
  802c28:	10c00003 	ldbu	r3,0(r2)
  802c2c:	e0bff917 	ldw	r2,-28(fp)
  802c30:	10800d43 	ldbu	r2,53(r2)
  802c34:	1884b03a 	or	r2,r3,r2
  802c38:	1007883a 	mov	r3,r2
  802c3c:	d0a70144 	addi	r2,gp,-25595
  802c40:	2085883a 	add	r2,r4,r2
  802c44:	10c00005 	stb	r3,0(r2)
        OSTaskCtr++;                                       /* Increment the #tasks counter             */
  802c48:	d0a6fd43 	ldbu	r2,-25611(gp)
  802c4c:	10800044 	addi	r2,r2,1
  802c50:	d0a6fd45 	stb	r2,-25611(gp)
  802c54:	e0bff817 	ldw	r2,-32(fp)
  802c58:	e0bff415 	stw	r2,-48(fp)
  status &= ~NIOS2_STATUS_PIE_MSK;
  status |= (context & NIOS2_STATUS_PIE_MSK);
  
  NIOS2_WRITE_STATUS (status);
#else
  NIOS2_WRITE_STATUS (context);
  802c5c:	e0bff417 	ldw	r2,-48(fp)
  802c60:	1001703a 	wrctl	status,r2
        OS_EXIT_CRITICAL();
        return (OS_ERR_NONE);
  802c64:	e03fff15 	stw	zero,-4(fp)
  802c68:	00000606 	br	802c84 <OS_TCBInit+0x2c8>
  802c6c:	e0bff817 	ldw	r2,-32(fp)
  802c70:	e0bff315 	stw	r2,-52(fp)
  802c74:	e0bff317 	ldw	r2,-52(fp)
  802c78:	1001703a 	wrctl	status,r2
    }
    OS_EXIT_CRITICAL();
    return (OS_ERR_TASK_NO_MORE_TCB);
  802c7c:	00801084 	movi	r2,66
  802c80:	e0bfff15 	stw	r2,-4(fp)
  802c84:	e0bfff17 	ldw	r2,-4(fp)
}
  802c88:	e037883a 	mov	sp,fp
  802c8c:	dfc00117 	ldw	ra,4(sp)
  802c90:	df000017 	ldw	fp,0(sp)
  802c94:	dec00204 	addi	sp,sp,8
  802c98:	f800283a 	ret

00802c9c <OSDebugInit>:
*********************************************************************************************************
*/

#if OS_DEBUG_EN > 0
void  OSDebugInit (void)
{
  802c9c:	defffe04 	addi	sp,sp,-8
  802ca0:	df000115 	stw	fp,4(sp)
  802ca4:	df000104 	addi	fp,sp,4
    void  *ptemp;

    
    ptemp = (void *)&OSDebugEn;
  802ca8:	d0a00204 	addi	r2,gp,-32760
  802cac:	e0bfff15 	stw	r2,-4(fp)

    ptemp = (void *)&OSEndiannessTest;
  802cb0:	d0a00304 	addi	r2,gp,-32756
  802cb4:	e0bfff15 	stw	r2,-4(fp)

    ptemp = (void *)&OSEventMax;
  802cb8:	d0a00484 	addi	r2,gp,-32750
  802cbc:	e0bfff15 	stw	r2,-4(fp)
    ptemp = (void *)&OSEventNameSize;
  802cc0:	d0a00504 	addi	r2,gp,-32748
  802cc4:	e0bfff15 	stw	r2,-4(fp)
    ptemp = (void *)&OSEventEn;
  802cc8:	d0a00404 	addi	r2,gp,-32752
  802ccc:	e0bfff15 	stw	r2,-4(fp)
    ptemp = (void *)&OSEventSize;
  802cd0:	d0a00584 	addi	r2,gp,-32746
  802cd4:	e0bfff15 	stw	r2,-4(fp)
    ptemp = (void *)&OSEventTblSize;
  802cd8:	d0a00604 	addi	r2,gp,-32744
  802cdc:	e0bfff15 	stw	r2,-4(fp)
    ptemp = (void *)&OSEventMultiEn;
  802ce0:	d0a00684 	addi	r2,gp,-32742
  802ce4:	e0bfff15 	stw	r2,-4(fp)

    ptemp = (void *)&OSFlagEn;
  802ce8:	d0a00704 	addi	r2,gp,-32740
  802cec:	e0bfff15 	stw	r2,-4(fp)
    ptemp = (void *)&OSFlagGrpSize;
  802cf0:	d0a00784 	addi	r2,gp,-32738
  802cf4:	e0bfff15 	stw	r2,-4(fp)
    ptemp = (void *)&OSFlagNodeSize;
  802cf8:	d0a00804 	addi	r2,gp,-32736
  802cfc:	e0bfff15 	stw	r2,-4(fp)
    ptemp = (void *)&OSFlagWidth;
  802d00:	d0a00884 	addi	r2,gp,-32734
  802d04:	e0bfff15 	stw	r2,-4(fp)
    ptemp = (void *)&OSFlagMax;
  802d08:	d0a00904 	addi	r2,gp,-32732
  802d0c:	e0bfff15 	stw	r2,-4(fp)
    ptemp = (void *)&OSFlagNameSize;
  802d10:	d0a00984 	addi	r2,gp,-32730
  802d14:	e0bfff15 	stw	r2,-4(fp)

    ptemp = (void *)&OSLowestPrio;
  802d18:	d0a00a04 	addi	r2,gp,-32728
  802d1c:	e0bfff15 	stw	r2,-4(fp)

    ptemp = (void *)&OSMboxEn;
  802d20:	d0a00a84 	addi	r2,gp,-32726
  802d24:	e0bfff15 	stw	r2,-4(fp)

    ptemp = (void *)&OSMemEn;
  802d28:	d0a00b04 	addi	r2,gp,-32724
  802d2c:	e0bfff15 	stw	r2,-4(fp)
    ptemp = (void *)&OSMemMax;
  802d30:	d0a00b84 	addi	r2,gp,-32722
  802d34:	e0bfff15 	stw	r2,-4(fp)
    ptemp = (void *)&OSMemNameSize;
  802d38:	d0a00c04 	addi	r2,gp,-32720
  802d3c:	e0bfff15 	stw	r2,-4(fp)
    ptemp = (void *)&OSMemSize;
  802d40:	d0a00c84 	addi	r2,gp,-32718
  802d44:	e0bfff15 	stw	r2,-4(fp)
    ptemp = (void *)&OSMemTblSize;
  802d48:	d0a00d04 	addi	r2,gp,-32716
  802d4c:	e0bfff15 	stw	r2,-4(fp)

    ptemp = (void *)&OSMutexEn;
  802d50:	d0a00d84 	addi	r2,gp,-32714
  802d54:	e0bfff15 	stw	r2,-4(fp)

    ptemp = (void *)&OSPtrSize;
  802d58:	d0a00e04 	addi	r2,gp,-32712
  802d5c:	e0bfff15 	stw	r2,-4(fp)

    ptemp = (void *)&OSQEn;
  802d60:	d0a00e84 	addi	r2,gp,-32710
  802d64:	e0bfff15 	stw	r2,-4(fp)
    ptemp = (void *)&OSQMax;
  802d68:	d0a00f04 	addi	r2,gp,-32708
  802d6c:	e0bfff15 	stw	r2,-4(fp)
    ptemp = (void *)&OSQSize;
  802d70:	d0a00f84 	addi	r2,gp,-32706
  802d74:	e0bfff15 	stw	r2,-4(fp)

    ptemp = (void *)&OSRdyTblSize;
  802d78:	d0a01004 	addi	r2,gp,-32704
  802d7c:	e0bfff15 	stw	r2,-4(fp)

    ptemp = (void *)&OSSemEn;
  802d80:	d0a01084 	addi	r2,gp,-32702
  802d84:	e0bfff15 	stw	r2,-4(fp)

    ptemp = (void *)&OSStkWidth;
  802d88:	d0a01104 	addi	r2,gp,-32700
  802d8c:	e0bfff15 	stw	r2,-4(fp)

    ptemp = (void *)&OSTaskCreateEn;
  802d90:	d0a01184 	addi	r2,gp,-32698
  802d94:	e0bfff15 	stw	r2,-4(fp)
    ptemp = (void *)&OSTaskCreateExtEn;
  802d98:	d0a01204 	addi	r2,gp,-32696
  802d9c:	e0bfff15 	stw	r2,-4(fp)
    ptemp = (void *)&OSTaskDelEn;
  802da0:	d0a01284 	addi	r2,gp,-32694
  802da4:	e0bfff15 	stw	r2,-4(fp)
    ptemp = (void *)&OSTaskIdleStkSize;
  802da8:	d0a01304 	addi	r2,gp,-32692
  802dac:	e0bfff15 	stw	r2,-4(fp)
    ptemp = (void *)&OSTaskProfileEn;
  802db0:	d0a01384 	addi	r2,gp,-32690
  802db4:	e0bfff15 	stw	r2,-4(fp)
    ptemp = (void *)&OSTaskMax;
  802db8:	d0a01404 	addi	r2,gp,-32688
  802dbc:	e0bfff15 	stw	r2,-4(fp)
    ptemp = (void *)&OSTaskNameSize;
  802dc0:	d0a01484 	addi	r2,gp,-32686
  802dc4:	e0bfff15 	stw	r2,-4(fp)
    ptemp = (void *)&OSTaskStatEn;
  802dc8:	d0a01504 	addi	r2,gp,-32684
  802dcc:	e0bfff15 	stw	r2,-4(fp)
    ptemp = (void *)&OSTaskStatStkSize;
  802dd0:	d0a01584 	addi	r2,gp,-32682
  802dd4:	e0bfff15 	stw	r2,-4(fp)
    ptemp = (void *)&OSTaskStatStkChkEn;
  802dd8:	d0a01604 	addi	r2,gp,-32680
  802ddc:	e0bfff15 	stw	r2,-4(fp)
    ptemp = (void *)&OSTaskSwHookEn;
  802de0:	d0a01684 	addi	r2,gp,-32678
  802de4:	e0bfff15 	stw	r2,-4(fp)

    ptemp = (void *)&OSTCBPrioTblMax;
  802de8:	d0a01704 	addi	r2,gp,-32676
  802dec:	e0bfff15 	stw	r2,-4(fp)
    ptemp = (void *)&OSTCBSize;
  802df0:	d0a01784 	addi	r2,gp,-32674
  802df4:	e0bfff15 	stw	r2,-4(fp)

    ptemp = (void *)&OSTicksPerSec;
  802df8:	d0a01804 	addi	r2,gp,-32672
  802dfc:	e0bfff15 	stw	r2,-4(fp)
    ptemp = (void *)&OSTimeTickHookEn;
  802e00:	d0a01884 	addi	r2,gp,-32670
  802e04:	e0bfff15 	stw	r2,-4(fp)

    ptemp = (void *)&OSTmrWheelSize;
    ptemp = (void *)&OSTmrWheelTblSize;
#endif

    ptemp = (void *)&OSVersionNbr;
  802e08:	d0a01904 	addi	r2,gp,-32668
  802e0c:	e0bfff15 	stw	r2,-4(fp)

    ptemp = (void *)&OSDataSize;
  802e10:	d0a01e04 	addi	r2,gp,-32648
  802e14:	e0bfff15 	stw	r2,-4(fp)

    ptemp = ptemp;                             /* Prevent compiler warning for 'ptemp' not being used! */
}
  802e18:	e037883a 	mov	sp,fp
  802e1c:	df000017 	ldw	fp,0(sp)
  802e20:	dec00104 	addi	sp,sp,4
  802e24:	f800283a 	ret

00802e28 <OSFlagAccept>:
*********************************************************************************************************
*/

#if OS_FLAG_ACCEPT_EN > 0
OS_FLAGS  OSFlagAccept (OS_FLAG_GRP *pgrp, OS_FLAGS flags, INT8U wait_type, INT8U *perr)
{
  802e28:	defff104 	addi	sp,sp,-60
  802e2c:	df000e15 	stw	fp,56(sp)
  802e30:	df000e04 	addi	fp,sp,56
  802e34:	e13ffa15 	stw	r4,-24(fp)
  802e38:	e1fffd15 	stw	r7,-12(fp)
  802e3c:	e17ffb0d 	sth	r5,-20(fp)
  802e40:	e1bffc05 	stb	r6,-16(fp)
    OS_FLAGS      flags_rdy;
    INT8U         result;
    BOOLEAN       consume;
#if OS_CRITICAL_METHOD == 3                                /* Allocate storage for CPU status register */
    OS_CPU_SR     cpu_sr = 0;
  802e44:	e03ff815 	stw	zero,-32(fp)
#endif



#if OS_ARG_CHK_EN > 0
    if (perr == (INT8U *)0) {                              /* Validate 'perr'                          */
  802e48:	e0bffd17 	ldw	r2,-12(fp)
  802e4c:	1004c03a 	cmpne	r2,r2,zero
  802e50:	1000021e 	bne	r2,zero,802e5c <OSFlagAccept+0x34>
        return ((OS_FLAGS)0);
  802e54:	e03fff15 	stw	zero,-4(fp)
  802e58:	0000bb06 	br	803148 <OSFlagAccept+0x320>
    }
    if (pgrp == (OS_FLAG_GRP *)0) {                        /* Validate 'pgrp'                          */
  802e5c:	e0bffa17 	ldw	r2,-24(fp)
  802e60:	1004c03a 	cmpne	r2,r2,zero
  802e64:	1000051e 	bne	r2,zero,802e7c <OSFlagAccept+0x54>
        *perr = OS_ERR_FLAG_INVALID_PGRP;
  802e68:	e0fffd17 	ldw	r3,-12(fp)
  802e6c:	00801b84 	movi	r2,110
  802e70:	18800005 	stb	r2,0(r3)
        return ((OS_FLAGS)0);
  802e74:	e03fff15 	stw	zero,-4(fp)
  802e78:	0000b306 	br	803148 <OSFlagAccept+0x320>
    }
#endif
    if (pgrp->OSFlagType != OS_EVENT_TYPE_FLAG) {          /* Validate event block type                */
  802e7c:	e0bffa17 	ldw	r2,-24(fp)
  802e80:	10800003 	ldbu	r2,0(r2)
  802e84:	10803fcc 	andi	r2,r2,255
  802e88:	10800160 	cmpeqi	r2,r2,5
  802e8c:	1000051e 	bne	r2,zero,802ea4 <OSFlagAccept+0x7c>
        *perr = OS_ERR_EVENT_TYPE;
  802e90:	e0fffd17 	ldw	r3,-12(fp)
  802e94:	00800044 	movi	r2,1
  802e98:	18800005 	stb	r2,0(r3)
        return ((OS_FLAGS)0);
  802e9c:	e03fff15 	stw	zero,-4(fp)
  802ea0:	0000a906 	br	803148 <OSFlagAccept+0x320>
    }
    result = (INT8U)(wait_type & OS_FLAG_CONSUME);
  802ea4:	e0fffc03 	ldbu	r3,-16(fp)
  802ea8:	00bfe004 	movi	r2,-128
  802eac:	1884703a 	and	r2,r3,r2
  802eb0:	e0bff945 	stb	r2,-27(fp)
    if (result != (INT8U)0) {                              /* See if we need to consume the flags      */
  802eb4:	e0bff943 	ldbu	r2,-27(fp)
  802eb8:	1005003a 	cmpeq	r2,r2,zero
  802ebc:	1000061e 	bne	r2,zero,802ed8 <OSFlagAccept+0xb0>
        wait_type &= ~OS_FLAG_CONSUME;
  802ec0:	e0bffc03 	ldbu	r2,-16(fp)
  802ec4:	10801fcc 	andi	r2,r2,127
  802ec8:	e0bffc05 	stb	r2,-16(fp)
        consume    = OS_TRUE;
  802ecc:	00800044 	movi	r2,1
  802ed0:	e0bff905 	stb	r2,-28(fp)
  802ed4:	00000106 	br	802edc <OSFlagAccept+0xb4>
    } else {
        consume    = OS_FALSE;
  802ed8:	e03ff905 	stb	zero,-28(fp)
    }
/*$PAGE*/
    *perr = OS_ERR_NONE;                                   /* Assume NO error until proven otherwise.  */
  802edc:	e0bffd17 	ldw	r2,-12(fp)
  802ee0:	10000005 	stb	zero,0(r2)
static ALT_INLINE alt_irq_context ALT_ALWAYS_INLINE 
       alt_irq_disable_all (void)
{
  alt_irq_context context;

  NIOS2_READ_STATUS (context);
  802ee4:	0005303a 	rdctl	r2,status
  802ee8:	e0bff715 	stw	r2,-36(fp)

  NIOS2_WRITE_STATUS (context & ~NIOS2_STATUS_PIE_MSK);
  802eec:	e0fff717 	ldw	r3,-36(fp)
  802ef0:	00bfff84 	movi	r2,-2
  802ef4:	1884703a 	and	r2,r3,r2
  802ef8:	1001703a 	wrctl	status,r2
  
  return context;
  802efc:	e0bff717 	ldw	r2,-36(fp)
    OS_ENTER_CRITICAL();
  802f00:	e0bff815 	stw	r2,-32(fp)
    switch (wait_type) {
  802f04:	e0bffc03 	ldbu	r2,-16(fp)
  802f08:	e0bffe15 	stw	r2,-8(fp)
  802f0c:	e0fffe17 	ldw	r3,-8(fp)
  802f10:	18800060 	cmpeqi	r2,r3,1
  802f14:	1000651e 	bne	r2,zero,8030ac <OSFlagAccept+0x284>
  802f18:	e0fffe17 	ldw	r3,-8(fp)
  802f1c:	18800088 	cmpgei	r2,r3,2
  802f20:	1000041e 	bne	r2,zero,802f34 <OSFlagAccept+0x10c>
  802f24:	e0fffe17 	ldw	r3,-8(fp)
  802f28:	1805003a 	cmpeq	r2,r3,zero
  802f2c:	1000421e 	bne	r2,zero,803038 <OSFlagAccept+0x210>
  802f30:	00007b06 	br	803120 <OSFlagAccept+0x2f8>
  802f34:	e0fffe17 	ldw	r3,-8(fp)
  802f38:	188000a0 	cmpeqi	r2,r3,2
  802f3c:	1000041e 	bne	r2,zero,802f50 <OSFlagAccept+0x128>
  802f40:	e0fffe17 	ldw	r3,-8(fp)
  802f44:	188000e0 	cmpeqi	r2,r3,3
  802f48:	10001e1e 	bne	r2,zero,802fc4 <OSFlagAccept+0x19c>
  802f4c:	00007406 	br	803120 <OSFlagAccept+0x2f8>
        case OS_FLAG_WAIT_SET_ALL:                         /* See if all required flags are set        */
             flags_rdy = (OS_FLAGS)(pgrp->OSFlagFlags & flags);     /* Extract only the bits we want   */
  802f50:	e0bffa17 	ldw	r2,-24(fp)
  802f54:	10c0020b 	ldhu	r3,8(r2)
  802f58:	e0bffb0b 	ldhu	r2,-20(fp)
  802f5c:	1884703a 	and	r2,r3,r2
  802f60:	e0bff98d 	sth	r2,-26(fp)
             if (flags_rdy == flags) {                     /* Must match ALL the bits that we want     */
  802f64:	e0fff98b 	ldhu	r3,-26(fp)
  802f68:	e0bffb0b 	ldhu	r2,-20(fp)
  802f6c:	18800d1e 	bne	r3,r2,802fa4 <OSFlagAccept+0x17c>
                 if (consume == OS_TRUE) {                 /* See if we need to consume the flags      */
  802f70:	e0bff903 	ldbu	r2,-28(fp)
  802f74:	10800058 	cmpnei	r2,r2,1
  802f78:	10000d1e 	bne	r2,zero,802fb0 <OSFlagAccept+0x188>
                     pgrp->OSFlagFlags &= ~flags_rdy;      /* Clear ONLY the flags that we wanted      */
  802f7c:	e0bffa17 	ldw	r2,-24(fp)
  802f80:	1080020b 	ldhu	r2,8(r2)
  802f84:	1007883a 	mov	r3,r2
  802f88:	e0bff98b 	ldhu	r2,-26(fp)
  802f8c:	0084303a 	nor	r2,zero,r2
  802f90:	1884703a 	and	r2,r3,r2
  802f94:	1007883a 	mov	r3,r2
  802f98:	e0bffa17 	ldw	r2,-24(fp)
  802f9c:	10c0020d 	sth	r3,8(r2)
  802fa0:	00000306 	br	802fb0 <OSFlagAccept+0x188>
                 }
             } else {
                 *perr = OS_ERR_FLAG_NOT_RDY;
  802fa4:	e0fffd17 	ldw	r3,-12(fp)
  802fa8:	00801c04 	movi	r2,112
  802fac:	18800005 	stb	r2,0(r3)
  802fb0:	e0bff817 	ldw	r2,-32(fp)
  802fb4:	e0bff615 	stw	r2,-40(fp)
  status &= ~NIOS2_STATUS_PIE_MSK;
  status |= (context & NIOS2_STATUS_PIE_MSK);
  
  NIOS2_WRITE_STATUS (status);
#else
  NIOS2_WRITE_STATUS (context);
  802fb8:	e0bff617 	ldw	r2,-40(fp)
  802fbc:	1001703a 	wrctl	status,r2
             }
             OS_EXIT_CRITICAL();
             break;
  802fc0:	00005f06 	br	803140 <OSFlagAccept+0x318>

        case OS_FLAG_WAIT_SET_ANY:
             flags_rdy = (OS_FLAGS)(pgrp->OSFlagFlags & flags);     /* Extract only the bits we want   */
  802fc4:	e0bffa17 	ldw	r2,-24(fp)
  802fc8:	10c0020b 	ldhu	r3,8(r2)
  802fcc:	e0bffb0b 	ldhu	r2,-20(fp)
  802fd0:	1884703a 	and	r2,r3,r2
  802fd4:	e0bff98d 	sth	r2,-26(fp)
             if (flags_rdy != (OS_FLAGS)0) {               /* See if any flag set                      */
  802fd8:	e0bff98b 	ldhu	r2,-26(fp)
  802fdc:	1005003a 	cmpeq	r2,r2,zero
  802fe0:	10000d1e 	bne	r2,zero,803018 <OSFlagAccept+0x1f0>
                 if (consume == OS_TRUE) {                 /* See if we need to consume the flags      */
  802fe4:	e0bff903 	ldbu	r2,-28(fp)
  802fe8:	10800058 	cmpnei	r2,r2,1
  802fec:	10000d1e 	bne	r2,zero,803024 <OSFlagAccept+0x1fc>
                     pgrp->OSFlagFlags &= ~flags_rdy;      /* Clear ONLY the flags that we got         */
  802ff0:	e0bffa17 	ldw	r2,-24(fp)
  802ff4:	1080020b 	ldhu	r2,8(r2)
  802ff8:	1007883a 	mov	r3,r2
  802ffc:	e0bff98b 	ldhu	r2,-26(fp)
  803000:	0084303a 	nor	r2,zero,r2
  803004:	1884703a 	and	r2,r3,r2
  803008:	1007883a 	mov	r3,r2
  80300c:	e0bffa17 	ldw	r2,-24(fp)
  803010:	10c0020d 	sth	r3,8(r2)
  803014:	00000306 	br	803024 <OSFlagAccept+0x1fc>
                 }
             } else {
                 *perr = OS_ERR_FLAG_NOT_RDY;
  803018:	e0fffd17 	ldw	r3,-12(fp)
  80301c:	00801c04 	movi	r2,112
  803020:	18800005 	stb	r2,0(r3)
  803024:	e0bff817 	ldw	r2,-32(fp)
  803028:	e0bff515 	stw	r2,-44(fp)
  80302c:	e0bff517 	ldw	r2,-44(fp)
  803030:	1001703a 	wrctl	status,r2
             }
             OS_EXIT_CRITICAL();
             break;
  803034:	00004206 	br	803140 <OSFlagAccept+0x318>

#if OS_FLAG_WAIT_CLR_EN > 0
        case OS_FLAG_WAIT_CLR_ALL:                         /* See if all required flags are cleared    */
             flags_rdy = (OS_FLAGS)(~pgrp->OSFlagFlags & flags);  /* Extract only the bits we want     */
  803038:	e0bffa17 	ldw	r2,-24(fp)
  80303c:	1080020b 	ldhu	r2,8(r2)
  803040:	0084303a 	nor	r2,zero,r2
  803044:	1007883a 	mov	r3,r2
  803048:	e0bffb0b 	ldhu	r2,-20(fp)
  80304c:	1884703a 	and	r2,r3,r2
  803050:	e0bff98d 	sth	r2,-26(fp)
             if (flags_rdy == flags) {                     /* Must match ALL the bits that we want     */
  803054:	e0fff98b 	ldhu	r3,-26(fp)
  803058:	e0bffb0b 	ldhu	r2,-20(fp)
  80305c:	18800b1e 	bne	r3,r2,80308c <OSFlagAccept+0x264>
                 if (consume == OS_TRUE) {                 /* See if we need to consume the flags      */
  803060:	e0bff903 	ldbu	r2,-28(fp)
  803064:	10800058 	cmpnei	r2,r2,1
  803068:	10000b1e 	bne	r2,zero,803098 <OSFlagAccept+0x270>
                     pgrp->OSFlagFlags |= flags_rdy;       /* Set ONLY the flags that we wanted        */
  80306c:	e0bffa17 	ldw	r2,-24(fp)
  803070:	10c0020b 	ldhu	r3,8(r2)
  803074:	e0bff98b 	ldhu	r2,-26(fp)
  803078:	1884b03a 	or	r2,r3,r2
  80307c:	1007883a 	mov	r3,r2
  803080:	e0bffa17 	ldw	r2,-24(fp)
  803084:	10c0020d 	sth	r3,8(r2)
  803088:	00000306 	br	803098 <OSFlagAccept+0x270>
                 }
             } else {
                 *perr = OS_ERR_FLAG_NOT_RDY;
  80308c:	e0fffd17 	ldw	r3,-12(fp)
  803090:	00801c04 	movi	r2,112
  803094:	18800005 	stb	r2,0(r3)
  803098:	e0bff817 	ldw	r2,-32(fp)
  80309c:	e0bff415 	stw	r2,-48(fp)
  8030a0:	e0bff417 	ldw	r2,-48(fp)
  8030a4:	1001703a 	wrctl	status,r2
             }
             OS_EXIT_CRITICAL();
             break;
  8030a8:	00002506 	br	803140 <OSFlagAccept+0x318>

        case OS_FLAG_WAIT_CLR_ANY:
             flags_rdy = (OS_FLAGS)(~pgrp->OSFlagFlags & flags); /* Extract only the bits we want      */
  8030ac:	e0bffa17 	ldw	r2,-24(fp)
  8030b0:	1080020b 	ldhu	r2,8(r2)
  8030b4:	0084303a 	nor	r2,zero,r2
  8030b8:	1007883a 	mov	r3,r2
  8030bc:	e0bffb0b 	ldhu	r2,-20(fp)
  8030c0:	1884703a 	and	r2,r3,r2
  8030c4:	e0bff98d 	sth	r2,-26(fp)
             if (flags_rdy != (OS_FLAGS)0) {               /* See if any flag cleared                  */
  8030c8:	e0bff98b 	ldhu	r2,-26(fp)
  8030cc:	1005003a 	cmpeq	r2,r2,zero
  8030d0:	10000b1e 	bne	r2,zero,803100 <OSFlagAccept+0x2d8>
                 if (consume == OS_TRUE) {                 /* See if we need to consume the flags      */
  8030d4:	e0bff903 	ldbu	r2,-28(fp)
  8030d8:	10800058 	cmpnei	r2,r2,1
  8030dc:	10000b1e 	bne	r2,zero,80310c <OSFlagAccept+0x2e4>
                     pgrp->OSFlagFlags |= flags_rdy;       /* Set ONLY the flags that we got           */
  8030e0:	e0bffa17 	ldw	r2,-24(fp)
  8030e4:	10c0020b 	ldhu	r3,8(r2)
  8030e8:	e0bff98b 	ldhu	r2,-26(fp)
  8030ec:	1884b03a 	or	r2,r3,r2
  8030f0:	1007883a 	mov	r3,r2
  8030f4:	e0bffa17 	ldw	r2,-24(fp)
  8030f8:	10c0020d 	sth	r3,8(r2)
  8030fc:	00000306 	br	80310c <OSFlagAccept+0x2e4>
                 }
             } else {
                 *perr = OS_ERR_FLAG_NOT_RDY;
  803100:	e0fffd17 	ldw	r3,-12(fp)
  803104:	00801c04 	movi	r2,112
  803108:	18800005 	stb	r2,0(r3)
  80310c:	e0bff817 	ldw	r2,-32(fp)
  803110:	e0bff315 	stw	r2,-52(fp)
  803114:	e0bff317 	ldw	r2,-52(fp)
  803118:	1001703a 	wrctl	status,r2
             }
             OS_EXIT_CRITICAL();
             break;
  80311c:	00000806 	br	803140 <OSFlagAccept+0x318>
  803120:	e0bff817 	ldw	r2,-32(fp)
  803124:	e0bff215 	stw	r2,-56(fp)
  803128:	e0bff217 	ldw	r2,-56(fp)
  80312c:	1001703a 	wrctl	status,r2
#endif

        default:
             OS_EXIT_CRITICAL();
             flags_rdy = (OS_FLAGS)0;
  803130:	e03ff98d 	sth	zero,-26(fp)
             *perr     = OS_ERR_FLAG_WAIT_TYPE;
  803134:	e0fffd17 	ldw	r3,-12(fp)
  803138:	00801bc4 	movi	r2,111
  80313c:	18800005 	stb	r2,0(r3)
             break;
    }
    return (flags_rdy);
  803140:	e0bff98b 	ldhu	r2,-26(fp)
  803144:	e0bfff15 	stw	r2,-4(fp)
  803148:	e0bfff17 	ldw	r2,-4(fp)
}
  80314c:	e037883a 	mov	sp,fp
  803150:	df000017 	ldw	fp,0(sp)
  803154:	dec00104 	addi	sp,sp,4
  803158:	f800283a 	ret

0080315c <OSFlagCreate>:
* Called from: Task ONLY
*********************************************************************************************************
*/

OS_FLAG_GRP  *OSFlagCreate (OS_FLAGS flags, INT8U *perr)
{
  80315c:	defff704 	addi	sp,sp,-36
  803160:	df000815 	stw	fp,32(sp)
  803164:	df000804 	addi	fp,sp,32
  803168:	e17ffe15 	stw	r5,-8(fp)
  80316c:	e13ffd0d 	sth	r4,-12(fp)
    OS_FLAG_GRP *pgrp;
#if OS_CRITICAL_METHOD == 3                         /* Allocate storage for CPU status register        */
    OS_CPU_SR    cpu_sr = 0;
  803170:	e03ffb15 	stw	zero,-20(fp)
#endif



#if OS_ARG_CHK_EN > 0
    if (perr == (INT8U *)0) {                       /* Validate 'perr'                                 */
  803174:	e0bffe17 	ldw	r2,-8(fp)
  803178:	1004c03a 	cmpne	r2,r2,zero
  80317c:	1000021e 	bne	r2,zero,803188 <OSFlagCreate+0x2c>
        return ((OS_FLAG_GRP *)0);
  803180:	e03fff15 	stw	zero,-4(fp)
  803184:	00003f06 	br	803284 <OSFlagCreate+0x128>
    }
#endif
    if (OSIntNesting > 0) {                         /* See if called from ISR ...                      */
  803188:	00802074 	movhi	r2,129
  80318c:	10875504 	addi	r2,r2,7508
  803190:	10800003 	ldbu	r2,0(r2)
  803194:	10803fcc 	andi	r2,r2,255
  803198:	1005003a 	cmpeq	r2,r2,zero
  80319c:	1000051e 	bne	r2,zero,8031b4 <OSFlagCreate+0x58>
        *perr = OS_ERR_CREATE_ISR;                  /* ... can't CREATE from an ISR                    */
  8031a0:	e0fffe17 	ldw	r3,-8(fp)
  8031a4:	00800404 	movi	r2,16
  8031a8:	18800005 	stb	r2,0(r3)
        return ((OS_FLAG_GRP *)0);
  8031ac:	e03fff15 	stw	zero,-4(fp)
  8031b0:	00003406 	br	803284 <OSFlagCreate+0x128>
static ALT_INLINE alt_irq_context ALT_ALWAYS_INLINE 
       alt_irq_disable_all (void)
{
  alt_irq_context context;

  NIOS2_READ_STATUS (context);
  8031b4:	0005303a 	rdctl	r2,status
  8031b8:	e0bffa15 	stw	r2,-24(fp)

  NIOS2_WRITE_STATUS (context & ~NIOS2_STATUS_PIE_MSK);
  8031bc:	e0fffa17 	ldw	r3,-24(fp)
  8031c0:	00bfff84 	movi	r2,-2
  8031c4:	1884703a 	and	r2,r3,r2
  8031c8:	1001703a 	wrctl	status,r2
  
  return context;
  8031cc:	e0bffa17 	ldw	r2,-24(fp)
    }
    OS_ENTER_CRITICAL();
  8031d0:	e0bffb15 	stw	r2,-20(fp)
    pgrp = OSFlagFreeList;                          /* Get next free event flag                        */
  8031d4:	00802074 	movhi	r2,129
  8031d8:	10875804 	addi	r2,r2,7520
  8031dc:	10800017 	ldw	r2,0(r2)
  8031e0:	e0bffc15 	stw	r2,-16(fp)
    if (pgrp != (OS_FLAG_GRP *)0) {                 /* See if we have event flag groups available      */
  8031e4:	e0bffc17 	ldw	r2,-16(fp)
  8031e8:	1005003a 	cmpeq	r2,r2,zero
  8031ec:	10001c1e 	bne	r2,zero,803260 <OSFlagCreate+0x104>
                                                    /* Adjust free list                                */
        OSFlagFreeList       = (OS_FLAG_GRP *)OSFlagFreeList->OSFlagWaitList;
  8031f0:	00802074 	movhi	r2,129
  8031f4:	10875804 	addi	r2,r2,7520
  8031f8:	10800017 	ldw	r2,0(r2)
  8031fc:	10800117 	ldw	r2,4(r2)
  803200:	1007883a 	mov	r3,r2
  803204:	00802074 	movhi	r2,129
  803208:	10875804 	addi	r2,r2,7520
  80320c:	10c00015 	stw	r3,0(r2)
        pgrp->OSFlagType     = OS_EVENT_TYPE_FLAG;  /* Set to event flag group type                    */
  803210:	e0fffc17 	ldw	r3,-16(fp)
  803214:	00800144 	movi	r2,5
  803218:	18800005 	stb	r2,0(r3)
        pgrp->OSFlagFlags    = flags;               /* Set to desired initial value                    */
  80321c:	e0fffc17 	ldw	r3,-16(fp)
  803220:	e0bffd0b 	ldhu	r2,-12(fp)
  803224:	1880020d 	sth	r2,8(r3)
        pgrp->OSFlagWaitList = (void *)0;           /* Clear list of tasks waiting on flags            */
  803228:	e0bffc17 	ldw	r2,-16(fp)
  80322c:	10000115 	stw	zero,4(r2)
#if OS_FLAG_NAME_SIZE > 1
        pgrp->OSFlagName[0]  = '?';
  803230:	e0fffc17 	ldw	r3,-16(fp)
  803234:	00800fc4 	movi	r2,63
  803238:	18800285 	stb	r2,10(r3)
        pgrp->OSFlagName[1]  = OS_ASCII_NUL;
  80323c:	e0bffc17 	ldw	r2,-16(fp)
  803240:	100002c5 	stb	zero,11(r2)
  803244:	e0bffb17 	ldw	r2,-20(fp)
  803248:	e0bff915 	stw	r2,-28(fp)
  status &= ~NIOS2_STATUS_PIE_MSK;
  status |= (context & NIOS2_STATUS_PIE_MSK);
  
  NIOS2_WRITE_STATUS (status);
#else
  NIOS2_WRITE_STATUS (context);
  80324c:	e0bff917 	ldw	r2,-28(fp)
  803250:	1001703a 	wrctl	status,r2
#endif
        OS_EXIT_CRITICAL();
        *perr                = OS_ERR_NONE;
  803254:	e0bffe17 	ldw	r2,-8(fp)
  803258:	10000005 	stb	zero,0(r2)
  80325c:	00000706 	br	80327c <OSFlagCreate+0x120>
  803260:	e0bffb17 	ldw	r2,-20(fp)
  803264:	e0bff815 	stw	r2,-32(fp)
  803268:	e0bff817 	ldw	r2,-32(fp)
  80326c:	1001703a 	wrctl	status,r2
    } else {
        OS_EXIT_CRITICAL();
        *perr                = OS_ERR_FLAG_GRP_DEPLETED;
  803270:	e0fffe17 	ldw	r3,-8(fp)
  803274:	00801c84 	movi	r2,114
  803278:	18800005 	stb	r2,0(r3)
    }
    return (pgrp);                                  /* Return pointer to event flag group              */
  80327c:	e0bffc17 	ldw	r2,-16(fp)
  803280:	e0bfff15 	stw	r2,-4(fp)
  803284:	e0bfff17 	ldw	r2,-4(fp)
}
  803288:	e037883a 	mov	sp,fp
  80328c:	df000017 	ldw	fp,0(sp)
  803290:	dec00104 	addi	sp,sp,4
  803294:	f800283a 	ret

00803298 <OSFlagDel>:
*********************************************************************************************************
*/

#if OS_FLAG_DEL_EN > 0
OS_FLAG_GRP  *OSFlagDel (OS_FLAG_GRP *pgrp, INT8U opt, INT8U *perr)
{
  803298:	defff004 	addi	sp,sp,-64
  80329c:	dfc00f15 	stw	ra,60(sp)
  8032a0:	df000e15 	stw	fp,56(sp)
  8032a4:	df000e04 	addi	fp,sp,56
  8032a8:	e13ffb15 	stw	r4,-20(fp)
  8032ac:	e1bffd15 	stw	r6,-12(fp)
  8032b0:	e17ffc05 	stb	r5,-16(fp)
    BOOLEAN       tasks_waiting;
    OS_FLAG_NODE *pnode;
    OS_FLAG_GRP  *pgrp_return;
#if OS_CRITICAL_METHOD == 3                                /* Allocate storage for CPU status register */
    OS_CPU_SR     cpu_sr = 0;
  8032b4:	e03ff715 	stw	zero,-36(fp)
#endif



#if OS_ARG_CHK_EN > 0
    if (perr == (INT8U *)0) {                              /* Validate 'perr'                          */
  8032b8:	e0bffd17 	ldw	r2,-12(fp)
  8032bc:	1004c03a 	cmpne	r2,r2,zero
  8032c0:	1000031e 	bne	r2,zero,8032d0 <OSFlagDel+0x38>
        return (pgrp);
  8032c4:	e0bffb17 	ldw	r2,-20(fp)
  8032c8:	e0bfff15 	stw	r2,-4(fp)
  8032cc:	00009606 	br	803528 <OSFlagDel+0x290>
    }
    if (pgrp == (OS_FLAG_GRP *)0) {                        /* Validate 'pgrp'                          */
  8032d0:	e0bffb17 	ldw	r2,-20(fp)
  8032d4:	1004c03a 	cmpne	r2,r2,zero
  8032d8:	1000061e 	bne	r2,zero,8032f4 <OSFlagDel+0x5c>
        *perr = OS_ERR_FLAG_INVALID_PGRP;
  8032dc:	e0fffd17 	ldw	r3,-12(fp)
  8032e0:	00801b84 	movi	r2,110
  8032e4:	18800005 	stb	r2,0(r3)
        return (pgrp);
  8032e8:	e0fffb17 	ldw	r3,-20(fp)
  8032ec:	e0ffff15 	stw	r3,-4(fp)
  8032f0:	00008d06 	br	803528 <OSFlagDel+0x290>
    }
#endif
    if (OSIntNesting > 0) {                                /* See if called from ISR ...               */
  8032f4:	00802074 	movhi	r2,129
  8032f8:	10875504 	addi	r2,r2,7508
  8032fc:	10800003 	ldbu	r2,0(r2)
  803300:	10803fcc 	andi	r2,r2,255
  803304:	1005003a 	cmpeq	r2,r2,zero
  803308:	1000061e 	bne	r2,zero,803324 <OSFlagDel+0x8c>
        *perr = OS_ERR_DEL_ISR;                            /* ... can't DELETE from an ISR             */
  80330c:	e0fffd17 	ldw	r3,-12(fp)
  803310:	008003c4 	movi	r2,15
  803314:	18800005 	stb	r2,0(r3)
        return (pgrp);
  803318:	e0bffb17 	ldw	r2,-20(fp)
  80331c:	e0bfff15 	stw	r2,-4(fp)
  803320:	00008106 	br	803528 <OSFlagDel+0x290>
    }
    if (pgrp->OSFlagType != OS_EVENT_TYPE_FLAG) {          /* Validate event group type                */
  803324:	e0bffb17 	ldw	r2,-20(fp)
  803328:	10800003 	ldbu	r2,0(r2)
  80332c:	10803fcc 	andi	r2,r2,255
  803330:	10800160 	cmpeqi	r2,r2,5
  803334:	1000061e 	bne	r2,zero,803350 <OSFlagDel+0xb8>
        *perr = OS_ERR_EVENT_TYPE;
  803338:	e0fffd17 	ldw	r3,-12(fp)
  80333c:	00800044 	movi	r2,1
  803340:	18800005 	stb	r2,0(r3)
        return (pgrp);
  803344:	e0fffb17 	ldw	r3,-20(fp)
  803348:	e0ffff15 	stw	r3,-4(fp)
  80334c:	00007606 	br	803528 <OSFlagDel+0x290>
static ALT_INLINE alt_irq_context ALT_ALWAYS_INLINE 
       alt_irq_disable_all (void)
{
  alt_irq_context context;

  NIOS2_READ_STATUS (context);
  803350:	0005303a 	rdctl	r2,status
  803354:	e0bff615 	stw	r2,-40(fp)

  NIOS2_WRITE_STATUS (context & ~NIOS2_STATUS_PIE_MSK);
  803358:	e0fff617 	ldw	r3,-40(fp)
  80335c:	00bfff84 	movi	r2,-2
  803360:	1884703a 	and	r2,r3,r2
  803364:	1001703a 	wrctl	status,r2
  
  return context;
  803368:	e0bff617 	ldw	r2,-40(fp)
    }
    OS_ENTER_CRITICAL();
  80336c:	e0bff715 	stw	r2,-36(fp)
    if (pgrp->OSFlagWaitList != (void *)0) {               /* See if any tasks waiting on event flags  */
  803370:	e0bffb17 	ldw	r2,-20(fp)
  803374:	10800117 	ldw	r2,4(r2)
  803378:	1005003a 	cmpeq	r2,r2,zero
  80337c:	1000031e 	bne	r2,zero,80338c <OSFlagDel+0xf4>
        tasks_waiting = OS_TRUE;                           /* Yes                                      */
  803380:	00800044 	movi	r2,1
  803384:	e0bffa05 	stb	r2,-24(fp)
  803388:	00000106 	br	803390 <OSFlagDel+0xf8>
    } else {
        tasks_waiting = OS_FALSE;                          /* No                                       */
  80338c:	e03ffa05 	stb	zero,-24(fp)
    }
    switch (opt) {
  803390:	e0bffc03 	ldbu	r2,-16(fp)
  803394:	e0bffe15 	stw	r2,-8(fp)
  803398:	e0fffe17 	ldw	r3,-8(fp)
  80339c:	1805003a 	cmpeq	r2,r3,zero
  8033a0:	1000041e 	bne	r2,zero,8033b4 <OSFlagDel+0x11c>
  8033a4:	e0fffe17 	ldw	r3,-8(fp)
  8033a8:	18800060 	cmpeqi	r2,r3,1
  8033ac:	1000281e 	bne	r2,zero,803450 <OSFlagDel+0x1b8>
  8033b0:	00005206 	br	8034fc <OSFlagDel+0x264>
        case OS_DEL_NO_PEND:                               /* Delete group if no task waiting          */
             if (tasks_waiting == OS_FALSE) {
  8033b4:	e0bffa03 	ldbu	r2,-24(fp)
  8033b8:	1004c03a 	cmpne	r2,r2,zero
  8033bc:	10001a1e 	bne	r2,zero,803428 <OSFlagDel+0x190>
#if OS_FLAG_NAME_SIZE > 1
                 pgrp->OSFlagName[0]  = '?';               /* Unknown name                             */
  8033c0:	e0fffb17 	ldw	r3,-20(fp)
  8033c4:	00800fc4 	movi	r2,63
  8033c8:	18800285 	stb	r2,10(r3)
                 pgrp->OSFlagName[1]  = OS_ASCII_NUL;
  8033cc:	e0bffb17 	ldw	r2,-20(fp)
  8033d0:	100002c5 	stb	zero,11(r2)
#endif
                 pgrp->OSFlagType     = OS_EVENT_TYPE_UNUSED;
  8033d4:	e0bffb17 	ldw	r2,-20(fp)
  8033d8:	10000005 	stb	zero,0(r2)
                 pgrp->OSFlagWaitList = (void *)OSFlagFreeList; /* Return group to free list           */
  8033dc:	00802074 	movhi	r2,129
  8033e0:	10875804 	addi	r2,r2,7520
  8033e4:	10c00017 	ldw	r3,0(r2)
  8033e8:	e0bffb17 	ldw	r2,-20(fp)
  8033ec:	10c00115 	stw	r3,4(r2)
                 pgrp->OSFlagFlags    = (OS_FLAGS)0;
  8033f0:	e0bffb17 	ldw	r2,-20(fp)
  8033f4:	1000020d 	sth	zero,8(r2)
                 OSFlagFreeList       = pgrp;
  8033f8:	00c02074 	movhi	r3,129
  8033fc:	18c75804 	addi	r3,r3,7520
  803400:	e0bffb17 	ldw	r2,-20(fp)
  803404:	18800015 	stw	r2,0(r3)
  803408:	e0bff717 	ldw	r2,-36(fp)
  80340c:	e0bff515 	stw	r2,-44(fp)
  status &= ~NIOS2_STATUS_PIE_MSK;
  status |= (context & NIOS2_STATUS_PIE_MSK);
  
  NIOS2_WRITE_STATUS (status);
#else
  NIOS2_WRITE_STATUS (context);
  803410:	e0bff517 	ldw	r2,-44(fp)
  803414:	1001703a 	wrctl	status,r2
                 OS_EXIT_CRITICAL();
                 *perr                = OS_ERR_NONE;
  803418:	e0bffd17 	ldw	r2,-12(fp)
  80341c:	10000005 	stb	zero,0(r2)
                 pgrp_return          = (OS_FLAG_GRP *)0;  /* Event Flag Group has been deleted        */
  803420:	e03ff815 	stw	zero,-32(fp)
  803424:	00003e06 	br	803520 <OSFlagDel+0x288>
  803428:	e0bff717 	ldw	r2,-36(fp)
  80342c:	e0bff415 	stw	r2,-48(fp)
  803430:	e0bff417 	ldw	r2,-48(fp)
  803434:	1001703a 	wrctl	status,r2
             } else {
                 OS_EXIT_CRITICAL();
                 *perr                = OS_ERR_TASK_WAITING;
  803438:	e0fffd17 	ldw	r3,-12(fp)
  80343c:	00801244 	movi	r2,73
  803440:	18800005 	stb	r2,0(r3)
                 pgrp_return          = pgrp;
  803444:	e0bffb17 	ldw	r2,-20(fp)
  803448:	e0bff815 	stw	r2,-32(fp)
             }
             break;
  80344c:	00003406 	br	803520 <OSFlagDel+0x288>

        case OS_DEL_ALWAYS:                                /* Always delete the event flag group       */
             pnode = (OS_FLAG_NODE *)pgrp->OSFlagWaitList;
  803450:	e0bffb17 	ldw	r2,-20(fp)
  803454:	10800117 	ldw	r2,4(r2)
  803458:	e0bff915 	stw	r2,-28(fp)
             while (pnode != (OS_FLAG_NODE *)0) {          /* Ready ALL tasks waiting for flags        */
  80345c:	00000606 	br	803478 <OSFlagDel+0x1e0>
                 (void)OS_FlagTaskRdy(pnode, (OS_FLAGS)0);
  803460:	e13ff917 	ldw	r4,-28(fp)
  803464:	000b883a 	mov	r5,zero
  803468:	08045a80 	call	8045a8 <OS_FlagTaskRdy>
                 pnode = (OS_FLAG_NODE *)pnode->OSFlagNodeNext;
  80346c:	e0bff917 	ldw	r2,-28(fp)
  803470:	10800017 	ldw	r2,0(r2)
  803474:	e0bff915 	stw	r2,-28(fp)
             }
             break;

        case OS_DEL_ALWAYS:                                /* Always delete the event flag group       */
             pnode = (OS_FLAG_NODE *)pgrp->OSFlagWaitList;
             while (pnode != (OS_FLAG_NODE *)0) {          /* Ready ALL tasks waiting for flags        */
  803478:	e0bff917 	ldw	r2,-28(fp)
  80347c:	1004c03a 	cmpne	r2,r2,zero
  803480:	103ff71e 	bne	r2,zero,803460 <OSFlagDel+0x1c8>
                 (void)OS_FlagTaskRdy(pnode, (OS_FLAGS)0);
                 pnode = (OS_FLAG_NODE *)pnode->OSFlagNodeNext;
             }
#if OS_FLAG_NAME_SIZE > 1
             pgrp->OSFlagName[0]  = '?';                   /* Unknown name                             */
  803484:	e0fffb17 	ldw	r3,-20(fp)
  803488:	00800fc4 	movi	r2,63
  80348c:	18800285 	stb	r2,10(r3)
             pgrp->OSFlagName[1]  = OS_ASCII_NUL;
  803490:	e0bffb17 	ldw	r2,-20(fp)
  803494:	100002c5 	stb	zero,11(r2)
#endif
             pgrp->OSFlagType     = OS_EVENT_TYPE_UNUSED;
  803498:	e0bffb17 	ldw	r2,-20(fp)
  80349c:	10000005 	stb	zero,0(r2)
             pgrp->OSFlagWaitList = (void *)OSFlagFreeList;/* Return group to free list                */
  8034a0:	00802074 	movhi	r2,129
  8034a4:	10875804 	addi	r2,r2,7520
  8034a8:	10c00017 	ldw	r3,0(r2)
  8034ac:	e0bffb17 	ldw	r2,-20(fp)
  8034b0:	10c00115 	stw	r3,4(r2)
             pgrp->OSFlagFlags    = (OS_FLAGS)0;
  8034b4:	e0bffb17 	ldw	r2,-20(fp)
  8034b8:	1000020d 	sth	zero,8(r2)
             OSFlagFreeList       = pgrp;
  8034bc:	00c02074 	movhi	r3,129
  8034c0:	18c75804 	addi	r3,r3,7520
  8034c4:	e0bffb17 	ldw	r2,-20(fp)
  8034c8:	18800015 	stw	r2,0(r3)
  8034cc:	e0bff717 	ldw	r2,-36(fp)
  8034d0:	e0bff315 	stw	r2,-52(fp)
  8034d4:	e0bff317 	ldw	r2,-52(fp)
  8034d8:	1001703a 	wrctl	status,r2
             OS_EXIT_CRITICAL();
             if (tasks_waiting == OS_TRUE) {               /* Reschedule only if task(s) were waiting  */
  8034dc:	e0bffa03 	ldbu	r2,-24(fp)
  8034e0:	10800058 	cmpnei	r2,r2,1
  8034e4:	1000011e 	bne	r2,zero,8034ec <OSFlagDel+0x254>
                 OS_Sched();                               /* Find highest priority task ready to run  */
  8034e8:	08025b40 	call	8025b4 <OS_Sched>
             }
             *perr = OS_ERR_NONE;
  8034ec:	e0bffd17 	ldw	r2,-12(fp)
  8034f0:	10000005 	stb	zero,0(r2)
             pgrp_return          = (OS_FLAG_GRP *)0;      /* Event Flag Group has been deleted        */
  8034f4:	e03ff815 	stw	zero,-32(fp)
             break;
  8034f8:	00000906 	br	803520 <OSFlagDel+0x288>
  8034fc:	e0bff717 	ldw	r2,-36(fp)
  803500:	e0bff215 	stw	r2,-56(fp)
  803504:	e0bff217 	ldw	r2,-56(fp)
  803508:	1001703a 	wrctl	status,r2

        default:
             OS_EXIT_CRITICAL();
             *perr                = OS_ERR_INVALID_OPT;
  80350c:	e0fffd17 	ldw	r3,-12(fp)
  803510:	008001c4 	movi	r2,7
  803514:	18800005 	stb	r2,0(r3)
             pgrp_return          = pgrp;
  803518:	e0bffb17 	ldw	r2,-20(fp)
  80351c:	e0bff815 	stw	r2,-32(fp)
             break;
    }
    return (pgrp_return);
  803520:	e0bff817 	ldw	r2,-32(fp)
  803524:	e0bfff15 	stw	r2,-4(fp)
  803528:	e0bfff17 	ldw	r2,-4(fp)
}
  80352c:	e037883a 	mov	sp,fp
  803530:	dfc00117 	ldw	ra,4(sp)
  803534:	df000017 	ldw	fp,0(sp)
  803538:	dec00204 	addi	sp,sp,8
  80353c:	f800283a 	ret

00803540 <OSFlagNameGet>:
*********************************************************************************************************
*/

#if OS_FLAG_NAME_SIZE > 1
INT8U  OSFlagNameGet (OS_FLAG_GRP *pgrp, INT8U *pname, INT8U *perr)
{
  803540:	defff504 	addi	sp,sp,-44
  803544:	dfc00a15 	stw	ra,40(sp)
  803548:	df000915 	stw	fp,36(sp)
  80354c:	df000904 	addi	fp,sp,36
  803550:	e13ffc15 	stw	r4,-16(fp)
  803554:	e17ffd15 	stw	r5,-12(fp)
  803558:	e1bffe15 	stw	r6,-8(fp)
    INT8U      len;
#if OS_CRITICAL_METHOD == 3                      /* Allocate storage for CPU status register           */
    OS_CPU_SR  cpu_sr = 0;
  80355c:	e03ffa15 	stw	zero,-24(fp)
#endif



#if OS_ARG_CHK_EN > 0
    if (perr == (INT8U *)0) {                    /* Validate 'perr'                                    */
  803560:	e0bffe17 	ldw	r2,-8(fp)
  803564:	1004c03a 	cmpne	r2,r2,zero
  803568:	1000021e 	bne	r2,zero,803574 <OSFlagNameGet+0x34>
        return (0);
  80356c:	e03fff15 	stw	zero,-4(fp)
  803570:	00003e06 	br	80366c <OSFlagNameGet+0x12c>
    }
    if (pgrp == (OS_FLAG_GRP *)0) {              /* Is 'pgrp' a NULL pointer?                          */
  803574:	e0bffc17 	ldw	r2,-16(fp)
  803578:	1004c03a 	cmpne	r2,r2,zero
  80357c:	1000051e 	bne	r2,zero,803594 <OSFlagNameGet+0x54>
        *perr = OS_ERR_FLAG_INVALID_PGRP;
  803580:	e0fffe17 	ldw	r3,-8(fp)
  803584:	00801b84 	movi	r2,110
  803588:	18800005 	stb	r2,0(r3)
        return (0);
  80358c:	e03fff15 	stw	zero,-4(fp)
  803590:	00003606 	br	80366c <OSFlagNameGet+0x12c>
    }
    if (pname == (INT8U *)0) {                   /* Is 'pname' a NULL pointer?                         */
  803594:	e0bffd17 	ldw	r2,-12(fp)
  803598:	1004c03a 	cmpne	r2,r2,zero
  80359c:	1000051e 	bne	r2,zero,8035b4 <OSFlagNameGet+0x74>
        *perr = OS_ERR_PNAME_NULL;
  8035a0:	e0fffe17 	ldw	r3,-8(fp)
  8035a4:	00800304 	movi	r2,12
  8035a8:	18800005 	stb	r2,0(r3)
        return (0);
  8035ac:	e03fff15 	stw	zero,-4(fp)
  8035b0:	00002e06 	br	80366c <OSFlagNameGet+0x12c>
    }
#endif
    if (OSIntNesting > 0) {                      /* See if trying to call from an ISR                  */
  8035b4:	00802074 	movhi	r2,129
  8035b8:	10875504 	addi	r2,r2,7508
  8035bc:	10800003 	ldbu	r2,0(r2)
  8035c0:	10803fcc 	andi	r2,r2,255
  8035c4:	1005003a 	cmpeq	r2,r2,zero
  8035c8:	1000051e 	bne	r2,zero,8035e0 <OSFlagNameGet+0xa0>
        *perr = OS_ERR_NAME_GET_ISR;
  8035cc:	e0fffe17 	ldw	r3,-8(fp)
  8035d0:	00800444 	movi	r2,17
  8035d4:	18800005 	stb	r2,0(r3)
        return (0);
  8035d8:	e03fff15 	stw	zero,-4(fp)
  8035dc:	00002306 	br	80366c <OSFlagNameGet+0x12c>
static ALT_INLINE alt_irq_context ALT_ALWAYS_INLINE 
       alt_irq_disable_all (void)
{
  alt_irq_context context;

  NIOS2_READ_STATUS (context);
  8035e0:	0005303a 	rdctl	r2,status
  8035e4:	e0bff915 	stw	r2,-28(fp)

  NIOS2_WRITE_STATUS (context & ~NIOS2_STATUS_PIE_MSK);
  8035e8:	e0fff917 	ldw	r3,-28(fp)
  8035ec:	00bfff84 	movi	r2,-2
  8035f0:	1884703a 	and	r2,r3,r2
  8035f4:	1001703a 	wrctl	status,r2
  
  return context;
  8035f8:	e0bff917 	ldw	r2,-28(fp)
    }
    OS_ENTER_CRITICAL();
  8035fc:	e0bffa15 	stw	r2,-24(fp)
    if (pgrp->OSFlagType != OS_EVENT_TYPE_FLAG) {
  803600:	e0bffc17 	ldw	r2,-16(fp)
  803604:	10800003 	ldbu	r2,0(r2)
  803608:	10803fcc 	andi	r2,r2,255
  80360c:	10800160 	cmpeqi	r2,r2,5
  803610:	1000091e 	bne	r2,zero,803638 <OSFlagNameGet+0xf8>
  803614:	e0bffa17 	ldw	r2,-24(fp)
  803618:	e0bff815 	stw	r2,-32(fp)
  status &= ~NIOS2_STATUS_PIE_MSK;
  status |= (context & NIOS2_STATUS_PIE_MSK);
  
  NIOS2_WRITE_STATUS (status);
#else
  NIOS2_WRITE_STATUS (context);
  80361c:	e0bff817 	ldw	r2,-32(fp)
  803620:	1001703a 	wrctl	status,r2
        OS_EXIT_CRITICAL();
        *perr = OS_ERR_EVENT_TYPE;
  803624:	e0fffe17 	ldw	r3,-8(fp)
  803628:	00800044 	movi	r2,1
  80362c:	18800005 	stb	r2,0(r3)
        return (0);
  803630:	e03fff15 	stw	zero,-4(fp)
  803634:	00000d06 	br	80366c <OSFlagNameGet+0x12c>
    }
    len   = OS_StrCopy(pname, pgrp->OSFlagName); /* Copy name from OS_FLAG_GRP                         */
  803638:	e0bffc17 	ldw	r2,-16(fp)
  80363c:	11400284 	addi	r5,r2,10
  803640:	e13ffd17 	ldw	r4,-12(fp)
  803644:	08026f80 	call	8026f8 <OS_StrCopy>
  803648:	e0bffb05 	stb	r2,-20(fp)
  80364c:	e0bffa17 	ldw	r2,-24(fp)
  803650:	e0bff715 	stw	r2,-36(fp)
  803654:	e0bff717 	ldw	r2,-36(fp)
  803658:	1001703a 	wrctl	status,r2
    OS_EXIT_CRITICAL();
    *perr = OS_ERR_NONE;
  80365c:	e0bffe17 	ldw	r2,-8(fp)
  803660:	10000005 	stb	zero,0(r2)
    return (len);
  803664:	e0bffb03 	ldbu	r2,-20(fp)
  803668:	e0bfff15 	stw	r2,-4(fp)
  80366c:	e0bfff17 	ldw	r2,-4(fp)
}
  803670:	e037883a 	mov	sp,fp
  803674:	dfc00117 	ldw	ra,4(sp)
  803678:	df000017 	ldw	fp,0(sp)
  80367c:	dec00204 	addi	sp,sp,8
  803680:	f800283a 	ret

00803684 <OSFlagNameSet>:
*********************************************************************************************************
*/

#if OS_FLAG_NAME_SIZE > 1
void  OSFlagNameSet (OS_FLAG_GRP *pgrp, INT8U *pname, INT8U *perr)
{
  803684:	defff504 	addi	sp,sp,-44
  803688:	dfc00a15 	stw	ra,40(sp)
  80368c:	df000915 	stw	fp,36(sp)
  803690:	df000904 	addi	fp,sp,36
  803694:	e13ffd15 	stw	r4,-12(fp)
  803698:	e17ffe15 	stw	r5,-8(fp)
  80369c:	e1bfff15 	stw	r6,-4(fp)
    INT8U      len;
#if OS_CRITICAL_METHOD == 3                      /* Allocate storage for CPU status register           */
    OS_CPU_SR  cpu_sr = 0;
  8036a0:	e03ffb15 	stw	zero,-20(fp)
#endif



#if OS_ARG_CHK_EN > 0
    if (perr == (INT8U *)0) {                    /* Validate 'perr'                                    */
  8036a4:	e0bfff17 	ldw	r2,-4(fp)
  8036a8:	1005003a 	cmpeq	r2,r2,zero
  8036ac:	1000451e 	bne	r2,zero,8037c4 <OSFlagNameSet+0x140>
        return;
    }
    if (pgrp == (OS_FLAG_GRP *)0) {              /* Is 'pgrp' a NULL pointer?                          */
  8036b0:	e0bffd17 	ldw	r2,-12(fp)
  8036b4:	1004c03a 	cmpne	r2,r2,zero
  8036b8:	1000041e 	bne	r2,zero,8036cc <OSFlagNameSet+0x48>
        *perr = OS_ERR_FLAG_INVALID_PGRP;
  8036bc:	e0ffff17 	ldw	r3,-4(fp)
  8036c0:	00801b84 	movi	r2,110
  8036c4:	18800005 	stb	r2,0(r3)
        return;
  8036c8:	00003e06 	br	8037c4 <OSFlagNameSet+0x140>
    }
    if (pname == (INT8U *)0) {                   /* Is 'pname' a NULL pointer?                         */
  8036cc:	e0bffe17 	ldw	r2,-8(fp)
  8036d0:	1004c03a 	cmpne	r2,r2,zero
  8036d4:	1000041e 	bne	r2,zero,8036e8 <OSFlagNameSet+0x64>
        *perr = OS_ERR_PNAME_NULL;
  8036d8:	e0ffff17 	ldw	r3,-4(fp)
  8036dc:	00800304 	movi	r2,12
  8036e0:	18800005 	stb	r2,0(r3)
        return;
  8036e4:	00003706 	br	8037c4 <OSFlagNameSet+0x140>
    }
#endif
    if (OSIntNesting > 0) {                      /* See if trying to call from an ISR                  */
  8036e8:	00802074 	movhi	r2,129
  8036ec:	10875504 	addi	r2,r2,7508
  8036f0:	10800003 	ldbu	r2,0(r2)
  8036f4:	10803fcc 	andi	r2,r2,255
  8036f8:	1005003a 	cmpeq	r2,r2,zero
  8036fc:	1000041e 	bne	r2,zero,803710 <OSFlagNameSet+0x8c>
        *perr = OS_ERR_NAME_SET_ISR;
  803700:	e0ffff17 	ldw	r3,-4(fp)
  803704:	00800484 	movi	r2,18
  803708:	18800005 	stb	r2,0(r3)
        return;
  80370c:	00002d06 	br	8037c4 <OSFlagNameSet+0x140>
static ALT_INLINE alt_irq_context ALT_ALWAYS_INLINE 
       alt_irq_disable_all (void)
{
  alt_irq_context context;

  NIOS2_READ_STATUS (context);
  803710:	0005303a 	rdctl	r2,status
  803714:	e0bffa15 	stw	r2,-24(fp)

  NIOS2_WRITE_STATUS (context & ~NIOS2_STATUS_PIE_MSK);
  803718:	e0fffa17 	ldw	r3,-24(fp)
  80371c:	00bfff84 	movi	r2,-2
  803720:	1884703a 	and	r2,r3,r2
  803724:	1001703a 	wrctl	status,r2
  
  return context;
  803728:	e0bffa17 	ldw	r2,-24(fp)
    }
    OS_ENTER_CRITICAL();
  80372c:	e0bffb15 	stw	r2,-20(fp)
    if (pgrp->OSFlagType != OS_EVENT_TYPE_FLAG) {
  803730:	e0bffd17 	ldw	r2,-12(fp)
  803734:	10800003 	ldbu	r2,0(r2)
  803738:	10803fcc 	andi	r2,r2,255
  80373c:	10800160 	cmpeqi	r2,r2,5
  803740:	1000081e 	bne	r2,zero,803764 <OSFlagNameSet+0xe0>
  803744:	e0bffb17 	ldw	r2,-20(fp)
  803748:	e0bff915 	stw	r2,-28(fp)
  status &= ~NIOS2_STATUS_PIE_MSK;
  status |= (context & NIOS2_STATUS_PIE_MSK);
  
  NIOS2_WRITE_STATUS (status);
#else
  NIOS2_WRITE_STATUS (context);
  80374c:	e0bff917 	ldw	r2,-28(fp)
  803750:	1001703a 	wrctl	status,r2
        OS_EXIT_CRITICAL();
        *perr = OS_ERR_EVENT_TYPE;
  803754:	e0ffff17 	ldw	r3,-4(fp)
  803758:	00800044 	movi	r2,1
  80375c:	18800005 	stb	r2,0(r3)
        return;
  803760:	00001806 	br	8037c4 <OSFlagNameSet+0x140>
    }
    len = OS_StrLen(pname);                      /* Can we fit the string in the storage area?         */
  803764:	e13ffe17 	ldw	r4,-8(fp)
  803768:	08027780 	call	802778 <OS_StrLen>
  80376c:	e0bffc05 	stb	r2,-16(fp)
    if (len > (OS_FLAG_NAME_SIZE - 1)) {         /* No                                                 */
  803770:	e0bffc03 	ldbu	r2,-16(fp)
  803774:	10800830 	cmpltui	r2,r2,32
  803778:	1000081e 	bne	r2,zero,80379c <OSFlagNameSet+0x118>
  80377c:	e0bffb17 	ldw	r2,-20(fp)
  803780:	e0bff815 	stw	r2,-32(fp)
  803784:	e0bff817 	ldw	r2,-32(fp)
  803788:	1001703a 	wrctl	status,r2
        OS_EXIT_CRITICAL();
        *perr = OS_ERR_FLAG_NAME_TOO_LONG;
  80378c:	e0ffff17 	ldw	r3,-4(fp)
  803790:	00801cc4 	movi	r2,115
  803794:	18800005 	stb	r2,0(r3)
        return;
  803798:	00000a06 	br	8037c4 <OSFlagNameSet+0x140>
    }
    (void)OS_StrCopy(pgrp->OSFlagName, pname);   /* Yes, copy name from OS_FLAG_GRP                    */
  80379c:	e0bffd17 	ldw	r2,-12(fp)
  8037a0:	11000284 	addi	r4,r2,10
  8037a4:	e17ffe17 	ldw	r5,-8(fp)
  8037a8:	08026f80 	call	8026f8 <OS_StrCopy>
  8037ac:	e0bffb17 	ldw	r2,-20(fp)
  8037b0:	e0bff715 	stw	r2,-36(fp)
  8037b4:	e0bff717 	ldw	r2,-36(fp)
  8037b8:	1001703a 	wrctl	status,r2
    OS_EXIT_CRITICAL();
    *perr = OS_ERR_NONE;
  8037bc:	e0bfff17 	ldw	r2,-4(fp)
  8037c0:	10000005 	stb	zero,0(r2)
    return;
}
  8037c4:	e037883a 	mov	sp,fp
  8037c8:	dfc00117 	ldw	ra,4(sp)
  8037cc:	df000017 	ldw	fp,0(sp)
  8037d0:	dec00204 	addi	sp,sp,8
  8037d4:	f800283a 	ret

008037d8 <OSFlagPend>:
*                 event flags.
*********************************************************************************************************
*/

OS_FLAGS  OSFlagPend (OS_FLAG_GRP *pgrp, OS_FLAGS flags, INT8U wait_type, INT16U timeout, INT8U *perr)
{
  8037d8:	deffe004 	addi	sp,sp,-128
  8037dc:	dfc01f15 	stw	ra,124(sp)
  8037e0:	df001e15 	stw	fp,120(sp)
  8037e4:	df001e04 	addi	fp,sp,120
  8037e8:	e13ff915 	stw	r4,-28(fp)
  8037ec:	e17ffa0d 	sth	r5,-24(fp)
  8037f0:	e1bffb05 	stb	r6,-20(fp)
  8037f4:	e1fffc0d 	sth	r7,-16(fp)
    OS_FLAGS      flags_rdy;
    INT8U         result;
    INT8U         pend_stat;
    BOOLEAN       consume;
#if OS_CRITICAL_METHOD == 3                                /* Allocate storage for CPU status register */
    OS_CPU_SR     cpu_sr = 0;
  8037f8:	e03ff115 	stw	zero,-60(fp)
#endif



#if OS_ARG_CHK_EN > 0
    if (perr == (INT8U *)0) {                              /* Validate 'perr'                          */
  8037fc:	e0800217 	ldw	r2,8(fp)
  803800:	1004c03a 	cmpne	r2,r2,zero
  803804:	1000021e 	bne	r2,zero,803810 <OSFlagPend+0x38>
        return ((OS_FLAGS)0);
  803808:	e03fff15 	stw	zero,-4(fp)
  80380c:	00017d06 	br	803e04 <OSFlagPend+0x62c>
    }
    if (pgrp == (OS_FLAG_GRP *)0) {                        /* Validate 'pgrp'                          */
  803810:	e0bff917 	ldw	r2,-28(fp)
  803814:	1004c03a 	cmpne	r2,r2,zero
  803818:	1000051e 	bne	r2,zero,803830 <OSFlagPend+0x58>
        *perr = OS_ERR_FLAG_INVALID_PGRP;
  80381c:	e0c00217 	ldw	r3,8(fp)
  803820:	00801b84 	movi	r2,110
  803824:	18800005 	stb	r2,0(r3)
        return ((OS_FLAGS)0);
  803828:	e03fff15 	stw	zero,-4(fp)
  80382c:	00017506 	br	803e04 <OSFlagPend+0x62c>
    }
#endif
    if (OSIntNesting > 0) {                                /* See if called from ISR ...               */
  803830:	00802074 	movhi	r2,129
  803834:	10875504 	addi	r2,r2,7508
  803838:	10800003 	ldbu	r2,0(r2)
  80383c:	10803fcc 	andi	r2,r2,255
  803840:	1005003a 	cmpeq	r2,r2,zero
  803844:	1000051e 	bne	r2,zero,80385c <OSFlagPend+0x84>
        *perr = OS_ERR_PEND_ISR;                           /* ... can't PEND from an ISR               */
  803848:	e0c00217 	ldw	r3,8(fp)
  80384c:	00800084 	movi	r2,2
  803850:	18800005 	stb	r2,0(r3)
        return ((OS_FLAGS)0);
  803854:	e03fff15 	stw	zero,-4(fp)
  803858:	00016a06 	br	803e04 <OSFlagPend+0x62c>
    }
    if (OSLockNesting > 0) {                               /* See if called with scheduler locked ...  */
  80385c:	00802074 	movhi	r2,129
  803860:	10874704 	addi	r2,r2,7452
  803864:	10800003 	ldbu	r2,0(r2)
  803868:	10803fcc 	andi	r2,r2,255
  80386c:	1005003a 	cmpeq	r2,r2,zero
  803870:	1000051e 	bne	r2,zero,803888 <OSFlagPend+0xb0>
        *perr = OS_ERR_PEND_LOCKED;                        /* ... can't PEND when locked               */
  803874:	e0c00217 	ldw	r3,8(fp)
  803878:	00800344 	movi	r2,13
  80387c:	18800005 	stb	r2,0(r3)
        return ((OS_FLAGS)0);
  803880:	e03fff15 	stw	zero,-4(fp)
  803884:	00015f06 	br	803e04 <OSFlagPend+0x62c>
    }
    if (pgrp->OSFlagType != OS_EVENT_TYPE_FLAG) {          /* Validate event block type                */
  803888:	e0bff917 	ldw	r2,-28(fp)
  80388c:	10800003 	ldbu	r2,0(r2)
  803890:	10803fcc 	andi	r2,r2,255
  803894:	10800160 	cmpeqi	r2,r2,5
  803898:	1000051e 	bne	r2,zero,8038b0 <OSFlagPend+0xd8>
        *perr = OS_ERR_EVENT_TYPE;
  80389c:	e0c00217 	ldw	r3,8(fp)
  8038a0:	00800044 	movi	r2,1
  8038a4:	18800005 	stb	r2,0(r3)
        return ((OS_FLAGS)0);
  8038a8:	e03fff15 	stw	zero,-4(fp)
  8038ac:	00015506 	br	803e04 <OSFlagPend+0x62c>
    }
    result = (INT8U)(wait_type & OS_FLAG_CONSUME);
  8038b0:	e0fffb03 	ldbu	r3,-20(fp)
  8038b4:	00bfe004 	movi	r2,-128
  8038b8:	1884703a 	and	r2,r3,r2
  8038bc:	e0bff285 	stb	r2,-54(fp)
    if (result != (INT8U)0) {                             /* See if we need to consume the flags      */
  8038c0:	e0bff283 	ldbu	r2,-54(fp)
  8038c4:	1005003a 	cmpeq	r2,r2,zero
  8038c8:	1000071e 	bne	r2,zero,8038e8 <OSFlagPend+0x110>
        wait_type &= ~(INT8U)OS_FLAG_CONSUME;
  8038cc:	00c01fc4 	movi	r3,127
  8038d0:	e0bffb03 	ldbu	r2,-20(fp)
  8038d4:	10c4703a 	and	r2,r2,r3
  8038d8:	e0bffb05 	stb	r2,-20(fp)
        consume    = OS_TRUE;
  8038dc:	00800044 	movi	r2,1
  8038e0:	e0bff205 	stb	r2,-56(fp)
  8038e4:	00000106 	br	8038ec <OSFlagPend+0x114>
    } else {
        consume    = OS_FALSE;
  8038e8:	e03ff205 	stb	zero,-56(fp)
static ALT_INLINE alt_irq_context ALT_ALWAYS_INLINE 
       alt_irq_disable_all (void)
{
  alt_irq_context context;

  NIOS2_READ_STATUS (context);
  8038ec:	0005303a 	rdctl	r2,status
  8038f0:	e0bff015 	stw	r2,-64(fp)

  NIOS2_WRITE_STATUS (context & ~NIOS2_STATUS_PIE_MSK);
  8038f4:	e0fff017 	ldw	r3,-64(fp)
  8038f8:	00bfff84 	movi	r2,-2
  8038fc:	1884703a 	and	r2,r3,r2
  803900:	1001703a 	wrctl	status,r2
  
  return context;
  803904:	e0bff017 	ldw	r2,-64(fp)
    }
/*$PAGE*/
    OS_ENTER_CRITICAL();
  803908:	e0bff115 	stw	r2,-60(fp)
    switch (wait_type) {
  80390c:	e0bffb03 	ldbu	r2,-20(fp)
  803910:	e0bffe15 	stw	r2,-8(fp)
  803914:	e0fffe17 	ldw	r3,-8(fp)
  803918:	18800060 	cmpeqi	r2,r3,1
  80391c:	1000981e 	bne	r2,zero,803b80 <OSFlagPend+0x3a8>
  803920:	e0fffe17 	ldw	r3,-8(fp)
  803924:	18800088 	cmpgei	r2,r3,2
  803928:	1000041e 	bne	r2,zero,80393c <OSFlagPend+0x164>
  80392c:	e0fffe17 	ldw	r3,-8(fp)
  803930:	1805003a 	cmpeq	r2,r3,zero
  803934:	1000641e 	bne	r2,zero,803ac8 <OSFlagPend+0x2f0>
  803938:	0000bf06 	br	803c38 <OSFlagPend+0x460>
  80393c:	e0fffe17 	ldw	r3,-8(fp)
  803940:	188000a0 	cmpeqi	r2,r3,2
  803944:	1000041e 	bne	r2,zero,803958 <OSFlagPend+0x180>
  803948:	e0fffe17 	ldw	r3,-8(fp)
  80394c:	188000e0 	cmpeqi	r2,r3,3
  803950:	10002f1e 	bne	r2,zero,803a10 <OSFlagPend+0x238>
  803954:	0000b806 	br	803c38 <OSFlagPend+0x460>
        case OS_FLAG_WAIT_SET_ALL:                         /* See if all required flags are set        */
             flags_rdy = (OS_FLAGS)(pgrp->OSFlagFlags & flags);   /* Extract only the bits we want     */
  803958:	e0bff917 	ldw	r2,-28(fp)
  80395c:	10c0020b 	ldhu	r3,8(r2)
  803960:	e0bffa0b 	ldhu	r2,-24(fp)
  803964:	1884703a 	and	r2,r3,r2
  803968:	e0bff30d 	sth	r2,-52(fp)
             if (flags_rdy == flags) {                     /* Must match ALL the bits that we want     */
  80396c:	e0fff30b 	ldhu	r3,-52(fp)
  803970:	e0bffa0b 	ldhu	r2,-24(fp)
  803974:	18801a1e 	bne	r3,r2,8039e0 <OSFlagPend+0x208>
                 if (consume == OS_TRUE) {                 /* See if we need to consume the flags      */
  803978:	e0bff203 	ldbu	r2,-56(fp)
  80397c:	10800058 	cmpnei	r2,r2,1
  803980:	1000091e 	bne	r2,zero,8039a8 <OSFlagPend+0x1d0>
                     pgrp->OSFlagFlags &= ~flags_rdy;      /* Clear ONLY the flags that we wanted      */
  803984:	e0bff917 	ldw	r2,-28(fp)
  803988:	1080020b 	ldhu	r2,8(r2)
  80398c:	1007883a 	mov	r3,r2
  803990:	e0bff30b 	ldhu	r2,-52(fp)
  803994:	0084303a 	nor	r2,zero,r2
  803998:	1884703a 	and	r2,r3,r2
  80399c:	1007883a 	mov	r3,r2
  8039a0:	e0bff917 	ldw	r2,-28(fp)
  8039a4:	10c0020d 	sth	r3,8(r2)
                 }
                 OSTCBCur->OSTCBFlagsRdy = flags_rdy;      /* Save flags that were ready               */
  8039a8:	00802074 	movhi	r2,129
  8039ac:	10875604 	addi	r2,r2,7512
  8039b0:	10c00017 	ldw	r3,0(r2)
  8039b4:	e0bff30b 	ldhu	r2,-52(fp)
  8039b8:	18800b0d 	sth	r2,44(r3)
  8039bc:	e0bff117 	ldw	r2,-60(fp)
  8039c0:	e0bfef15 	stw	r2,-68(fp)
  status &= ~NIOS2_STATUS_PIE_MSK;
  status |= (context & NIOS2_STATUS_PIE_MSK);
  
  NIOS2_WRITE_STATUS (status);
#else
  NIOS2_WRITE_STATUS (context);
  8039c4:	e0bfef17 	ldw	r2,-68(fp)
  8039c8:	1001703a 	wrctl	status,r2
                 OS_EXIT_CRITICAL();                       /* Yes, condition met, return to caller     */
                 *perr                   = OS_ERR_NONE;
  8039cc:	e0800217 	ldw	r2,8(fp)
  8039d0:	10000005 	stb	zero,0(r2)
                 return (flags_rdy);
  8039d4:	e0bff30b 	ldhu	r2,-52(fp)
  8039d8:	e0bfff15 	stw	r2,-4(fp)
  8039dc:	00010906 	br	803e04 <OSFlagPend+0x62c>
             } else {                                      /* Block task until events occur or timeout */
                 OS_FlagBlock(pgrp, &node, flags, wait_type, timeout);
  8039e0:	e1bffa0b 	ldhu	r6,-24(fp)
  8039e4:	e1fffb03 	ldbu	r7,-20(fp)
  8039e8:	e0bffc0b 	ldhu	r2,-16(fp)
  8039ec:	e17ff404 	addi	r5,fp,-48
  8039f0:	d8800015 	stw	r2,0(sp)
  8039f4:	e13ff917 	ldw	r4,-28(fp)
  8039f8:	08043000 	call	804300 <OS_FlagBlock>
  8039fc:	e0bff117 	ldw	r2,-60(fp)
  803a00:	e0bfee15 	stw	r2,-72(fp)
  803a04:	e0bfee17 	ldw	r2,-72(fp)
  803a08:	1001703a 	wrctl	status,r2
                 OS_EXIT_CRITICAL();
             }
             break;
  803a0c:	00009506 	br	803c64 <OSFlagPend+0x48c>

        case OS_FLAG_WAIT_SET_ANY:
             flags_rdy = (OS_FLAGS)(pgrp->OSFlagFlags & flags);    /* Extract only the bits we want    */
  803a10:	e0bff917 	ldw	r2,-28(fp)
  803a14:	10c0020b 	ldhu	r3,8(r2)
  803a18:	e0bffa0b 	ldhu	r2,-24(fp)
  803a1c:	1884703a 	and	r2,r3,r2
  803a20:	e0bff30d 	sth	r2,-52(fp)
             if (flags_rdy != (OS_FLAGS)0) {               /* See if any flag set                      */
  803a24:	e0bff30b 	ldhu	r2,-52(fp)
  803a28:	1005003a 	cmpeq	r2,r2,zero
  803a2c:	10001a1e 	bne	r2,zero,803a98 <OSFlagPend+0x2c0>
                 if (consume == OS_TRUE) {                 /* See if we need to consume the flags      */
  803a30:	e0bff203 	ldbu	r2,-56(fp)
  803a34:	10800058 	cmpnei	r2,r2,1
  803a38:	1000091e 	bne	r2,zero,803a60 <OSFlagPend+0x288>
                     pgrp->OSFlagFlags &= ~flags_rdy;      /* Clear ONLY the flags that we got         */
  803a3c:	e0bff917 	ldw	r2,-28(fp)
  803a40:	1080020b 	ldhu	r2,8(r2)
  803a44:	1007883a 	mov	r3,r2
  803a48:	e0bff30b 	ldhu	r2,-52(fp)
  803a4c:	0084303a 	nor	r2,zero,r2
  803a50:	1884703a 	and	r2,r3,r2
  803a54:	1007883a 	mov	r3,r2
  803a58:	e0bff917 	ldw	r2,-28(fp)
  803a5c:	10c0020d 	sth	r3,8(r2)
                 }
                 OSTCBCur->OSTCBFlagsRdy = flags_rdy;      /* Save flags that were ready               */
  803a60:	00802074 	movhi	r2,129
  803a64:	10875604 	addi	r2,r2,7512
  803a68:	10c00017 	ldw	r3,0(r2)
  803a6c:	e0bff30b 	ldhu	r2,-52(fp)
  803a70:	18800b0d 	sth	r2,44(r3)
  803a74:	e0bff117 	ldw	r2,-60(fp)
  803a78:	e0bfed15 	stw	r2,-76(fp)
  803a7c:	e0bfed17 	ldw	r2,-76(fp)
  803a80:	1001703a 	wrctl	status,r2
                 OS_EXIT_CRITICAL();                       /* Yes, condition met, return to caller     */
                 *perr                   = OS_ERR_NONE;
  803a84:	e0800217 	ldw	r2,8(fp)
  803a88:	10000005 	stb	zero,0(r2)
                 return (flags_rdy);
  803a8c:	e0fff30b 	ldhu	r3,-52(fp)
  803a90:	e0ffff15 	stw	r3,-4(fp)
  803a94:	0000db06 	br	803e04 <OSFlagPend+0x62c>
             } else {                                      /* Block task until events occur or timeout */
                 OS_FlagBlock(pgrp, &node, flags, wait_type, timeout);
  803a98:	e1bffa0b 	ldhu	r6,-24(fp)
  803a9c:	e1fffb03 	ldbu	r7,-20(fp)
  803aa0:	e0bffc0b 	ldhu	r2,-16(fp)
  803aa4:	e17ff404 	addi	r5,fp,-48
  803aa8:	d8800015 	stw	r2,0(sp)
  803aac:	e13ff917 	ldw	r4,-28(fp)
  803ab0:	08043000 	call	804300 <OS_FlagBlock>
  803ab4:	e0bff117 	ldw	r2,-60(fp)
  803ab8:	e0bfec15 	stw	r2,-80(fp)
  803abc:	e0bfec17 	ldw	r2,-80(fp)
  803ac0:	1001703a 	wrctl	status,r2
                 OS_EXIT_CRITICAL();
             }
             break;
  803ac4:	00006706 	br	803c64 <OSFlagPend+0x48c>

#if OS_FLAG_WAIT_CLR_EN > 0
        case OS_FLAG_WAIT_CLR_ALL:                         /* See if all required flags are cleared    */
             flags_rdy = (OS_FLAGS)(~pgrp->OSFlagFlags & flags);  /* Extract only the bits we want     */
  803ac8:	e0bff917 	ldw	r2,-28(fp)
  803acc:	1080020b 	ldhu	r2,8(r2)
  803ad0:	0084303a 	nor	r2,zero,r2
  803ad4:	1007883a 	mov	r3,r2
  803ad8:	e0bffa0b 	ldhu	r2,-24(fp)
  803adc:	1884703a 	and	r2,r3,r2
  803ae0:	e0bff30d 	sth	r2,-52(fp)
             if (flags_rdy == flags) {                     /* Must match ALL the bits that we want     */
  803ae4:	e0fff30b 	ldhu	r3,-52(fp)
  803ae8:	e0bffa0b 	ldhu	r2,-24(fp)
  803aec:	1880181e 	bne	r3,r2,803b50 <OSFlagPend+0x378>
                 if (consume == OS_TRUE) {                 /* See if we need to consume the flags      */
  803af0:	e0bff203 	ldbu	r2,-56(fp)
  803af4:	10800058 	cmpnei	r2,r2,1
  803af8:	1000071e 	bne	r2,zero,803b18 <OSFlagPend+0x340>
                     pgrp->OSFlagFlags |= flags_rdy;       /* Set ONLY the flags that we wanted        */
  803afc:	e0bff917 	ldw	r2,-28(fp)
  803b00:	10c0020b 	ldhu	r3,8(r2)
  803b04:	e0bff30b 	ldhu	r2,-52(fp)
  803b08:	1884b03a 	or	r2,r3,r2
  803b0c:	1007883a 	mov	r3,r2
  803b10:	e0bff917 	ldw	r2,-28(fp)
  803b14:	10c0020d 	sth	r3,8(r2)
                 }
                 OSTCBCur->OSTCBFlagsRdy = flags_rdy;      /* Save flags that were ready               */
  803b18:	00802074 	movhi	r2,129
  803b1c:	10875604 	addi	r2,r2,7512
  803b20:	10c00017 	ldw	r3,0(r2)
  803b24:	e0bff30b 	ldhu	r2,-52(fp)
  803b28:	18800b0d 	sth	r2,44(r3)
  803b2c:	e0bff117 	ldw	r2,-60(fp)
  803b30:	e0bfeb15 	stw	r2,-84(fp)
  803b34:	e0bfeb17 	ldw	r2,-84(fp)
  803b38:	1001703a 	wrctl	status,r2
                 OS_EXIT_CRITICAL();                       /* Yes, condition met, return to caller     */
                 *perr                   = OS_ERR_NONE;
  803b3c:	e0800217 	ldw	r2,8(fp)
  803b40:	10000005 	stb	zero,0(r2)
                 return (flags_rdy);
  803b44:	e0bff30b 	ldhu	r2,-52(fp)
  803b48:	e0bfff15 	stw	r2,-4(fp)
  803b4c:	0000ad06 	br	803e04 <OSFlagPend+0x62c>
             } else {                                      /* Block task until events occur or timeout */
                 OS_FlagBlock(pgrp, &node, flags, wait_type, timeout);
  803b50:	e1bffa0b 	ldhu	r6,-24(fp)
  803b54:	e1fffb03 	ldbu	r7,-20(fp)
  803b58:	e0bffc0b 	ldhu	r2,-16(fp)
  803b5c:	e17ff404 	addi	r5,fp,-48
  803b60:	d8800015 	stw	r2,0(sp)
  803b64:	e13ff917 	ldw	r4,-28(fp)
  803b68:	08043000 	call	804300 <OS_FlagBlock>
  803b6c:	e0bff117 	ldw	r2,-60(fp)
  803b70:	e0bfea15 	stw	r2,-88(fp)
  803b74:	e0bfea17 	ldw	r2,-88(fp)
  803b78:	1001703a 	wrctl	status,r2
                 OS_EXIT_CRITICAL();
             }
             break;
  803b7c:	00003906 	br	803c64 <OSFlagPend+0x48c>

        case OS_FLAG_WAIT_CLR_ANY:
             flags_rdy = (OS_FLAGS)(~pgrp->OSFlagFlags & flags); /* Extract only the bits we want      */
  803b80:	e0bff917 	ldw	r2,-28(fp)
  803b84:	1080020b 	ldhu	r2,8(r2)
  803b88:	0084303a 	nor	r2,zero,r2
  803b8c:	1007883a 	mov	r3,r2
  803b90:	e0bffa0b 	ldhu	r2,-24(fp)
  803b94:	1884703a 	and	r2,r3,r2
  803b98:	e0bff30d 	sth	r2,-52(fp)
             if (flags_rdy != (OS_FLAGS)0) {               /* See if any flag cleared                  */
  803b9c:	e0bff30b 	ldhu	r2,-52(fp)
  803ba0:	1005003a 	cmpeq	r2,r2,zero
  803ba4:	1000181e 	bne	r2,zero,803c08 <OSFlagPend+0x430>
                 if (consume == OS_TRUE) {                 /* See if we need to consume the flags      */
  803ba8:	e0bff203 	ldbu	r2,-56(fp)
  803bac:	10800058 	cmpnei	r2,r2,1
  803bb0:	1000071e 	bne	r2,zero,803bd0 <OSFlagPend+0x3f8>
                     pgrp->OSFlagFlags |= flags_rdy;       /* Set ONLY the flags that we got           */
  803bb4:	e0bff917 	ldw	r2,-28(fp)
  803bb8:	10c0020b 	ldhu	r3,8(r2)
  803bbc:	e0bff30b 	ldhu	r2,-52(fp)
  803bc0:	1884b03a 	or	r2,r3,r2
  803bc4:	1007883a 	mov	r3,r2
  803bc8:	e0bff917 	ldw	r2,-28(fp)
  803bcc:	10c0020d 	sth	r3,8(r2)
                 }
                 OSTCBCur->OSTCBFlagsRdy = flags_rdy;      /* Save flags that were ready               */
  803bd0:	00802074 	movhi	r2,129
  803bd4:	10875604 	addi	r2,r2,7512
  803bd8:	10c00017 	ldw	r3,0(r2)
  803bdc:	e0bff30b 	ldhu	r2,-52(fp)
  803be0:	18800b0d 	sth	r2,44(r3)
  803be4:	e0bff117 	ldw	r2,-60(fp)
  803be8:	e0bfe915 	stw	r2,-92(fp)
  803bec:	e0bfe917 	ldw	r2,-92(fp)
  803bf0:	1001703a 	wrctl	status,r2
                 OS_EXIT_CRITICAL();                       /* Yes, condition met, return to caller     */
                 *perr                   = OS_ERR_NONE;
  803bf4:	e0800217 	ldw	r2,8(fp)
  803bf8:	10000005 	stb	zero,0(r2)
                 return (flags_rdy);
  803bfc:	e0fff30b 	ldhu	r3,-52(fp)
  803c00:	e0ffff15 	stw	r3,-4(fp)
  803c04:	00007f06 	br	803e04 <OSFlagPend+0x62c>
             } else {                                      /* Block task until events occur or timeout */
                 OS_FlagBlock(pgrp, &node, flags, wait_type, timeout);
  803c08:	e1bffa0b 	ldhu	r6,-24(fp)
  803c0c:	e1fffb03 	ldbu	r7,-20(fp)
  803c10:	e0bffc0b 	ldhu	r2,-16(fp)
  803c14:	e17ff404 	addi	r5,fp,-48
  803c18:	d8800015 	stw	r2,0(sp)
  803c1c:	e13ff917 	ldw	r4,-28(fp)
  803c20:	08043000 	call	804300 <OS_FlagBlock>
  803c24:	e0bff117 	ldw	r2,-60(fp)
  803c28:	e0bfe815 	stw	r2,-96(fp)
  803c2c:	e0bfe817 	ldw	r2,-96(fp)
  803c30:	1001703a 	wrctl	status,r2
                 OS_EXIT_CRITICAL();
             }
             break;
  803c34:	00000b06 	br	803c64 <OSFlagPend+0x48c>
  803c38:	e0bff117 	ldw	r2,-60(fp)
  803c3c:	e0bfe715 	stw	r2,-100(fp)
  803c40:	e0bfe717 	ldw	r2,-100(fp)
  803c44:	1001703a 	wrctl	status,r2
#endif

        default:
             OS_EXIT_CRITICAL();
             flags_rdy = (OS_FLAGS)0;
  803c48:	e03ff30d 	sth	zero,-52(fp)
             *perr      = OS_ERR_FLAG_WAIT_TYPE;
  803c4c:	e0c00217 	ldw	r3,8(fp)
  803c50:	00801bc4 	movi	r2,111
  803c54:	18800005 	stb	r2,0(r3)
             return (flags_rdy);
  803c58:	e0bff30b 	ldhu	r2,-52(fp)
  803c5c:	e0bfff15 	stw	r2,-4(fp)
  803c60:	00006806 	br	803e04 <OSFlagPend+0x62c>
    }
/*$PAGE*/
    OS_Sched();                                            /* Find next HPT ready to run               */
  803c64:	08025b40 	call	8025b4 <OS_Sched>
static ALT_INLINE alt_irq_context ALT_ALWAYS_INLINE 
       alt_irq_disable_all (void)
{
  alt_irq_context context;

  NIOS2_READ_STATUS (context);
  803c68:	0005303a 	rdctl	r2,status
  803c6c:	e0bfe615 	stw	r2,-104(fp)

  NIOS2_WRITE_STATUS (context & ~NIOS2_STATUS_PIE_MSK);
  803c70:	e0ffe617 	ldw	r3,-104(fp)
  803c74:	00bfff84 	movi	r2,-2
  803c78:	1884703a 	and	r2,r3,r2
  803c7c:	1001703a 	wrctl	status,r2
  
  return context;
  803c80:	e0bfe617 	ldw	r2,-104(fp)
    OS_ENTER_CRITICAL();
  803c84:	e0bff115 	stw	r2,-60(fp)
    if (OSTCBCur->OSTCBStatPend != OS_STAT_PEND_OK) {      /* Have we timed-out or aborted?            */
  803c88:	00802074 	movhi	r2,129
  803c8c:	10875604 	addi	r2,r2,7512
  803c90:	10800017 	ldw	r2,0(r2)
  803c94:	10800c43 	ldbu	r2,49(r2)
  803c98:	10803fcc 	andi	r2,r2,255
  803c9c:	1005003a 	cmpeq	r2,r2,zero
  803ca0:	1000221e 	bne	r2,zero,803d2c <OSFlagPend+0x554>
        pend_stat                = OSTCBCur->OSTCBStatPend;
  803ca4:	00802074 	movhi	r2,129
  803ca8:	10875604 	addi	r2,r2,7512
  803cac:	10800017 	ldw	r2,0(r2)
  803cb0:	10800c43 	ldbu	r2,49(r2)
  803cb4:	e0bff245 	stb	r2,-55(fp)
        OSTCBCur->OSTCBStatPend  = OS_STAT_PEND_OK;
  803cb8:	00802074 	movhi	r2,129
  803cbc:	10875604 	addi	r2,r2,7512
  803cc0:	10800017 	ldw	r2,0(r2)
  803cc4:	10000c45 	stb	zero,49(r2)
        OS_FlagUnlink(&node);
  803cc8:	e13ff404 	addi	r4,fp,-48
  803ccc:	08046b80 	call	8046b8 <OS_FlagUnlink>
        OSTCBCur->OSTCBStat      = OS_STAT_RDY;            /* Yes, make task ready-to-run              */
  803cd0:	00802074 	movhi	r2,129
  803cd4:	10875604 	addi	r2,r2,7512
  803cd8:	10800017 	ldw	r2,0(r2)
  803cdc:	10000c05 	stb	zero,48(r2)
  803ce0:	e0bff117 	ldw	r2,-60(fp)
  803ce4:	e0bfe515 	stw	r2,-108(fp)
  status &= ~NIOS2_STATUS_PIE_MSK;
  status |= (context & NIOS2_STATUS_PIE_MSK);
  
  NIOS2_WRITE_STATUS (status);
#else
  NIOS2_WRITE_STATUS (context);
  803ce8:	e0bfe517 	ldw	r2,-108(fp)
  803cec:	1001703a 	wrctl	status,r2
        OS_EXIT_CRITICAL();
        flags_rdy                = (OS_FLAGS)0;
  803cf0:	e03ff30d 	sth	zero,-52(fp)
        switch (pend_stat) {
  803cf4:	e0bff243 	ldbu	r2,-55(fp)
  803cf8:	108000a0 	cmpeqi	r2,r2,2
  803cfc:	1000011e 	bne	r2,zero,803d04 <OSFlagPend+0x52c>
  803d00:	00000406 	br	803d14 <OSFlagPend+0x53c>
            case OS_STAT_PEND_ABORT:
                 *perr = OS_ERR_PEND_ABORT;                 /* Indicate that we aborted   waiting       */
  803d04:	e0c00217 	ldw	r3,8(fp)
  803d08:	00800384 	movi	r2,14
  803d0c:	18800005 	stb	r2,0(r3)
                 break;
  803d10:	00000306 	br	803d20 <OSFlagPend+0x548>

            case OS_STAT_PEND_TO:
            default:
                 *perr = OS_ERR_TIMEOUT;                    /* Indicate that we timed-out waiting       */
  803d14:	e0c00217 	ldw	r3,8(fp)
  803d18:	00800284 	movi	r2,10
  803d1c:	18800005 	stb	r2,0(r3)
                 break;
        }
        return (flags_rdy);
  803d20:	e0fff30b 	ldhu	r3,-52(fp)
  803d24:	e0ffff15 	stw	r3,-4(fp)
  803d28:	00003606 	br	803e04 <OSFlagPend+0x62c>
    }
    flags_rdy = OSTCBCur->OSTCBFlagsRdy;
  803d2c:	00802074 	movhi	r2,129
  803d30:	10875604 	addi	r2,r2,7512
  803d34:	10800017 	ldw	r2,0(r2)
  803d38:	10800b0b 	ldhu	r2,44(r2)
  803d3c:	e0bff30d 	sth	r2,-52(fp)
    if (consume == OS_TRUE) {                              /* See if we need to consume the flags      */
  803d40:	e0bff203 	ldbu	r2,-56(fp)
  803d44:	10800058 	cmpnei	r2,r2,1
  803d48:	1000261e 	bne	r2,zero,803de4 <OSFlagPend+0x60c>
        switch (wait_type) {
  803d4c:	e0bffb03 	ldbu	r2,-20(fp)
  803d50:	e0bffd15 	stw	r2,-12(fp)
  803d54:	e0fffd17 	ldw	r3,-12(fp)
  803d58:	1804803a 	cmplt	r2,r3,zero
  803d5c:	1000181e 	bne	r2,zero,803dc0 <OSFlagPend+0x5e8>
  803d60:	e0fffd17 	ldw	r3,-12(fp)
  803d64:	18800090 	cmplti	r2,r3,2
  803d68:	10000d1e 	bne	r2,zero,803da0 <OSFlagPend+0x5c8>
  803d6c:	e0fffd17 	ldw	r3,-12(fp)
  803d70:	18800108 	cmpgei	r2,r3,4
  803d74:	1000121e 	bne	r2,zero,803dc0 <OSFlagPend+0x5e8>
            case OS_FLAG_WAIT_SET_ALL:
            case OS_FLAG_WAIT_SET_ANY:                     /* Clear ONLY the flags we got              */
                 pgrp->OSFlagFlags &= ~flags_rdy;
  803d78:	e0bff917 	ldw	r2,-28(fp)
  803d7c:	1080020b 	ldhu	r2,8(r2)
  803d80:	1007883a 	mov	r3,r2
  803d84:	e0bff30b 	ldhu	r2,-52(fp)
  803d88:	0084303a 	nor	r2,zero,r2
  803d8c:	1884703a 	and	r2,r3,r2
  803d90:	1007883a 	mov	r3,r2
  803d94:	e0bff917 	ldw	r2,-28(fp)
  803d98:	10c0020d 	sth	r3,8(r2)
                 break;
  803d9c:	00001106 	br	803de4 <OSFlagPend+0x60c>

#if OS_FLAG_WAIT_CLR_EN > 0
            case OS_FLAG_WAIT_CLR_ALL:
            case OS_FLAG_WAIT_CLR_ANY:                     /* Set   ONLY the flags we got              */
                 pgrp->OSFlagFlags |=  flags_rdy;
  803da0:	e0bff917 	ldw	r2,-28(fp)
  803da4:	10c0020b 	ldhu	r3,8(r2)
  803da8:	e0bff30b 	ldhu	r2,-52(fp)
  803dac:	1884b03a 	or	r2,r3,r2
  803db0:	1007883a 	mov	r3,r2
  803db4:	e0bff917 	ldw	r2,-28(fp)
  803db8:	10c0020d 	sth	r3,8(r2)
                 break;
  803dbc:	00000906 	br	803de4 <OSFlagPend+0x60c>
  803dc0:	e0bff117 	ldw	r2,-60(fp)
  803dc4:	e0bfe415 	stw	r2,-112(fp)
  803dc8:	e0bfe417 	ldw	r2,-112(fp)
  803dcc:	1001703a 	wrctl	status,r2
#endif
            default:
                 OS_EXIT_CRITICAL();
                 *perr = OS_ERR_FLAG_WAIT_TYPE;
  803dd0:	e0c00217 	ldw	r3,8(fp)
  803dd4:	00801bc4 	movi	r2,111
  803dd8:	18800005 	stb	r2,0(r3)
                 return ((OS_FLAGS)0);
  803ddc:	e03fff15 	stw	zero,-4(fp)
  803de0:	00000806 	br	803e04 <OSFlagPend+0x62c>
  803de4:	e0bff117 	ldw	r2,-60(fp)
  803de8:	e0bfe315 	stw	r2,-116(fp)
  803dec:	e0bfe317 	ldw	r2,-116(fp)
  803df0:	1001703a 	wrctl	status,r2
        }
    }
    OS_EXIT_CRITICAL();
    *perr = OS_ERR_NONE;                                   /* Event(s) must have occurred              */
  803df4:	e0800217 	ldw	r2,8(fp)
  803df8:	10000005 	stb	zero,0(r2)
    return (flags_rdy);
  803dfc:	e0bff30b 	ldhu	r2,-52(fp)
  803e00:	e0bfff15 	stw	r2,-4(fp)
  803e04:	e0bfff17 	ldw	r2,-4(fp)
}
  803e08:	e037883a 	mov	sp,fp
  803e0c:	dfc00117 	ldw	ra,4(sp)
  803e10:	df000017 	ldw	fp,0(sp)
  803e14:	dec00204 	addi	sp,sp,8
  803e18:	f800283a 	ret

00803e1c <OSFlagPendGetFlagsRdy>:
* Called from: Task ONLY
*********************************************************************************************************
*/

OS_FLAGS  OSFlagPendGetFlagsRdy (void)
{
  803e1c:	defffb04 	addi	sp,sp,-20
  803e20:	df000415 	stw	fp,16(sp)
  803e24:	df000404 	addi	fp,sp,16
    OS_FLAGS      flags;
#if OS_CRITICAL_METHOD == 3                                /* Allocate storage for CPU status register */
    OS_CPU_SR     cpu_sr = 0;
  803e28:	e03ffe15 	stw	zero,-8(fp)
static ALT_INLINE alt_irq_context ALT_ALWAYS_INLINE 
       alt_irq_disable_all (void)
{
  alt_irq_context context;

  NIOS2_READ_STATUS (context);
  803e2c:	0005303a 	rdctl	r2,status
  803e30:	e0bffd15 	stw	r2,-12(fp)

  NIOS2_WRITE_STATUS (context & ~NIOS2_STATUS_PIE_MSK);
  803e34:	e0fffd17 	ldw	r3,-12(fp)
  803e38:	00bfff84 	movi	r2,-2
  803e3c:	1884703a 	and	r2,r3,r2
  803e40:	1001703a 	wrctl	status,r2
  
  return context;
  803e44:	e0bffd17 	ldw	r2,-12(fp)
#endif



    OS_ENTER_CRITICAL();
  803e48:	e0bffe15 	stw	r2,-8(fp)
    flags = OSTCBCur->OSTCBFlagsRdy;
  803e4c:	00802074 	movhi	r2,129
  803e50:	10875604 	addi	r2,r2,7512
  803e54:	10800017 	ldw	r2,0(r2)
  803e58:	10800b0b 	ldhu	r2,44(r2)
  803e5c:	e0bfff0d 	sth	r2,-4(fp)
  803e60:	e0bffe17 	ldw	r2,-8(fp)
  803e64:	e0bffc15 	stw	r2,-16(fp)
  status &= ~NIOS2_STATUS_PIE_MSK;
  status |= (context & NIOS2_STATUS_PIE_MSK);
  
  NIOS2_WRITE_STATUS (status);
#else
  NIOS2_WRITE_STATUS (context);
  803e68:	e0bffc17 	ldw	r2,-16(fp)
  803e6c:	1001703a 	wrctl	status,r2
    OS_EXIT_CRITICAL();
    return (flags);
  803e70:	e0bfff0b 	ldhu	r2,-4(fp)
}
  803e74:	e037883a 	mov	sp,fp
  803e78:	df000017 	ldw	fp,0(sp)
  803e7c:	dec00104 	addi	sp,sp,4
  803e80:	f800283a 	ret

00803e84 <OSFlagPost>:
*              2) The amount of time interrupts are DISABLED depends on the number of tasks waiting on
*                 the event flag group.
*********************************************************************************************************
*/
OS_FLAGS  OSFlagPost (OS_FLAG_GRP *pgrp, OS_FLAGS flags, INT8U opt, INT8U *perr)
{
  803e84:	deffed04 	addi	sp,sp,-76
  803e88:	dfc01215 	stw	ra,72(sp)
  803e8c:	df001115 	stw	fp,68(sp)
  803e90:	df001104 	addi	fp,sp,68
  803e94:	e13ff915 	stw	r4,-28(fp)
  803e98:	e1fffc15 	stw	r7,-16(fp)
  803e9c:	e17ffa0d 	sth	r5,-24(fp)
  803ea0:	e1bffb05 	stb	r6,-20(fp)
    BOOLEAN       sched;
    OS_FLAGS      flags_cur;
    OS_FLAGS      flags_rdy;
    BOOLEAN       rdy;
#if OS_CRITICAL_METHOD == 3                          /* Allocate storage for CPU status register       */
    OS_CPU_SR     cpu_sr = 0;
  803ea4:	e03ff515 	stw	zero,-44(fp)
#endif



#if OS_ARG_CHK_EN > 0
    if (perr == (INT8U *)0) {                        /* Validate 'perr'                                */
  803ea8:	e0bffc17 	ldw	r2,-16(fp)
  803eac:	1004c03a 	cmpne	r2,r2,zero
  803eb0:	1000021e 	bne	r2,zero,803ebc <OSFlagPost+0x38>
        return ((OS_FLAGS)0);
  803eb4:	e03fff15 	stw	zero,-4(fp)
  803eb8:	0000d606 	br	804214 <OSFlagPost+0x390>
    }
    if (pgrp == (OS_FLAG_GRP *)0) {                  /* Validate 'pgrp'                                */
  803ebc:	e0bff917 	ldw	r2,-28(fp)
  803ec0:	1004c03a 	cmpne	r2,r2,zero
  803ec4:	1000051e 	bne	r2,zero,803edc <OSFlagPost+0x58>
        *perr = OS_ERR_FLAG_INVALID_PGRP;
  803ec8:	e0fffc17 	ldw	r3,-16(fp)
  803ecc:	00801b84 	movi	r2,110
  803ed0:	18800005 	stb	r2,0(r3)
        return ((OS_FLAGS)0);
  803ed4:	e03fff15 	stw	zero,-4(fp)
  803ed8:	0000ce06 	br	804214 <OSFlagPost+0x390>
    }
#endif
    if (pgrp->OSFlagType != OS_EVENT_TYPE_FLAG) {    /* Make sure we are pointing to an event flag grp */
  803edc:	e0bff917 	ldw	r2,-28(fp)
  803ee0:	10800003 	ldbu	r2,0(r2)
  803ee4:	10803fcc 	andi	r2,r2,255
  803ee8:	10800160 	cmpeqi	r2,r2,5
  803eec:	1000051e 	bne	r2,zero,803f04 <OSFlagPost+0x80>
        *perr = OS_ERR_EVENT_TYPE;
  803ef0:	e0fffc17 	ldw	r3,-16(fp)
  803ef4:	00800044 	movi	r2,1
  803ef8:	18800005 	stb	r2,0(r3)
        return ((OS_FLAGS)0);
  803efc:	e03fff15 	stw	zero,-4(fp)
  803f00:	0000c406 	br	804214 <OSFlagPost+0x390>
static ALT_INLINE alt_irq_context ALT_ALWAYS_INLINE 
       alt_irq_disable_all (void)
{
  alt_irq_context context;

  NIOS2_READ_STATUS (context);
  803f04:	0005303a 	rdctl	r2,status
  803f08:	e0bff415 	stw	r2,-48(fp)

  NIOS2_WRITE_STATUS (context & ~NIOS2_STATUS_PIE_MSK);
  803f0c:	e0fff417 	ldw	r3,-48(fp)
  803f10:	00bfff84 	movi	r2,-2
  803f14:	1884703a 	and	r2,r3,r2
  803f18:	1001703a 	wrctl	status,r2
  
  return context;
  803f1c:	e0bff417 	ldw	r2,-48(fp)
    }
/*$PAGE*/
    OS_ENTER_CRITICAL();
  803f20:	e0bff515 	stw	r2,-44(fp)
    switch (opt) {
  803f24:	e0bffb03 	ldbu	r2,-20(fp)
  803f28:	e0bffe15 	stw	r2,-8(fp)
  803f2c:	e0fffe17 	ldw	r3,-8(fp)
  803f30:	1805003a 	cmpeq	r2,r3,zero
  803f34:	1000041e 	bne	r2,zero,803f48 <OSFlagPost+0xc4>
  803f38:	e0fffe17 	ldw	r3,-8(fp)
  803f3c:	18800060 	cmpeqi	r2,r3,1
  803f40:	10000b1e 	bne	r2,zero,803f70 <OSFlagPost+0xec>
  803f44:	00001206 	br	803f90 <OSFlagPost+0x10c>
        case OS_FLAG_CLR:
             pgrp->OSFlagFlags &= ~flags;            /* Clear the flags specified in the group         */
  803f48:	e0bff917 	ldw	r2,-28(fp)
  803f4c:	1080020b 	ldhu	r2,8(r2)
  803f50:	1007883a 	mov	r3,r2
  803f54:	e0bffa0b 	ldhu	r2,-24(fp)
  803f58:	0084303a 	nor	r2,zero,r2
  803f5c:	1884703a 	and	r2,r3,r2
  803f60:	1007883a 	mov	r3,r2
  803f64:	e0bff917 	ldw	r2,-28(fp)
  803f68:	10c0020d 	sth	r3,8(r2)
             break;
  803f6c:	00001106 	br	803fb4 <OSFlagPost+0x130>

        case OS_FLAG_SET:
             pgrp->OSFlagFlags |=  flags;            /* Set   the flags specified in the group         */
  803f70:	e0bff917 	ldw	r2,-28(fp)
  803f74:	10c0020b 	ldhu	r3,8(r2)
  803f78:	e0bffa0b 	ldhu	r2,-24(fp)
  803f7c:	1884b03a 	or	r2,r3,r2
  803f80:	1007883a 	mov	r3,r2
  803f84:	e0bff917 	ldw	r2,-28(fp)
  803f88:	10c0020d 	sth	r3,8(r2)
             break;
  803f8c:	00000906 	br	803fb4 <OSFlagPost+0x130>
  803f90:	e0bff517 	ldw	r2,-44(fp)
  803f94:	e0bff315 	stw	r2,-52(fp)
  status &= ~NIOS2_STATUS_PIE_MSK;
  status |= (context & NIOS2_STATUS_PIE_MSK);
  
  NIOS2_WRITE_STATUS (status);
#else
  NIOS2_WRITE_STATUS (context);
  803f98:	e0bff317 	ldw	r2,-52(fp)
  803f9c:	1001703a 	wrctl	status,r2

        default:
             OS_EXIT_CRITICAL();                     /* INVALID option                                 */
             *perr = OS_ERR_FLAG_INVALID_OPT;
  803fa0:	e0fffc17 	ldw	r3,-16(fp)
  803fa4:	00801c44 	movi	r2,113
  803fa8:	18800005 	stb	r2,0(r3)
             return ((OS_FLAGS)0);
  803fac:	e03fff15 	stw	zero,-4(fp)
  803fb0:	00009806 	br	804214 <OSFlagPost+0x390>
    }
    sched = OS_FALSE;                                /* Indicate that we don't need rescheduling       */
  803fb4:	e03ff785 	stb	zero,-34(fp)
    pnode = (OS_FLAG_NODE *)pgrp->OSFlagWaitList;
  803fb8:	e0bff917 	ldw	r2,-28(fp)
  803fbc:	10800117 	ldw	r2,4(r2)
  803fc0:	e0bff815 	stw	r2,-32(fp)
    while (pnode != (OS_FLAG_NODE *)0) {             /* Go through all tasks waiting on event flag(s)  */
  803fc4:	00007506 	br	80419c <OSFlagPost+0x318>
        switch (pnode->OSFlagNodeWaitType) {
  803fc8:	e0bff817 	ldw	r2,-32(fp)
  803fcc:	10800483 	ldbu	r2,18(r2)
  803fd0:	10803fcc 	andi	r2,r2,255
  803fd4:	e0bffd15 	stw	r2,-12(fp)
  803fd8:	e0fffd17 	ldw	r3,-12(fp)
  803fdc:	18800060 	cmpeqi	r2,r3,1
  803fe0:	10004d1e 	bne	r2,zero,804118 <OSFlagPost+0x294>
  803fe4:	e0fffd17 	ldw	r3,-12(fp)
  803fe8:	18800088 	cmpgei	r2,r3,2
  803fec:	1000041e 	bne	r2,zero,804000 <OSFlagPost+0x17c>
  803ff0:	e0fffd17 	ldw	r3,-12(fp)
  803ff4:	1805003a 	cmpeq	r2,r3,zero
  803ff8:	1000301e 	bne	r2,zero,8040bc <OSFlagPost+0x238>
  803ffc:	00005b06 	br	80416c <OSFlagPost+0x2e8>
  804000:	e0fffd17 	ldw	r3,-12(fp)
  804004:	188000a0 	cmpeqi	r2,r3,2
  804008:	1000041e 	bne	r2,zero,80401c <OSFlagPost+0x198>
  80400c:	e0fffd17 	ldw	r3,-12(fp)
  804010:	188000e0 	cmpeqi	r2,r3,3
  804014:	1000161e 	bne	r2,zero,804070 <OSFlagPost+0x1ec>
  804018:	00005406 	br	80416c <OSFlagPost+0x2e8>
            case OS_FLAG_WAIT_SET_ALL:               /* See if all req. flags are set for current node */
                 flags_rdy = (OS_FLAGS)(pgrp->OSFlagFlags & pnode->OSFlagNodeFlags);
  80401c:	e0bff917 	ldw	r2,-28(fp)
  804020:	10c0020b 	ldhu	r3,8(r2)
  804024:	e0bff817 	ldw	r2,-32(fp)
  804028:	1080040b 	ldhu	r2,16(r2)
  80402c:	1884703a 	and	r2,r3,r2
  804030:	e0bff68d 	sth	r2,-38(fp)
                 if (flags_rdy == pnode->OSFlagNodeFlags) {
  804034:	e0bff817 	ldw	r2,-32(fp)
  804038:	1080040b 	ldhu	r2,16(r2)
  80403c:	10ffffcc 	andi	r3,r2,65535
  804040:	e0bff68b 	ldhu	r2,-38(fp)
  804044:	1880521e 	bne	r3,r2,804190 <OSFlagPost+0x30c>
                     rdy = OS_FlagTaskRdy(pnode, flags_rdy);  /* Make task RTR, event(s) Rx'd          */
  804048:	e17ff68b 	ldhu	r5,-38(fp)
  80404c:	e13ff817 	ldw	r4,-32(fp)
  804050:	08045a80 	call	8045a8 <OS_FlagTaskRdy>
  804054:	e0bff605 	stb	r2,-40(fp)
                     if (rdy == OS_TRUE) {
  804058:	e0bff603 	ldbu	r2,-40(fp)
  80405c:	10800058 	cmpnei	r2,r2,1
  804060:	10004b1e 	bne	r2,zero,804190 <OSFlagPost+0x30c>
                         sched = OS_TRUE;                     /* When done we will reschedule          */
  804064:	00800044 	movi	r2,1
  804068:	e0bff785 	stb	r2,-34(fp)
                     }
                 }
                 break;
  80406c:	00004806 	br	804190 <OSFlagPost+0x30c>

            case OS_FLAG_WAIT_SET_ANY:               /* See if any flag set                            */
                 flags_rdy = (OS_FLAGS)(pgrp->OSFlagFlags & pnode->OSFlagNodeFlags);
  804070:	e0bff917 	ldw	r2,-28(fp)
  804074:	10c0020b 	ldhu	r3,8(r2)
  804078:	e0bff817 	ldw	r2,-32(fp)
  80407c:	1080040b 	ldhu	r2,16(r2)
  804080:	1884703a 	and	r2,r3,r2
  804084:	e0bff68d 	sth	r2,-38(fp)
                 if (flags_rdy != (OS_FLAGS)0) {
  804088:	e0bff68b 	ldhu	r2,-38(fp)
  80408c:	1005003a 	cmpeq	r2,r2,zero
  804090:	10003f1e 	bne	r2,zero,804190 <OSFlagPost+0x30c>
                     rdy = OS_FlagTaskRdy(pnode, flags_rdy);  /* Make task RTR, event(s) Rx'd          */
  804094:	e17ff68b 	ldhu	r5,-38(fp)
  804098:	e13ff817 	ldw	r4,-32(fp)
  80409c:	08045a80 	call	8045a8 <OS_FlagTaskRdy>
  8040a0:	e0bff605 	stb	r2,-40(fp)
                     if (rdy == OS_TRUE) {
  8040a4:	e0bff603 	ldbu	r2,-40(fp)
  8040a8:	10800058 	cmpnei	r2,r2,1
  8040ac:	1000381e 	bne	r2,zero,804190 <OSFlagPost+0x30c>
                         sched = OS_TRUE;                     /* When done we will reschedule          */
  8040b0:	00800044 	movi	r2,1
  8040b4:	e0bff785 	stb	r2,-34(fp)
                     }
                 }
                 break;
  8040b8:	00003506 	br	804190 <OSFlagPost+0x30c>

#if OS_FLAG_WAIT_CLR_EN > 0
            case OS_FLAG_WAIT_CLR_ALL:               /* See if all req. flags are set for current node */
                 flags_rdy = (OS_FLAGS)(~pgrp->OSFlagFlags & pnode->OSFlagNodeFlags);
  8040bc:	e0bff917 	ldw	r2,-28(fp)
  8040c0:	1080020b 	ldhu	r2,8(r2)
  8040c4:	0084303a 	nor	r2,zero,r2
  8040c8:	1007883a 	mov	r3,r2
  8040cc:	e0bff817 	ldw	r2,-32(fp)
  8040d0:	1080040b 	ldhu	r2,16(r2)
  8040d4:	1884703a 	and	r2,r3,r2
  8040d8:	e0bff68d 	sth	r2,-38(fp)
                 if (flags_rdy == pnode->OSFlagNodeFlags) {
  8040dc:	e0bff817 	ldw	r2,-32(fp)
  8040e0:	1080040b 	ldhu	r2,16(r2)
  8040e4:	10ffffcc 	andi	r3,r2,65535
  8040e8:	e0bff68b 	ldhu	r2,-38(fp)
  8040ec:	1880281e 	bne	r3,r2,804190 <OSFlagPost+0x30c>
                     rdy = OS_FlagTaskRdy(pnode, flags_rdy);  /* Make task RTR, event(s) Rx'd          */
  8040f0:	e17ff68b 	ldhu	r5,-38(fp)
  8040f4:	e13ff817 	ldw	r4,-32(fp)
  8040f8:	08045a80 	call	8045a8 <OS_FlagTaskRdy>
  8040fc:	e0bff605 	stb	r2,-40(fp)
                     if (rdy == OS_TRUE) {
  804100:	e0bff603 	ldbu	r2,-40(fp)
  804104:	10800058 	cmpnei	r2,r2,1
  804108:	1000211e 	bne	r2,zero,804190 <OSFlagPost+0x30c>
                         sched = OS_TRUE;                     /* When done we will reschedule          */
  80410c:	00800044 	movi	r2,1
  804110:	e0bff785 	stb	r2,-34(fp)
                     }
                 }
                 break;
  804114:	00001e06 	br	804190 <OSFlagPost+0x30c>

            case OS_FLAG_WAIT_CLR_ANY:               /* See if any flag set                            */
                 flags_rdy = (OS_FLAGS)(~pgrp->OSFlagFlags & pnode->OSFlagNodeFlags);
  804118:	e0bff917 	ldw	r2,-28(fp)
  80411c:	1080020b 	ldhu	r2,8(r2)
  804120:	0084303a 	nor	r2,zero,r2
  804124:	1007883a 	mov	r3,r2
  804128:	e0bff817 	ldw	r2,-32(fp)
  80412c:	1080040b 	ldhu	r2,16(r2)
  804130:	1884703a 	and	r2,r3,r2
  804134:	e0bff68d 	sth	r2,-38(fp)
                 if (flags_rdy != (OS_FLAGS)0) {
  804138:	e0bff68b 	ldhu	r2,-38(fp)
  80413c:	1005003a 	cmpeq	r2,r2,zero
  804140:	1000131e 	bne	r2,zero,804190 <OSFlagPost+0x30c>
                     rdy = OS_FlagTaskRdy(pnode, flags_rdy);  /* Make task RTR, event(s) Rx'd          */
  804144:	e17ff68b 	ldhu	r5,-38(fp)
  804148:	e13ff817 	ldw	r4,-32(fp)
  80414c:	08045a80 	call	8045a8 <OS_FlagTaskRdy>
  804150:	e0bff605 	stb	r2,-40(fp)
                     if (rdy == OS_TRUE) {
  804154:	e0bff603 	ldbu	r2,-40(fp)
  804158:	10800058 	cmpnei	r2,r2,1
  80415c:	10000c1e 	bne	r2,zero,804190 <OSFlagPost+0x30c>
                         sched = OS_TRUE;                     /* When done we will reschedule          */
  804160:	00800044 	movi	r2,1
  804164:	e0bff785 	stb	r2,-34(fp)
                     }
                 }
                 break;
  804168:	00000906 	br	804190 <OSFlagPost+0x30c>
  80416c:	e0bff517 	ldw	r2,-44(fp)
  804170:	e0bff215 	stw	r2,-56(fp)
  804174:	e0bff217 	ldw	r2,-56(fp)
  804178:	1001703a 	wrctl	status,r2
#endif
            default:
                 OS_EXIT_CRITICAL();
                 *perr = OS_ERR_FLAG_WAIT_TYPE;
  80417c:	e0fffc17 	ldw	r3,-16(fp)
  804180:	00801bc4 	movi	r2,111
  804184:	18800005 	stb	r2,0(r3)
                 return ((OS_FLAGS)0);
  804188:	e03fff15 	stw	zero,-4(fp)
  80418c:	00002106 	br	804214 <OSFlagPost+0x390>
        }
        pnode = (OS_FLAG_NODE *)pnode->OSFlagNodeNext; /* Point to next task waiting for event flag(s) */
  804190:	e0bff817 	ldw	r2,-32(fp)
  804194:	10800017 	ldw	r2,0(r2)
  804198:	e0bff815 	stw	r2,-32(fp)
             *perr = OS_ERR_FLAG_INVALID_OPT;
             return ((OS_FLAGS)0);
    }
    sched = OS_FALSE;                                /* Indicate that we don't need rescheduling       */
    pnode = (OS_FLAG_NODE *)pgrp->OSFlagWaitList;
    while (pnode != (OS_FLAG_NODE *)0) {             /* Go through all tasks waiting on event flag(s)  */
  80419c:	e0bff817 	ldw	r2,-32(fp)
  8041a0:	1004c03a 	cmpne	r2,r2,zero
  8041a4:	103f881e 	bne	r2,zero,803fc8 <OSFlagPost+0x144>
  8041a8:	e0bff517 	ldw	r2,-44(fp)
  8041ac:	e0bff115 	stw	r2,-60(fp)
  8041b0:	e0bff117 	ldw	r2,-60(fp)
  8041b4:	1001703a 	wrctl	status,r2
                 return ((OS_FLAGS)0);
        }
        pnode = (OS_FLAG_NODE *)pnode->OSFlagNodeNext; /* Point to next task waiting for event flag(s) */
    }
    OS_EXIT_CRITICAL();
    if (sched == OS_TRUE) {
  8041b8:	e0bff783 	ldbu	r2,-34(fp)
  8041bc:	10800058 	cmpnei	r2,r2,1
  8041c0:	1000011e 	bne	r2,zero,8041c8 <OSFlagPost+0x344>
        OS_Sched();
  8041c4:	08025b40 	call	8025b4 <OS_Sched>
static ALT_INLINE alt_irq_context ALT_ALWAYS_INLINE 
       alt_irq_disable_all (void)
{
  alt_irq_context context;

  NIOS2_READ_STATUS (context);
  8041c8:	0005303a 	rdctl	r2,status
  8041cc:	e0bff015 	stw	r2,-64(fp)

  NIOS2_WRITE_STATUS (context & ~NIOS2_STATUS_PIE_MSK);
  8041d0:	e0fff017 	ldw	r3,-64(fp)
  8041d4:	00bfff84 	movi	r2,-2
  8041d8:	1884703a 	and	r2,r3,r2
  8041dc:	1001703a 	wrctl	status,r2
  
  return context;
  8041e0:	e0bff017 	ldw	r2,-64(fp)
    }
    OS_ENTER_CRITICAL();
  8041e4:	e0bff515 	stw	r2,-44(fp)
    flags_cur = pgrp->OSFlagFlags;
  8041e8:	e0bff917 	ldw	r2,-28(fp)
  8041ec:	1080020b 	ldhu	r2,8(r2)
  8041f0:	e0bff70d 	sth	r2,-36(fp)
  8041f4:	e0bff517 	ldw	r2,-44(fp)
  8041f8:	e0bfef15 	stw	r2,-68(fp)
  status &= ~NIOS2_STATUS_PIE_MSK;
  status |= (context & NIOS2_STATUS_PIE_MSK);
  
  NIOS2_WRITE_STATUS (status);
#else
  NIOS2_WRITE_STATUS (context);
  8041fc:	e0bfef17 	ldw	r2,-68(fp)
  804200:	1001703a 	wrctl	status,r2
    OS_EXIT_CRITICAL();
    *perr     = OS_ERR_NONE;
  804204:	e0bffc17 	ldw	r2,-16(fp)
  804208:	10000005 	stb	zero,0(r2)
    return (flags_cur);
  80420c:	e0bff70b 	ldhu	r2,-36(fp)
  804210:	e0bfff15 	stw	r2,-4(fp)
  804214:	e0bfff17 	ldw	r2,-4(fp)
}
  804218:	e037883a 	mov	sp,fp
  80421c:	dfc00117 	ldw	ra,4(sp)
  804220:	df000017 	ldw	fp,0(sp)
  804224:	dec00204 	addi	sp,sp,8
  804228:	f800283a 	ret

0080422c <OSFlagQuery>:
*********************************************************************************************************
*/

#if OS_FLAG_QUERY_EN > 0
OS_FLAGS  OSFlagQuery (OS_FLAG_GRP *pgrp, INT8U *perr)
{
  80422c:	defff804 	addi	sp,sp,-32
  804230:	df000715 	stw	fp,28(sp)
  804234:	df000704 	addi	fp,sp,28
  804238:	e13ffd15 	stw	r4,-12(fp)
  80423c:	e17ffe15 	stw	r5,-8(fp)
    OS_FLAGS   flags;
#if OS_CRITICAL_METHOD == 3                       /* Allocate storage for CPU status register          */
    OS_CPU_SR  cpu_sr = 0;
  804240:	e03ffb15 	stw	zero,-20(fp)
#endif



#if OS_ARG_CHK_EN > 0
    if (perr == (INT8U *)0) {                     /* Validate 'perr'                                   */
  804244:	e0bffe17 	ldw	r2,-8(fp)
  804248:	1004c03a 	cmpne	r2,r2,zero
  80424c:	1000021e 	bne	r2,zero,804258 <OSFlagQuery+0x2c>
        return ((OS_FLAGS)0);
  804250:	e03fff15 	stw	zero,-4(fp)
  804254:	00002506 	br	8042ec <OSFlagQuery+0xc0>
    }
    if (pgrp == (OS_FLAG_GRP *)0) {               /* Validate 'pgrp'                                   */
  804258:	e0bffd17 	ldw	r2,-12(fp)
  80425c:	1004c03a 	cmpne	r2,r2,zero
  804260:	1000051e 	bne	r2,zero,804278 <OSFlagQuery+0x4c>
        *perr = OS_ERR_FLAG_INVALID_PGRP;
  804264:	e0fffe17 	ldw	r3,-8(fp)
  804268:	00801b84 	movi	r2,110
  80426c:	18800005 	stb	r2,0(r3)
        return ((OS_FLAGS)0);
  804270:	e03fff15 	stw	zero,-4(fp)
  804274:	00001d06 	br	8042ec <OSFlagQuery+0xc0>
    }
#endif
    if (pgrp->OSFlagType != OS_EVENT_TYPE_FLAG) { /* Validate event block type                         */
  804278:	e0bffd17 	ldw	r2,-12(fp)
  80427c:	10800003 	ldbu	r2,0(r2)
  804280:	10803fcc 	andi	r2,r2,255
  804284:	10800160 	cmpeqi	r2,r2,5
  804288:	1000051e 	bne	r2,zero,8042a0 <OSFlagQuery+0x74>
        *perr = OS_ERR_EVENT_TYPE;
  80428c:	e0fffe17 	ldw	r3,-8(fp)
  804290:	00800044 	movi	r2,1
  804294:	18800005 	stb	r2,0(r3)
        return ((OS_FLAGS)0);
  804298:	e03fff15 	stw	zero,-4(fp)
  80429c:	00001306 	br	8042ec <OSFlagQuery+0xc0>
static ALT_INLINE alt_irq_context ALT_ALWAYS_INLINE 
       alt_irq_disable_all (void)
{
  alt_irq_context context;

  NIOS2_READ_STATUS (context);
  8042a0:	0005303a 	rdctl	r2,status
  8042a4:	e0bffa15 	stw	r2,-24(fp)

  NIOS2_WRITE_STATUS (context & ~NIOS2_STATUS_PIE_MSK);
  8042a8:	e0fffa17 	ldw	r3,-24(fp)
  8042ac:	00bfff84 	movi	r2,-2
  8042b0:	1884703a 	and	r2,r3,r2
  8042b4:	1001703a 	wrctl	status,r2
  
  return context;
  8042b8:	e0bffa17 	ldw	r2,-24(fp)
    }
    OS_ENTER_CRITICAL();
  8042bc:	e0bffb15 	stw	r2,-20(fp)
    flags = pgrp->OSFlagFlags;
  8042c0:	e0bffd17 	ldw	r2,-12(fp)
  8042c4:	1080020b 	ldhu	r2,8(r2)
  8042c8:	e0bffc0d 	sth	r2,-16(fp)
  8042cc:	e0bffb17 	ldw	r2,-20(fp)
  8042d0:	e0bff915 	stw	r2,-28(fp)
  status &= ~NIOS2_STATUS_PIE_MSK;
  status |= (context & NIOS2_STATUS_PIE_MSK);
  
  NIOS2_WRITE_STATUS (status);
#else
  NIOS2_WRITE_STATUS (context);
  8042d4:	e0bff917 	ldw	r2,-28(fp)
  8042d8:	1001703a 	wrctl	status,r2
    OS_EXIT_CRITICAL();
    *perr = OS_ERR_NONE;
  8042dc:	e0bffe17 	ldw	r2,-8(fp)
  8042e0:	10000005 	stb	zero,0(r2)
    return (flags);                               /* Return the current value of the event flags       */
  8042e4:	e0bffc0b 	ldhu	r2,-16(fp)
  8042e8:	e0bfff15 	stw	r2,-4(fp)
  8042ec:	e0bfff17 	ldw	r2,-4(fp)
}
  8042f0:	e037883a 	mov	sp,fp
  8042f4:	df000017 	ldw	fp,0(sp)
  8042f8:	dec00104 	addi	sp,sp,4
  8042fc:	f800283a 	ret

00804300 <OS_FlagBlock>:
* Note(s)    : This function is INTERNAL to uC/OS-II and your application should not call it.
*********************************************************************************************************
*/

static  void  OS_FlagBlock (OS_FLAG_GRP *pgrp, OS_FLAG_NODE *pnode, OS_FLAGS flags, INT8U wait_type, INT16U timeout)
{
  804300:	defff804 	addi	sp,sp,-32
  804304:	df000715 	stw	fp,28(sp)
  804308:	df000704 	addi	fp,sp,28
  80430c:	e13ffb15 	stw	r4,-20(fp)
  804310:	e17ffc15 	stw	r5,-16(fp)
  804314:	e0800117 	ldw	r2,4(fp)
  804318:	e1bffd0d 	sth	r6,-12(fp)
  80431c:	e1fffe05 	stb	r7,-8(fp)
  804320:	e0bfff0d 	sth	r2,-4(fp)
    OS_FLAG_NODE  *pnode_next;
    INT8U          y;


    OSTCBCur->OSTCBStat      |= OS_STAT_FLAG;
  804324:	00802074 	movhi	r2,129
  804328:	10875604 	addi	r2,r2,7512
  80432c:	10c00017 	ldw	r3,0(r2)
  804330:	00802074 	movhi	r2,129
  804334:	10875604 	addi	r2,r2,7512
  804338:	10800017 	ldw	r2,0(r2)
  80433c:	10800c03 	ldbu	r2,48(r2)
  804340:	10800814 	ori	r2,r2,32
  804344:	18800c05 	stb	r2,48(r3)
    OSTCBCur->OSTCBStatPend   = OS_STAT_PEND_OK;
  804348:	00802074 	movhi	r2,129
  80434c:	10875604 	addi	r2,r2,7512
  804350:	10800017 	ldw	r2,0(r2)
  804354:	10000c45 	stb	zero,49(r2)
    OSTCBCur->OSTCBDly        = timeout;              /* Store timeout in task's TCB                   */
  804358:	00802074 	movhi	r2,129
  80435c:	10875604 	addi	r2,r2,7512
  804360:	10c00017 	ldw	r3,0(r2)
  804364:	e0bfff0b 	ldhu	r2,-4(fp)
  804368:	18800b8d 	sth	r2,46(r3)
#if OS_TASK_DEL_EN > 0
    OSTCBCur->OSTCBFlagNode   = pnode;                /* TCB to link to node                           */
  80436c:	00802074 	movhi	r2,129
  804370:	10875604 	addi	r2,r2,7512
  804374:	10c00017 	ldw	r3,0(r2)
  804378:	e0bffc17 	ldw	r2,-16(fp)
  80437c:	18800a15 	stw	r2,40(r3)
#endif
    pnode->OSFlagNodeFlags    = flags;                /* Save the flags that we need to wait for       */
  804380:	e0fffc17 	ldw	r3,-16(fp)
  804384:	e0bffd0b 	ldhu	r2,-12(fp)
  804388:	1880040d 	sth	r2,16(r3)
    pnode->OSFlagNodeWaitType = wait_type;            /* Save the type of wait we are doing            */
  80438c:	e0fffc17 	ldw	r3,-16(fp)
  804390:	e0bffe03 	ldbu	r2,-8(fp)
  804394:	18800485 	stb	r2,18(r3)
    pnode->OSFlagNodeTCB      = (void *)OSTCBCur;     /* Link to task's TCB                            */
  804398:	00802074 	movhi	r2,129
  80439c:	10875604 	addi	r2,r2,7512
  8043a0:	10c00017 	ldw	r3,0(r2)
  8043a4:	e0bffc17 	ldw	r2,-16(fp)
  8043a8:	10c00215 	stw	r3,8(r2)
    pnode->OSFlagNodeNext     = pgrp->OSFlagWaitList; /* Add node at beginning of event flag wait list */
  8043ac:	e0bffb17 	ldw	r2,-20(fp)
  8043b0:	10c00117 	ldw	r3,4(r2)
  8043b4:	e0bffc17 	ldw	r2,-16(fp)
  8043b8:	10c00015 	stw	r3,0(r2)
    pnode->OSFlagNodePrev     = (void *)0;
  8043bc:	e0bffc17 	ldw	r2,-16(fp)
  8043c0:	10000115 	stw	zero,4(r2)
    pnode->OSFlagNodeFlagGrp  = (void *)pgrp;         /* Link to Event Flag Group                      */
  8043c4:	e0fffc17 	ldw	r3,-16(fp)
  8043c8:	e0bffb17 	ldw	r2,-20(fp)
  8043cc:	18800315 	stw	r2,12(r3)
    pnode_next                = (OS_FLAG_NODE *)pgrp->OSFlagWaitList;
  8043d0:	e0bffb17 	ldw	r2,-20(fp)
  8043d4:	10800117 	ldw	r2,4(r2)
  8043d8:	e0bffa15 	stw	r2,-24(fp)
    if (pnode_next != (void *)0) {                    /* Is this the first NODE to insert?             */
  8043dc:	e0bffa17 	ldw	r2,-24(fp)
  8043e0:	1005003a 	cmpeq	r2,r2,zero
  8043e4:	1000031e 	bne	r2,zero,8043f4 <OS_FlagBlock+0xf4>
        pnode_next->OSFlagNodePrev = pnode;           /* No, link in doubly linked list                */
  8043e8:	e0fffa17 	ldw	r3,-24(fp)
  8043ec:	e0bffc17 	ldw	r2,-16(fp)
  8043f0:	18800115 	stw	r2,4(r3)
    }
    pgrp->OSFlagWaitList = (void *)pnode;
  8043f4:	e0fffb17 	ldw	r3,-20(fp)
  8043f8:	e0bffc17 	ldw	r2,-16(fp)
  8043fc:	18800115 	stw	r2,4(r3)

    y            =  OSTCBCur->OSTCBY;                 /* Suspend current task until flag(s) received   */
  804400:	00802074 	movhi	r2,129
  804404:	10875604 	addi	r2,r2,7512
  804408:	10800017 	ldw	r2,0(r2)
  80440c:	10800d03 	ldbu	r2,52(r2)
  804410:	e0bff905 	stb	r2,-28(fp)
    OSRdyTbl[y] &= ~OSTCBCur->OSTCBBitX;
  804414:	e13ff903 	ldbu	r4,-28(fp)
  804418:	e0fff903 	ldbu	r3,-28(fp)
  80441c:	00802074 	movhi	r2,129
  804420:	10875344 	addi	r2,r2,7501
  804424:	10c5883a 	add	r2,r2,r3
  804428:	10800003 	ldbu	r2,0(r2)
  80442c:	1007883a 	mov	r3,r2
  804430:	00802074 	movhi	r2,129
  804434:	10875604 	addi	r2,r2,7512
  804438:	10800017 	ldw	r2,0(r2)
  80443c:	10800d43 	ldbu	r2,53(r2)
  804440:	0084303a 	nor	r2,zero,r2
  804444:	1884703a 	and	r2,r3,r2
  804448:	1007883a 	mov	r3,r2
  80444c:	00802074 	movhi	r2,129
  804450:	10875344 	addi	r2,r2,7501
  804454:	1105883a 	add	r2,r2,r4
  804458:	10c00005 	stb	r3,0(r2)
    if (OSRdyTbl[y] == 0x00) {
  80445c:	e0fff903 	ldbu	r3,-28(fp)
  804460:	00802074 	movhi	r2,129
  804464:	10875344 	addi	r2,r2,7501
  804468:	10c5883a 	add	r2,r2,r3
  80446c:	10800003 	ldbu	r2,0(r2)
  804470:	10803fcc 	andi	r2,r2,255
  804474:	1004c03a 	cmpne	r2,r2,zero
  804478:	10000e1e 	bne	r2,zero,8044b4 <OS_FlagBlock+0x1b4>
        OSRdyGrp &= ~OSTCBCur->OSTCBBitY;
  80447c:	00802074 	movhi	r2,129
  804480:	10875604 	addi	r2,r2,7512
  804484:	10800017 	ldw	r2,0(r2)
  804488:	10800d83 	ldbu	r2,54(r2)
  80448c:	0084303a 	nor	r2,zero,r2
  804490:	1007883a 	mov	r3,r2
  804494:	00802074 	movhi	r2,129
  804498:	10875304 	addi	r2,r2,7500
  80449c:	10800003 	ldbu	r2,0(r2)
  8044a0:	1884703a 	and	r2,r3,r2
  8044a4:	1007883a 	mov	r3,r2
  8044a8:	00802074 	movhi	r2,129
  8044ac:	10875304 	addi	r2,r2,7500
  8044b0:	10c00005 	stb	r3,0(r2)
    }
}
  8044b4:	e037883a 	mov	sp,fp
  8044b8:	df000017 	ldw	fp,0(sp)
  8044bc:	dec00104 	addi	sp,sp,4
  8044c0:	f800283a 	ret

008044c4 <OS_FlagInit>:
* WARNING    : You MUST NOT call this function from your code.  This is an INTERNAL function to uC/OS-II.
*********************************************************************************************************
*/

void  OS_FlagInit (void)
{
  8044c4:	defffb04 	addi	sp,sp,-20
  8044c8:	dfc00415 	stw	ra,16(sp)
  8044cc:	df000315 	stw	fp,12(sp)
  8044d0:	df000304 	addi	fp,sp,12
    INT16U       i;
    OS_FLAG_GRP *pgrp1;
    OS_FLAG_GRP *pgrp2;


    OS_MemClr((INT8U *)&OSFlagTbl[0], sizeof(OSFlagTbl));           /* Clear the flag group table      */
  8044d4:	01002074 	movhi	r4,129
  8044d8:	211f6d04 	addi	r4,r4,32180
  8044dc:	0140dc04 	movi	r5,880
  8044e0:	08024f40 	call	8024f4 <OS_MemClr>
    pgrp1 = &OSFlagTbl[0];
  8044e4:	00802074 	movhi	r2,129
  8044e8:	109f6d04 	addi	r2,r2,32180
  8044ec:	e0bffe15 	stw	r2,-8(fp)
    pgrp2 = &OSFlagTbl[1];
  8044f0:	00802074 	movhi	r2,129
  8044f4:	109f7804 	addi	r2,r2,32224
  8044f8:	e0bffd15 	stw	r2,-12(fp)
    for (i = 0; i < (OS_MAX_FLAGS - 1); i++) {                      /* Init. list of free EVENT FLAGS  */
  8044fc:	e03fff0d 	sth	zero,-4(fp)
  804500:	00001306 	br	804550 <OS_FlagInit+0x8c>
        pgrp1->OSFlagType     = OS_EVENT_TYPE_UNUSED;
  804504:	e0bffe17 	ldw	r2,-8(fp)
  804508:	10000005 	stb	zero,0(r2)
        pgrp1->OSFlagWaitList = (void *)pgrp2;
  80450c:	e0fffe17 	ldw	r3,-8(fp)
  804510:	e0bffd17 	ldw	r2,-12(fp)
  804514:	18800115 	stw	r2,4(r3)
#if OS_FLAG_NAME_SIZE > 1
        pgrp1->OSFlagName[0]  = '?';                                /* Unknown name                    */
  804518:	e0fffe17 	ldw	r3,-8(fp)
  80451c:	00800fc4 	movi	r2,63
  804520:	18800285 	stb	r2,10(r3)
        pgrp1->OSFlagName[1]  = OS_ASCII_NUL;
  804524:	e0bffe17 	ldw	r2,-8(fp)
  804528:	100002c5 	stb	zero,11(r2)
#endif
        pgrp1++;
  80452c:	e0bffe17 	ldw	r2,-8(fp)
  804530:	10800b04 	addi	r2,r2,44
  804534:	e0bffe15 	stw	r2,-8(fp)
        pgrp2++;
  804538:	e0bffd17 	ldw	r2,-12(fp)
  80453c:	10800b04 	addi	r2,r2,44
  804540:	e0bffd15 	stw	r2,-12(fp)


    OS_MemClr((INT8U *)&OSFlagTbl[0], sizeof(OSFlagTbl));           /* Clear the flag group table      */
    pgrp1 = &OSFlagTbl[0];
    pgrp2 = &OSFlagTbl[1];
    for (i = 0; i < (OS_MAX_FLAGS - 1); i++) {                      /* Init. list of free EVENT FLAGS  */
  804544:	e0bfff0b 	ldhu	r2,-4(fp)
  804548:	10800044 	addi	r2,r2,1
  80454c:	e0bfff0d 	sth	r2,-4(fp)
  804550:	e0bfff0b 	ldhu	r2,-4(fp)
  804554:	108004f0 	cmpltui	r2,r2,19
  804558:	103fea1e 	bne	r2,zero,804504 <OS_FlagInit+0x40>
        pgrp1->OSFlagName[1]  = OS_ASCII_NUL;
#endif
        pgrp1++;
        pgrp2++;
    }
    pgrp1->OSFlagType     = OS_EVENT_TYPE_UNUSED;
  80455c:	e0bffe17 	ldw	r2,-8(fp)
  804560:	10000005 	stb	zero,0(r2)
    pgrp1->OSFlagWaitList = (void *)0;
  804564:	e0bffe17 	ldw	r2,-8(fp)
  804568:	10000115 	stw	zero,4(r2)
#if OS_FLAG_NAME_SIZE > 1
    pgrp1->OSFlagName[0]  = '?';                                    /* Unknown name                    */
  80456c:	e0fffe17 	ldw	r3,-8(fp)
  804570:	00800fc4 	movi	r2,63
  804574:	18800285 	stb	r2,10(r3)
    pgrp1->OSFlagName[1]  = OS_ASCII_NUL;
  804578:	e0bffe17 	ldw	r2,-8(fp)
  80457c:	100002c5 	stb	zero,11(r2)
#endif
    OSFlagFreeList        = &OSFlagTbl[0];
  804580:	00c02074 	movhi	r3,129
  804584:	18c75804 	addi	r3,r3,7520
  804588:	00802074 	movhi	r2,129
  80458c:	109f6d04 	addi	r2,r2,32180
  804590:	18800015 	stw	r2,0(r3)
#endif
}
  804594:	e037883a 	mov	sp,fp
  804598:	dfc00117 	ldw	ra,4(sp)
  80459c:	df000017 	ldw	fp,0(sp)
  8045a0:	dec00204 	addi	sp,sp,8
  8045a4:	f800283a 	ret

008045a8 <OS_FlagTaskRdy>:
*              2) This function is INTERNAL to uC/OS-II and your application should not call it.
*********************************************************************************************************
*/

static  BOOLEAN  OS_FlagTaskRdy (OS_FLAG_NODE *pnode, OS_FLAGS flags_rdy)
{
  8045a8:	defffa04 	addi	sp,sp,-24
  8045ac:	dfc00515 	stw	ra,20(sp)
  8045b0:	df000415 	stw	fp,16(sp)
  8045b4:	df000404 	addi	fp,sp,16
  8045b8:	e13ffe15 	stw	r4,-8(fp)
  8045bc:	e17fff0d 	sth	r5,-4(fp)
    OS_TCB   *ptcb;
    BOOLEAN   sched;


    ptcb                 = (OS_TCB *)pnode->OSFlagNodeTCB; /* Point to TCB of waiting task             */
  8045c0:	e0bffe17 	ldw	r2,-8(fp)
  8045c4:	10800217 	ldw	r2,8(r2)
  8045c8:	e0bffd15 	stw	r2,-12(fp)
    ptcb->OSTCBDly       = 0;
  8045cc:	e0bffd17 	ldw	r2,-12(fp)
  8045d0:	10000b8d 	sth	zero,46(r2)
    ptcb->OSTCBFlagsRdy  = flags_rdy;
  8045d4:	e0fffd17 	ldw	r3,-12(fp)
  8045d8:	e0bfff0b 	ldhu	r2,-4(fp)
  8045dc:	18800b0d 	sth	r2,44(r3)
    ptcb->OSTCBStat     &= ~(INT8U)OS_STAT_FLAG;
  8045e0:	e0bffd17 	ldw	r2,-12(fp)
  8045e4:	10c00c03 	ldbu	r3,48(r2)
  8045e8:	00bff7c4 	movi	r2,-33
  8045ec:	1884703a 	and	r2,r3,r2
  8045f0:	1007883a 	mov	r3,r2
  8045f4:	e0bffd17 	ldw	r2,-12(fp)
  8045f8:	10c00c05 	stb	r3,48(r2)
    ptcb->OSTCBStatPend  = OS_STAT_PEND_OK;
  8045fc:	e0bffd17 	ldw	r2,-12(fp)
  804600:	10000c45 	stb	zero,49(r2)
    if (ptcb->OSTCBStat == OS_STAT_RDY) {                  /* Task now ready?                          */
  804604:	e0bffd17 	ldw	r2,-12(fp)
  804608:	10800c03 	ldbu	r2,48(r2)
  80460c:	10803fcc 	andi	r2,r2,255
  804610:	1004c03a 	cmpne	r2,r2,zero
  804614:	10001f1e 	bne	r2,zero,804694 <OS_FlagTaskRdy+0xec>
        OSRdyGrp               |= ptcb->OSTCBBitY;         /* Put task into ready list                 */
  804618:	e0bffd17 	ldw	r2,-12(fp)
  80461c:	10c00d83 	ldbu	r3,54(r2)
  804620:	00802074 	movhi	r2,129
  804624:	10875304 	addi	r2,r2,7500
  804628:	10800003 	ldbu	r2,0(r2)
  80462c:	1884b03a 	or	r2,r3,r2
  804630:	1007883a 	mov	r3,r2
  804634:	00802074 	movhi	r2,129
  804638:	10875304 	addi	r2,r2,7500
  80463c:	10c00005 	stb	r3,0(r2)
        OSRdyTbl[ptcb->OSTCBY] |= ptcb->OSTCBBitX;
  804640:	e0bffd17 	ldw	r2,-12(fp)
  804644:	10800d03 	ldbu	r2,52(r2)
  804648:	11003fcc 	andi	r4,r2,255
  80464c:	e0bffd17 	ldw	r2,-12(fp)
  804650:	10800d03 	ldbu	r2,52(r2)
  804654:	10c03fcc 	andi	r3,r2,255
  804658:	00802074 	movhi	r2,129
  80465c:	10875344 	addi	r2,r2,7501
  804660:	10c5883a 	add	r2,r2,r3
  804664:	10c00003 	ldbu	r3,0(r2)
  804668:	e0bffd17 	ldw	r2,-12(fp)
  80466c:	10800d43 	ldbu	r2,53(r2)
  804670:	1884b03a 	or	r2,r3,r2
  804674:	1007883a 	mov	r3,r2
  804678:	00802074 	movhi	r2,129
  80467c:	10875344 	addi	r2,r2,7501
  804680:	1105883a 	add	r2,r2,r4
  804684:	10c00005 	stb	r3,0(r2)
        sched                   = OS_TRUE;
  804688:	00800044 	movi	r2,1
  80468c:	e0bffc05 	stb	r2,-16(fp)
  804690:	00000106 	br	804698 <OS_FlagTaskRdy+0xf0>
    } else {
        sched                   = OS_FALSE;
  804694:	e03ffc05 	stb	zero,-16(fp)
    }
    OS_FlagUnlink(pnode);
  804698:	e13ffe17 	ldw	r4,-8(fp)
  80469c:	08046b80 	call	8046b8 <OS_FlagUnlink>
    return (sched);
  8046a0:	e0bffc03 	ldbu	r2,-16(fp)
}
  8046a4:	e037883a 	mov	sp,fp
  8046a8:	dfc00117 	ldw	ra,4(sp)
  8046ac:	df000017 	ldw	fp,0(sp)
  8046b0:	dec00204 	addi	sp,sp,8
  8046b4:	f800283a 	ret

008046b8 <OS_FlagUnlink>:
*              2) This function is INTERNAL to uC/OS-II and your application should not call it.
*********************************************************************************************************
*/

void  OS_FlagUnlink (OS_FLAG_NODE *pnode)
{
  8046b8:	defffa04 	addi	sp,sp,-24
  8046bc:	df000515 	stw	fp,20(sp)
  8046c0:	df000504 	addi	fp,sp,20
  8046c4:	e13fff15 	stw	r4,-4(fp)
    OS_FLAG_GRP  *pgrp;
    OS_FLAG_NODE *pnode_prev;
    OS_FLAG_NODE *pnode_next;


    pnode_prev = (OS_FLAG_NODE *)pnode->OSFlagNodePrev;
  8046c8:	e0bfff17 	ldw	r2,-4(fp)
  8046cc:	10800117 	ldw	r2,4(r2)
  8046d0:	e0bffc15 	stw	r2,-16(fp)
    pnode_next = (OS_FLAG_NODE *)pnode->OSFlagNodeNext;
  8046d4:	e0bfff17 	ldw	r2,-4(fp)
  8046d8:	10800017 	ldw	r2,0(r2)
  8046dc:	e0bffb15 	stw	r2,-20(fp)
    if (pnode_prev == (OS_FLAG_NODE *)0) {                      /* Is it first node in wait list?      */
  8046e0:	e0bffc17 	ldw	r2,-16(fp)
  8046e4:	1004c03a 	cmpne	r2,r2,zero
  8046e8:	10000c1e 	bne	r2,zero,80471c <OS_FlagUnlink+0x64>
        pgrp                 = (OS_FLAG_GRP *)pnode->OSFlagNodeFlagGrp;
  8046ec:	e0bfff17 	ldw	r2,-4(fp)
  8046f0:	10800317 	ldw	r2,12(r2)
  8046f4:	e0bffd15 	stw	r2,-12(fp)
        pgrp->OSFlagWaitList = (void *)pnode_next;              /*      Update list for new 1st node   */
  8046f8:	e0fffd17 	ldw	r3,-12(fp)
  8046fc:	e0bffb17 	ldw	r2,-20(fp)
  804700:	18800115 	stw	r2,4(r3)
        if (pnode_next != (OS_FLAG_NODE *)0) {
  804704:	e0bffb17 	ldw	r2,-20(fp)
  804708:	1005003a 	cmpeq	r2,r2,zero
  80470c:	10000c1e 	bne	r2,zero,804740 <OS_FlagUnlink+0x88>
            pnode_next->OSFlagNodePrev = (OS_FLAG_NODE *)0;     /*      Link new 1st node PREV to NULL */
  804710:	e0bffb17 	ldw	r2,-20(fp)
  804714:	10000115 	stw	zero,4(r2)
  804718:	00000906 	br	804740 <OS_FlagUnlink+0x88>
        }
    } else {                                                    /* No,  A node somewhere in the list   */
        pnode_prev->OSFlagNodeNext = pnode_next;                /*      Link around the node to unlink */
  80471c:	e0fffc17 	ldw	r3,-16(fp)
  804720:	e0bffb17 	ldw	r2,-20(fp)
  804724:	18800015 	stw	r2,0(r3)
        if (pnode_next != (OS_FLAG_NODE *)0) {                  /*      Was this the LAST node?        */
  804728:	e0bffb17 	ldw	r2,-20(fp)
  80472c:	1005003a 	cmpeq	r2,r2,zero
  804730:	1000031e 	bne	r2,zero,804740 <OS_FlagUnlink+0x88>
            pnode_next->OSFlagNodePrev = pnode_prev;            /*      No, Link around current node   */
  804734:	e0fffb17 	ldw	r3,-20(fp)
  804738:	e0bffc17 	ldw	r2,-16(fp)
  80473c:	18800115 	stw	r2,4(r3)
        }
    }
#if OS_TASK_DEL_EN > 0
    ptcb                = (OS_TCB *)pnode->OSFlagNodeTCB;
  804740:	e0bfff17 	ldw	r2,-4(fp)
  804744:	10800217 	ldw	r2,8(r2)
  804748:	e0bffe15 	stw	r2,-8(fp)
    ptcb->OSTCBFlagNode = (OS_FLAG_NODE *)0;
  80474c:	e0bffe17 	ldw	r2,-8(fp)
  804750:	10000a15 	stw	zero,40(r2)
#endif
}
  804754:	e037883a 	mov	sp,fp
  804758:	df000017 	ldw	fp,0(sp)
  80475c:	dec00104 	addi	sp,sp,4
  804760:	f800283a 	ret

00804764 <OSMemCreate>:
*                              free partition is available.
*********************************************************************************************************
*/

OS_MEM  *OSMemCreate (void *addr, INT32U nblks, INT32U blksize, INT8U *perr)
{
  804764:	defff304 	addi	sp,sp,-52
  804768:	df000c15 	stw	fp,48(sp)
  80476c:	df000c04 	addi	fp,sp,48
  804770:	e13ffb15 	stw	r4,-20(fp)
  804774:	e17ffc15 	stw	r5,-16(fp)
  804778:	e1bffd15 	stw	r6,-12(fp)
  80477c:	e1fffe15 	stw	r7,-8(fp)
    OS_MEM    *pmem;
    INT8U     *pblk;
    void     **plink;
    INT32U     i;
#if OS_CRITICAL_METHOD == 3                           /* Allocate storage for CPU status register      */
    OS_CPU_SR  cpu_sr = 0;
  804780:	e03ff615 	stw	zero,-40(fp)
#endif



#if OS_ARG_CHK_EN > 0              
    if (perr == (INT8U *)0) {                         /* Validate 'perr'                               */
  804784:	e0bffe17 	ldw	r2,-8(fp)
  804788:	1004c03a 	cmpne	r2,r2,zero
  80478c:	1000021e 	bne	r2,zero,804798 <OSMemCreate+0x34>
        return ((OS_MEM *)0);
  804790:	e03fff15 	stw	zero,-4(fp)
  804794:	00007506 	br	80496c <OSMemCreate+0x208>
    }
    if (addr == (void *)0) {                          /* Must pass a valid address for the memory part.*/
  804798:	e0bffb17 	ldw	r2,-20(fp)
  80479c:	1004c03a 	cmpne	r2,r2,zero
  8047a0:	1000051e 	bne	r2,zero,8047b8 <OSMemCreate+0x54>
        *perr = OS_ERR_MEM_INVALID_ADDR;
  8047a4:	e0fffe17 	ldw	r3,-8(fp)
  8047a8:	00801884 	movi	r2,98
  8047ac:	18800005 	stb	r2,0(r3)
        return ((OS_MEM *)0);
  8047b0:	e03fff15 	stw	zero,-4(fp)
  8047b4:	00006d06 	br	80496c <OSMemCreate+0x208>
    }
    if (((INT32U)addr & (sizeof(void *) - 1)) != 0){  /* Must be pointer size aligned                  */
  8047b8:	e0bffb17 	ldw	r2,-20(fp)
  8047bc:	108000cc 	andi	r2,r2,3
  8047c0:	1005003a 	cmpeq	r2,r2,zero
  8047c4:	1000051e 	bne	r2,zero,8047dc <OSMemCreate+0x78>
        *perr = OS_ERR_MEM_INVALID_ADDR;
  8047c8:	e0fffe17 	ldw	r3,-8(fp)
  8047cc:	00801884 	movi	r2,98
  8047d0:	18800005 	stb	r2,0(r3)
        return ((OS_MEM *)0);
  8047d4:	e03fff15 	stw	zero,-4(fp)
  8047d8:	00006406 	br	80496c <OSMemCreate+0x208>
    }
    if (nblks < 2) {                                  /* Must have at least 2 blocks per partition     */
  8047dc:	e0bffc17 	ldw	r2,-16(fp)
  8047e0:	108000a8 	cmpgeui	r2,r2,2
  8047e4:	1000051e 	bne	r2,zero,8047fc <OSMemCreate+0x98>
        *perr = OS_ERR_MEM_INVALID_BLKS;
  8047e8:	e0fffe17 	ldw	r3,-8(fp)
  8047ec:	008016c4 	movi	r2,91
  8047f0:	18800005 	stb	r2,0(r3)
        return ((OS_MEM *)0);
  8047f4:	e03fff15 	stw	zero,-4(fp)
  8047f8:	00005c06 	br	80496c <OSMemCreate+0x208>
    }
    if (blksize < sizeof(void *)) {                   /* Must contain space for at least a pointer     */
  8047fc:	e0bffd17 	ldw	r2,-12(fp)
  804800:	10800128 	cmpgeui	r2,r2,4
  804804:	1000051e 	bne	r2,zero,80481c <OSMemCreate+0xb8>
        *perr = OS_ERR_MEM_INVALID_SIZE;
  804808:	e0fffe17 	ldw	r3,-8(fp)
  80480c:	00801704 	movi	r2,92
  804810:	18800005 	stb	r2,0(r3)
        return ((OS_MEM *)0);
  804814:	e03fff15 	stw	zero,-4(fp)
  804818:	00005406 	br	80496c <OSMemCreate+0x208>
static ALT_INLINE alt_irq_context ALT_ALWAYS_INLINE 
       alt_irq_disable_all (void)
{
  alt_irq_context context;

  NIOS2_READ_STATUS (context);
  80481c:	0005303a 	rdctl	r2,status
  804820:	e0bff515 	stw	r2,-44(fp)

  NIOS2_WRITE_STATUS (context & ~NIOS2_STATUS_PIE_MSK);
  804824:	e0fff517 	ldw	r3,-44(fp)
  804828:	00bfff84 	movi	r2,-2
  80482c:	1884703a 	and	r2,r3,r2
  804830:	1001703a 	wrctl	status,r2
  
  return context;
  804834:	e0bff517 	ldw	r2,-44(fp)
    }
#endif
    OS_ENTER_CRITICAL();
  804838:	e0bff615 	stw	r2,-40(fp)
    pmem = OSMemFreeList;                             /* Get next free memory partition                */
  80483c:	00802074 	movhi	r2,129
  804840:	10875004 	addi	r2,r2,7488
  804844:	10800017 	ldw	r2,0(r2)
  804848:	e0bffa15 	stw	r2,-24(fp)
    if (OSMemFreeList != (OS_MEM *)0) {               /* See if pool of free partitions was empty      */
  80484c:	00802074 	movhi	r2,129
  804850:	10875004 	addi	r2,r2,7488
  804854:	10800017 	ldw	r2,0(r2)
  804858:	1005003a 	cmpeq	r2,r2,zero
  80485c:	1000081e 	bne	r2,zero,804880 <OSMemCreate+0x11c>
        OSMemFreeList = (OS_MEM *)OSMemFreeList->OSMemFreeList;
  804860:	00802074 	movhi	r2,129
  804864:	10875004 	addi	r2,r2,7488
  804868:	10800017 	ldw	r2,0(r2)
  80486c:	10800117 	ldw	r2,4(r2)
  804870:	1007883a 	mov	r3,r2
  804874:	00802074 	movhi	r2,129
  804878:	10875004 	addi	r2,r2,7488
  80487c:	10c00015 	stw	r3,0(r2)
  804880:	e0bff617 	ldw	r2,-40(fp)
  804884:	e0bff415 	stw	r2,-48(fp)
  status &= ~NIOS2_STATUS_PIE_MSK;
  status |= (context & NIOS2_STATUS_PIE_MSK);
  
  NIOS2_WRITE_STATUS (status);
#else
  NIOS2_WRITE_STATUS (context);
  804888:	e0bff417 	ldw	r2,-48(fp)
  80488c:	1001703a 	wrctl	status,r2
    }
    OS_EXIT_CRITICAL();
    if (pmem == (OS_MEM *)0) {                        /* See if we have a memory partition             */
  804890:	e0bffa17 	ldw	r2,-24(fp)
  804894:	1004c03a 	cmpne	r2,r2,zero
  804898:	1000051e 	bne	r2,zero,8048b0 <OSMemCreate+0x14c>
        *perr = OS_ERR_MEM_INVALID_PART;
  80489c:	e0fffe17 	ldw	r3,-8(fp)
  8048a0:	00801684 	movi	r2,90
  8048a4:	18800005 	stb	r2,0(r3)
        return ((OS_MEM *)0);
  8048a8:	e03fff15 	stw	zero,-4(fp)
  8048ac:	00002f06 	br	80496c <OSMemCreate+0x208>
    }
    plink = (void **)addr;                            /* Create linked list of free memory blocks      */
  8048b0:	e0bffb17 	ldw	r2,-20(fp)
  8048b4:	e0bff815 	stw	r2,-32(fp)
    pblk  = (INT8U *)((INT32U)addr + blksize);
  8048b8:	e0bffb17 	ldw	r2,-20(fp)
  8048bc:	1007883a 	mov	r3,r2
  8048c0:	e0bffd17 	ldw	r2,-12(fp)
  8048c4:	1885883a 	add	r2,r3,r2
  8048c8:	e0bff915 	stw	r2,-28(fp)
    for (i = 0; i < (nblks - 1); i++) {
  8048cc:	e03ff715 	stw	zero,-36(fp)
  8048d0:	00000d06 	br	804908 <OSMemCreate+0x1a4>
       *plink = (void *)pblk;                         /* Save pointer to NEXT block in CURRENT block   */
  8048d4:	e0fff817 	ldw	r3,-32(fp)
  8048d8:	e0bff917 	ldw	r2,-28(fp)
  8048dc:	18800015 	stw	r2,0(r3)
        plink = (void **)pblk;                        /* Position to  NEXT      block                  */
  8048e0:	e0bff917 	ldw	r2,-28(fp)
  8048e4:	e0bff815 	stw	r2,-32(fp)
        pblk  = (INT8U *)((INT32U)pblk + blksize);    /* Point to the FOLLOWING block                  */
  8048e8:	e0bff917 	ldw	r2,-28(fp)
  8048ec:	1007883a 	mov	r3,r2
  8048f0:	e0bffd17 	ldw	r2,-12(fp)
  8048f4:	1885883a 	add	r2,r3,r2
  8048f8:	e0bff915 	stw	r2,-28(fp)
        *perr = OS_ERR_MEM_INVALID_PART;
        return ((OS_MEM *)0);
    }
    plink = (void **)addr;                            /* Create linked list of free memory blocks      */
    pblk  = (INT8U *)((INT32U)addr + blksize);
    for (i = 0; i < (nblks - 1); i++) {
  8048fc:	e0bff717 	ldw	r2,-36(fp)
  804900:	10800044 	addi	r2,r2,1
  804904:	e0bff715 	stw	r2,-36(fp)
  804908:	e0bffc17 	ldw	r2,-16(fp)
  80490c:	10ffffc4 	addi	r3,r2,-1
  804910:	e0bff717 	ldw	r2,-36(fp)
  804914:	10ffef36 	bltu	r2,r3,8048d4 <OSMemCreate+0x170>
       *plink = (void *)pblk;                         /* Save pointer to NEXT block in CURRENT block   */
        plink = (void **)pblk;                        /* Position to  NEXT      block                  */
        pblk  = (INT8U *)((INT32U)pblk + blksize);    /* Point to the FOLLOWING block                  */
    }
    *plink              = (void *)0;                  /* Last memory block points to NULL              */
  804918:	e0bff817 	ldw	r2,-32(fp)
  80491c:	10000015 	stw	zero,0(r2)
    pmem->OSMemAddr     = addr;                       /* Store start address of memory partition       */
  804920:	e0fffa17 	ldw	r3,-24(fp)
  804924:	e0bffb17 	ldw	r2,-20(fp)
  804928:	18800015 	stw	r2,0(r3)
    pmem->OSMemFreeList = addr;                       /* Initialize pointer to pool of free blocks     */
  80492c:	e0fffa17 	ldw	r3,-24(fp)
  804930:	e0bffb17 	ldw	r2,-20(fp)
  804934:	18800115 	stw	r2,4(r3)
    pmem->OSMemNFree    = nblks;                      /* Store number of free blocks in MCB            */
  804938:	e0fffa17 	ldw	r3,-24(fp)
  80493c:	e0bffc17 	ldw	r2,-16(fp)
  804940:	18800415 	stw	r2,16(r3)
    pmem->OSMemNBlks    = nblks;
  804944:	e0fffa17 	ldw	r3,-24(fp)
  804948:	e0bffc17 	ldw	r2,-16(fp)
  80494c:	18800315 	stw	r2,12(r3)
    pmem->OSMemBlkSize  = blksize;                    /* Store block size of each memory blocks        */
  804950:	e0fffa17 	ldw	r3,-24(fp)
  804954:	e0bffd17 	ldw	r2,-12(fp)
  804958:	18800215 	stw	r2,8(r3)
    *perr               = OS_ERR_NONE;
  80495c:	e0bffe17 	ldw	r2,-8(fp)
  804960:	10000005 	stb	zero,0(r2)
    return (pmem);
  804964:	e0bffa17 	ldw	r2,-24(fp)
  804968:	e0bfff15 	stw	r2,-4(fp)
  80496c:	e0bfff17 	ldw	r2,-4(fp)
}
  804970:	e037883a 	mov	sp,fp
  804974:	df000017 	ldw	fp,0(sp)
  804978:	dec00104 	addi	sp,sp,4
  80497c:	f800283a 	ret

00804980 <OSMemGet>:
*               A pointer to NULL if an error is detected
*********************************************************************************************************
*/

void  *OSMemGet (OS_MEM *pmem, INT8U *perr)
{
  804980:	defff704 	addi	sp,sp,-36
  804984:	df000815 	stw	fp,32(sp)
  804988:	df000804 	addi	fp,sp,32
  80498c:	e13ffd15 	stw	r4,-12(fp)
  804990:	e17ffe15 	stw	r5,-8(fp)
    void      *pblk;
#if OS_CRITICAL_METHOD == 3                           /* Allocate storage for CPU status register      */
    OS_CPU_SR  cpu_sr = 0;
  804994:	e03ffb15 	stw	zero,-20(fp)
#endif



#if OS_ARG_CHK_EN > 0
    if (perr == (INT8U *)0) {                         /* Validate 'perr'                               */
  804998:	e0bffe17 	ldw	r2,-8(fp)
  80499c:	1004c03a 	cmpne	r2,r2,zero
  8049a0:	1000021e 	bne	r2,zero,8049ac <OSMemGet+0x2c>
        return ((void *)0);
  8049a4:	e03fff15 	stw	zero,-4(fp)
  8049a8:	00003106 	br	804a70 <OSMemGet+0xf0>
    }
    if (pmem == (OS_MEM *)0) {                        /* Must point to a valid memory partition        */
  8049ac:	e0bffd17 	ldw	r2,-12(fp)
  8049b0:	1004c03a 	cmpne	r2,r2,zero
  8049b4:	1000051e 	bne	r2,zero,8049cc <OSMemGet+0x4c>
        *perr = OS_ERR_MEM_INVALID_PMEM;
  8049b8:	e0fffe17 	ldw	r3,-8(fp)
  8049bc:	00801804 	movi	r2,96
  8049c0:	18800005 	stb	r2,0(r3)
        return ((void *)0);
  8049c4:	e03fff15 	stw	zero,-4(fp)
  8049c8:	00002906 	br	804a70 <OSMemGet+0xf0>
static ALT_INLINE alt_irq_context ALT_ALWAYS_INLINE 
       alt_irq_disable_all (void)
{
  alt_irq_context context;

  NIOS2_READ_STATUS (context);
  8049cc:	0005303a 	rdctl	r2,status
  8049d0:	e0bffa15 	stw	r2,-24(fp)

  NIOS2_WRITE_STATUS (context & ~NIOS2_STATUS_PIE_MSK);
  8049d4:	e0fffa17 	ldw	r3,-24(fp)
  8049d8:	00bfff84 	movi	r2,-2
  8049dc:	1884703a 	and	r2,r3,r2
  8049e0:	1001703a 	wrctl	status,r2
  
  return context;
  8049e4:	e0bffa17 	ldw	r2,-24(fp)
    }
#endif
    OS_ENTER_CRITICAL();
  8049e8:	e0bffb15 	stw	r2,-20(fp)
    if (pmem->OSMemNFree > 0) {                       /* See if there are any free memory blocks       */
  8049ec:	e0bffd17 	ldw	r2,-12(fp)
  8049f0:	10800417 	ldw	r2,16(r2)
  8049f4:	1005003a 	cmpeq	r2,r2,zero
  8049f8:	1000151e 	bne	r2,zero,804a50 <OSMemGet+0xd0>
        pblk                = pmem->OSMemFreeList;    /* Yes, point to next free memory block          */
  8049fc:	e0bffd17 	ldw	r2,-12(fp)
  804a00:	10800117 	ldw	r2,4(r2)
  804a04:	e0bffc15 	stw	r2,-16(fp)
        pmem->OSMemFreeList = *(void **)pblk;         /*      Adjust pointer to new free list          */
  804a08:	e0bffc17 	ldw	r2,-16(fp)
  804a0c:	10c00017 	ldw	r3,0(r2)
  804a10:	e0bffd17 	ldw	r2,-12(fp)
  804a14:	10c00115 	stw	r3,4(r2)
        pmem->OSMemNFree--;                           /*      One less memory block in this partition  */
  804a18:	e0bffd17 	ldw	r2,-12(fp)
  804a1c:	10800417 	ldw	r2,16(r2)
  804a20:	10ffffc4 	addi	r3,r2,-1
  804a24:	e0bffd17 	ldw	r2,-12(fp)
  804a28:	10c00415 	stw	r3,16(r2)
  804a2c:	e0bffb17 	ldw	r2,-20(fp)
  804a30:	e0bff915 	stw	r2,-28(fp)
  status &= ~NIOS2_STATUS_PIE_MSK;
  status |= (context & NIOS2_STATUS_PIE_MSK);
  
  NIOS2_WRITE_STATUS (status);
#else
  NIOS2_WRITE_STATUS (context);
  804a34:	e0bff917 	ldw	r2,-28(fp)
  804a38:	1001703a 	wrctl	status,r2
        OS_EXIT_CRITICAL();
        *perr = OS_ERR_NONE;                          /*      No error                                 */
  804a3c:	e0bffe17 	ldw	r2,-8(fp)
  804a40:	10000005 	stb	zero,0(r2)
        return (pblk);                                /*      Return memory block to caller            */
  804a44:	e0bffc17 	ldw	r2,-16(fp)
  804a48:	e0bfff15 	stw	r2,-4(fp)
  804a4c:	00000806 	br	804a70 <OSMemGet+0xf0>
  804a50:	e0bffb17 	ldw	r2,-20(fp)
  804a54:	e0bff815 	stw	r2,-32(fp)
  804a58:	e0bff817 	ldw	r2,-32(fp)
  804a5c:	1001703a 	wrctl	status,r2
    }
    OS_EXIT_CRITICAL();
    *perr = OS_ERR_MEM_NO_FREE_BLKS;                  /* No,  Notify caller of empty memory partition  */
  804a60:	e0fffe17 	ldw	r3,-8(fp)
  804a64:	00801744 	movi	r2,93
  804a68:	18800005 	stb	r2,0(r3)
    return ((void *)0);                               /*      Return NULL pointer to caller            */
  804a6c:	e03fff15 	stw	zero,-4(fp)
  804a70:	e0bfff17 	ldw	r2,-4(fp)
}
  804a74:	e037883a 	mov	sp,fp
  804a78:	df000017 	ldw	fp,0(sp)
  804a7c:	dec00104 	addi	sp,sp,4
  804a80:	f800283a 	ret

00804a84 <OSMemNameGet>:
*********************************************************************************************************
*/

#if OS_MEM_NAME_SIZE > 1
INT8U  OSMemNameGet (OS_MEM *pmem, INT8U *pname, INT8U *perr)
{
  804a84:	defff604 	addi	sp,sp,-40
  804a88:	dfc00915 	stw	ra,36(sp)
  804a8c:	df000815 	stw	fp,32(sp)
  804a90:	df000804 	addi	fp,sp,32
  804a94:	e13ffc15 	stw	r4,-16(fp)
  804a98:	e17ffd15 	stw	r5,-12(fp)
  804a9c:	e1bffe15 	stw	r6,-8(fp)
    INT8U      len;
#if OS_CRITICAL_METHOD == 3                      /* Allocate storage for CPU status register           */
    OS_CPU_SR  cpu_sr = 0;
  804aa0:	e03ffa15 	stw	zero,-24(fp)
#endif



#if OS_ARG_CHK_EN > 0
    if (perr == (INT8U *)0) {                    /* Validate 'perr'                                    */
  804aa4:	e0bffe17 	ldw	r2,-8(fp)
  804aa8:	1004c03a 	cmpne	r2,r2,zero
  804aac:	1000021e 	bne	r2,zero,804ab8 <OSMemNameGet+0x34>
        return (0);
  804ab0:	e03fff15 	stw	zero,-4(fp)
  804ab4:	00003006 	br	804b78 <OSMemNameGet+0xf4>
    }
    if (pmem == (OS_MEM *)0) {                   /* Is 'pmem' a NULL pointer?                          */
  804ab8:	e0bffc17 	ldw	r2,-16(fp)
  804abc:	1004c03a 	cmpne	r2,r2,zero
  804ac0:	1000051e 	bne	r2,zero,804ad8 <OSMemNameGet+0x54>
        *perr = OS_ERR_MEM_INVALID_PMEM;
  804ac4:	e0fffe17 	ldw	r3,-8(fp)
  804ac8:	00801804 	movi	r2,96
  804acc:	18800005 	stb	r2,0(r3)
        return (0);
  804ad0:	e03fff15 	stw	zero,-4(fp)
  804ad4:	00002806 	br	804b78 <OSMemNameGet+0xf4>
    }
    if (pname == (INT8U *)0) {                   /* Is 'pname' a NULL pointer?                         */
  804ad8:	e0bffd17 	ldw	r2,-12(fp)
  804adc:	1004c03a 	cmpne	r2,r2,zero
  804ae0:	1000051e 	bne	r2,zero,804af8 <OSMemNameGet+0x74>
        *perr = OS_ERR_PNAME_NULL;
  804ae4:	e0fffe17 	ldw	r3,-8(fp)
  804ae8:	00800304 	movi	r2,12
  804aec:	18800005 	stb	r2,0(r3)
        return (0);
  804af0:	e03fff15 	stw	zero,-4(fp)
  804af4:	00002006 	br	804b78 <OSMemNameGet+0xf4>
    }
#endif
    if (OSIntNesting > 0) {                      /* See if trying to call from an ISR                  */
  804af8:	00802074 	movhi	r2,129
  804afc:	10875504 	addi	r2,r2,7508
  804b00:	10800003 	ldbu	r2,0(r2)
  804b04:	10803fcc 	andi	r2,r2,255
  804b08:	1005003a 	cmpeq	r2,r2,zero
  804b0c:	1000051e 	bne	r2,zero,804b24 <OSMemNameGet+0xa0>
        *perr = OS_ERR_NAME_GET_ISR;
  804b10:	e0fffe17 	ldw	r3,-8(fp)
  804b14:	00800444 	movi	r2,17
  804b18:	18800005 	stb	r2,0(r3)
        return (0);
  804b1c:	e03fff15 	stw	zero,-4(fp)
  804b20:	00001506 	br	804b78 <OSMemNameGet+0xf4>
static ALT_INLINE alt_irq_context ALT_ALWAYS_INLINE 
       alt_irq_disable_all (void)
{
  alt_irq_context context;

  NIOS2_READ_STATUS (context);
  804b24:	0005303a 	rdctl	r2,status
  804b28:	e0bff915 	stw	r2,-28(fp)

  NIOS2_WRITE_STATUS (context & ~NIOS2_STATUS_PIE_MSK);
  804b2c:	e0fff917 	ldw	r3,-28(fp)
  804b30:	00bfff84 	movi	r2,-2
  804b34:	1884703a 	and	r2,r3,r2
  804b38:	1001703a 	wrctl	status,r2
  
  return context;
  804b3c:	e0bff917 	ldw	r2,-28(fp)
    }
    OS_ENTER_CRITICAL();
  804b40:	e0bffa15 	stw	r2,-24(fp)
    len   = OS_StrCopy(pname, pmem->OSMemName);  /* Copy name from OS_MEM                              */
  804b44:	e0bffc17 	ldw	r2,-16(fp)
  804b48:	11400504 	addi	r5,r2,20
  804b4c:	e13ffd17 	ldw	r4,-12(fp)
  804b50:	08026f80 	call	8026f8 <OS_StrCopy>
  804b54:	e0bffb05 	stb	r2,-20(fp)
  804b58:	e0bffa17 	ldw	r2,-24(fp)
  804b5c:	e0bff815 	stw	r2,-32(fp)
  status &= ~NIOS2_STATUS_PIE_MSK;
  status |= (context & NIOS2_STATUS_PIE_MSK);
  
  NIOS2_WRITE_STATUS (status);
#else
  NIOS2_WRITE_STATUS (context);
  804b60:	e0bff817 	ldw	r2,-32(fp)
  804b64:	1001703a 	wrctl	status,r2
    OS_EXIT_CRITICAL();
    *perr = OS_ERR_NONE;
  804b68:	e0bffe17 	ldw	r2,-8(fp)
  804b6c:	10000005 	stb	zero,0(r2)
    return (len);
  804b70:	e0bffb03 	ldbu	r2,-20(fp)
  804b74:	e0bfff15 	stw	r2,-4(fp)
  804b78:	e0bfff17 	ldw	r2,-4(fp)
}
  804b7c:	e037883a 	mov	sp,fp
  804b80:	dfc00117 	ldw	ra,4(sp)
  804b84:	df000017 	ldw	fp,0(sp)
  804b88:	dec00204 	addi	sp,sp,8
  804b8c:	f800283a 	ret

00804b90 <OSMemNameSet>:
*********************************************************************************************************
*/

#if OS_MEM_NAME_SIZE > 1
void  OSMemNameSet (OS_MEM *pmem, INT8U *pname, INT8U *perr)
{
  804b90:	defff604 	addi	sp,sp,-40
  804b94:	dfc00915 	stw	ra,36(sp)
  804b98:	df000815 	stw	fp,32(sp)
  804b9c:	df000804 	addi	fp,sp,32
  804ba0:	e13ffd15 	stw	r4,-12(fp)
  804ba4:	e17ffe15 	stw	r5,-8(fp)
  804ba8:	e1bfff15 	stw	r6,-4(fp)
    INT8U      len;
#if OS_CRITICAL_METHOD == 3                      /* Allocate storage for CPU status register           */
    OS_CPU_SR  cpu_sr = 0;
  804bac:	e03ffb15 	stw	zero,-20(fp)
#endif



#if OS_ARG_CHK_EN > 0
    if (perr == (INT8U *)0) {                    /* Validate 'perr'                                    */
  804bb0:	e0bfff17 	ldw	r2,-4(fp)
  804bb4:	1005003a 	cmpeq	r2,r2,zero
  804bb8:	1000381e 	bne	r2,zero,804c9c <OSMemNameSet+0x10c>
        return;
    }
    if (pmem == (OS_MEM *)0) {                   /* Is 'pmem' a NULL pointer?                          */
  804bbc:	e0bffd17 	ldw	r2,-12(fp)
  804bc0:	1004c03a 	cmpne	r2,r2,zero
  804bc4:	1000041e 	bne	r2,zero,804bd8 <OSMemNameSet+0x48>
        *perr = OS_ERR_MEM_INVALID_PMEM;
  804bc8:	e0ffff17 	ldw	r3,-4(fp)
  804bcc:	00801804 	movi	r2,96
  804bd0:	18800005 	stb	r2,0(r3)
        return;
  804bd4:	00003106 	br	804c9c <OSMemNameSet+0x10c>
    }
    if (pname == (INT8U *)0) {                   /* Is 'pname' a NULL pointer?                         */
  804bd8:	e0bffe17 	ldw	r2,-8(fp)
  804bdc:	1004c03a 	cmpne	r2,r2,zero
  804be0:	1000041e 	bne	r2,zero,804bf4 <OSMemNameSet+0x64>
        *perr = OS_ERR_PNAME_NULL;
  804be4:	e0ffff17 	ldw	r3,-4(fp)
  804be8:	00800304 	movi	r2,12
  804bec:	18800005 	stb	r2,0(r3)
        return;
  804bf0:	00002a06 	br	804c9c <OSMemNameSet+0x10c>
    }
#endif
    if (OSIntNesting > 0) {                      /* See if trying to call from an ISR                  */
  804bf4:	00802074 	movhi	r2,129
  804bf8:	10875504 	addi	r2,r2,7508
  804bfc:	10800003 	ldbu	r2,0(r2)
  804c00:	10803fcc 	andi	r2,r2,255
  804c04:	1005003a 	cmpeq	r2,r2,zero
  804c08:	1000041e 	bne	r2,zero,804c1c <OSMemNameSet+0x8c>
        *perr = OS_ERR_NAME_SET_ISR;
  804c0c:	e0ffff17 	ldw	r3,-4(fp)
  804c10:	00800484 	movi	r2,18
  804c14:	18800005 	stb	r2,0(r3)
        return;
  804c18:	00002006 	br	804c9c <OSMemNameSet+0x10c>
static ALT_INLINE alt_irq_context ALT_ALWAYS_INLINE 
       alt_irq_disable_all (void)
{
  alt_irq_context context;

  NIOS2_READ_STATUS (context);
  804c1c:	0005303a 	rdctl	r2,status
  804c20:	e0bffa15 	stw	r2,-24(fp)

  NIOS2_WRITE_STATUS (context & ~NIOS2_STATUS_PIE_MSK);
  804c24:	e0fffa17 	ldw	r3,-24(fp)
  804c28:	00bfff84 	movi	r2,-2
  804c2c:	1884703a 	and	r2,r3,r2
  804c30:	1001703a 	wrctl	status,r2
  
  return context;
  804c34:	e0bffa17 	ldw	r2,-24(fp)
    }
    OS_ENTER_CRITICAL();
  804c38:	e0bffb15 	stw	r2,-20(fp)
    len = OS_StrLen(pname);                      /* Can we fit the string in the storage area?         */
  804c3c:	e13ffe17 	ldw	r4,-8(fp)
  804c40:	08027780 	call	802778 <OS_StrLen>
  804c44:	e0bffc05 	stb	r2,-16(fp)
    if (len > (OS_MEM_NAME_SIZE - 1)) {          /* No                                                 */
  804c48:	e0bffc03 	ldbu	r2,-16(fp)
  804c4c:	10800830 	cmpltui	r2,r2,32
  804c50:	1000081e 	bne	r2,zero,804c74 <OSMemNameSet+0xe4>
  804c54:	e0bffb17 	ldw	r2,-20(fp)
  804c58:	e0bff915 	stw	r2,-28(fp)
  status &= ~NIOS2_STATUS_PIE_MSK;
  status |= (context & NIOS2_STATUS_PIE_MSK);
  
  NIOS2_WRITE_STATUS (status);
#else
  NIOS2_WRITE_STATUS (context);
  804c5c:	e0bff917 	ldw	r2,-28(fp)
  804c60:	1001703a 	wrctl	status,r2
        OS_EXIT_CRITICAL();
        *perr = OS_ERR_MEM_NAME_TOO_LONG;
  804c64:	e0ffff17 	ldw	r3,-4(fp)
  804c68:	008018c4 	movi	r2,99
  804c6c:	18800005 	stb	r2,0(r3)
        return;
  804c70:	00000a06 	br	804c9c <OSMemNameSet+0x10c>
    }
    (void)OS_StrCopy(pmem->OSMemName, pname);    /* Yes, copy name to the memory partition header      */
  804c74:	e0bffd17 	ldw	r2,-12(fp)
  804c78:	11000504 	addi	r4,r2,20
  804c7c:	e17ffe17 	ldw	r5,-8(fp)
  804c80:	08026f80 	call	8026f8 <OS_StrCopy>
  804c84:	e0bffb17 	ldw	r2,-20(fp)
  804c88:	e0bff815 	stw	r2,-32(fp)
  804c8c:	e0bff817 	ldw	r2,-32(fp)
  804c90:	1001703a 	wrctl	status,r2
    OS_EXIT_CRITICAL();
    *perr = OS_ERR_NONE;
  804c94:	e0bfff17 	ldw	r2,-4(fp)
  804c98:	10000005 	stb	zero,0(r2)
}
  804c9c:	e037883a 	mov	sp,fp
  804ca0:	dfc00117 	ldw	ra,4(sp)
  804ca4:	df000017 	ldw	fp,0(sp)
  804ca8:	dec00204 	addi	sp,sp,8
  804cac:	f800283a 	ret

00804cb0 <OSMemPut>:
*               OS_ERR_MEM_INVALID_PBLK  if you passed a NULL pointer for the block to release.
*********************************************************************************************************
*/

INT8U  OSMemPut (OS_MEM *pmem, void *pblk)
{
  804cb0:	defff804 	addi	sp,sp,-32
  804cb4:	df000715 	stw	fp,28(sp)
  804cb8:	df000704 	addi	fp,sp,28
  804cbc:	e13ffd15 	stw	r4,-12(fp)
  804cc0:	e17ffe15 	stw	r5,-8(fp)
#if OS_CRITICAL_METHOD == 3                      /* Allocate storage for CPU status register           */
    OS_CPU_SR  cpu_sr = 0;
  804cc4:	e03ffc15 	stw	zero,-16(fp)
#endif



#if OS_ARG_CHK_EN > 0
    if (pmem == (OS_MEM *)0) {                   /* Must point to a valid memory partition             */
  804cc8:	e0bffd17 	ldw	r2,-12(fp)
  804ccc:	1004c03a 	cmpne	r2,r2,zero
  804cd0:	1000031e 	bne	r2,zero,804ce0 <OSMemPut+0x30>
        return (OS_ERR_MEM_INVALID_PMEM);
  804cd4:	00801804 	movi	r2,96
  804cd8:	e0bfff15 	stw	r2,-4(fp)
  804cdc:	00002b06 	br	804d8c <OSMemPut+0xdc>
    }
    if (pblk == (void *)0) {                     /* Must release a valid block                         */
  804ce0:	e0bffe17 	ldw	r2,-8(fp)
  804ce4:	1004c03a 	cmpne	r2,r2,zero
  804ce8:	1000031e 	bne	r2,zero,804cf8 <OSMemPut+0x48>
        return (OS_ERR_MEM_INVALID_PBLK);
  804cec:	008017c4 	movi	r2,95
  804cf0:	e0bfff15 	stw	r2,-4(fp)
  804cf4:	00002506 	br	804d8c <OSMemPut+0xdc>
static ALT_INLINE alt_irq_context ALT_ALWAYS_INLINE 
       alt_irq_disable_all (void)
{
  alt_irq_context context;

  NIOS2_READ_STATUS (context);
  804cf8:	0005303a 	rdctl	r2,status
  804cfc:	e0bffb15 	stw	r2,-20(fp)

  NIOS2_WRITE_STATUS (context & ~NIOS2_STATUS_PIE_MSK);
  804d00:	e0fffb17 	ldw	r3,-20(fp)
  804d04:	00bfff84 	movi	r2,-2
  804d08:	1884703a 	and	r2,r3,r2
  804d0c:	1001703a 	wrctl	status,r2
  
  return context;
  804d10:	e0bffb17 	ldw	r2,-20(fp)
    }
#endif
    OS_ENTER_CRITICAL();
  804d14:	e0bffc15 	stw	r2,-16(fp)
    if (pmem->OSMemNFree >= pmem->OSMemNBlks) {  /* Make sure all blocks not already returned          */
  804d18:	e0bffd17 	ldw	r2,-12(fp)
  804d1c:	10c00417 	ldw	r3,16(r2)
  804d20:	e0bffd17 	ldw	r2,-12(fp)
  804d24:	10800317 	ldw	r2,12(r2)
  804d28:	18800736 	bltu	r3,r2,804d48 <OSMemPut+0x98>
  804d2c:	e0bffc17 	ldw	r2,-16(fp)
  804d30:	e0bffa15 	stw	r2,-24(fp)
  status &= ~NIOS2_STATUS_PIE_MSK;
  status |= (context & NIOS2_STATUS_PIE_MSK);
  
  NIOS2_WRITE_STATUS (status);
#else
  NIOS2_WRITE_STATUS (context);
  804d34:	e0bffa17 	ldw	r2,-24(fp)
  804d38:	1001703a 	wrctl	status,r2
        OS_EXIT_CRITICAL();
        return (OS_ERR_MEM_FULL);
  804d3c:	00801784 	movi	r2,94
  804d40:	e0bfff15 	stw	r2,-4(fp)
  804d44:	00001106 	br	804d8c <OSMemPut+0xdc>
    }
    *(void **)pblk      = pmem->OSMemFreeList;   /* Insert released block into free block list         */
  804d48:	e0fffe17 	ldw	r3,-8(fp)
  804d4c:	e0bffd17 	ldw	r2,-12(fp)
  804d50:	10800117 	ldw	r2,4(r2)
  804d54:	18800015 	stw	r2,0(r3)
    pmem->OSMemFreeList = pblk;
  804d58:	e0fffd17 	ldw	r3,-12(fp)
  804d5c:	e0bffe17 	ldw	r2,-8(fp)
  804d60:	18800115 	stw	r2,4(r3)
    pmem->OSMemNFree++;                          /* One more memory block in this partition            */
  804d64:	e0bffd17 	ldw	r2,-12(fp)
  804d68:	10800417 	ldw	r2,16(r2)
  804d6c:	10c00044 	addi	r3,r2,1
  804d70:	e0bffd17 	ldw	r2,-12(fp)
  804d74:	10c00415 	stw	r3,16(r2)
  804d78:	e0bffc17 	ldw	r2,-16(fp)
  804d7c:	e0bff915 	stw	r2,-28(fp)
  804d80:	e0bff917 	ldw	r2,-28(fp)
  804d84:	1001703a 	wrctl	status,r2
    OS_EXIT_CRITICAL();
    return (OS_ERR_NONE);                        /* Notify caller that memory block was released       */
  804d88:	e03fff15 	stw	zero,-4(fp)
  804d8c:	e0bfff17 	ldw	r2,-4(fp)
}
  804d90:	e037883a 	mov	sp,fp
  804d94:	df000017 	ldw	fp,0(sp)
  804d98:	dec00104 	addi	sp,sp,4
  804d9c:	f800283a 	ret

00804da0 <OSMemQuery>:
*********************************************************************************************************
*/

#if OS_MEM_QUERY_EN > 0
INT8U  OSMemQuery (OS_MEM *pmem, OS_MEM_DATA *p_mem_data)
{
  804da0:	defff904 	addi	sp,sp,-28
  804da4:	df000615 	stw	fp,24(sp)
  804da8:	df000604 	addi	fp,sp,24
  804dac:	e13ffd15 	stw	r4,-12(fp)
  804db0:	e17ffe15 	stw	r5,-8(fp)
#if OS_CRITICAL_METHOD == 3                      /* Allocate storage for CPU status register           */
    OS_CPU_SR  cpu_sr = 0;
  804db4:	e03ffc15 	stw	zero,-16(fp)
#endif



#if OS_ARG_CHK_EN > 0
    if (pmem == (OS_MEM *)0) {                   /* Must point to a valid memory partition             */
  804db8:	e0bffd17 	ldw	r2,-12(fp)
  804dbc:	1004c03a 	cmpne	r2,r2,zero
  804dc0:	1000031e 	bne	r2,zero,804dd0 <OSMemQuery+0x30>
        return (OS_ERR_MEM_INVALID_PMEM);
  804dc4:	00801804 	movi	r2,96
  804dc8:	e0bfff15 	stw	r2,-4(fp)
  804dcc:	00002e06 	br	804e88 <OSMemQuery+0xe8>
    }
    if (p_mem_data == (OS_MEM_DATA *)0) {        /* Must release a valid storage area for the data     */
  804dd0:	e0bffe17 	ldw	r2,-8(fp)
  804dd4:	1004c03a 	cmpne	r2,r2,zero
  804dd8:	1000031e 	bne	r2,zero,804de8 <OSMemQuery+0x48>
        return (OS_ERR_MEM_INVALID_PDATA);
  804ddc:	00801844 	movi	r2,97
  804de0:	e0bfff15 	stw	r2,-4(fp)
  804de4:	00002806 	br	804e88 <OSMemQuery+0xe8>
static ALT_INLINE alt_irq_context ALT_ALWAYS_INLINE 
       alt_irq_disable_all (void)
{
  alt_irq_context context;

  NIOS2_READ_STATUS (context);
  804de8:	0005303a 	rdctl	r2,status
  804dec:	e0bffb15 	stw	r2,-20(fp)

  NIOS2_WRITE_STATUS (context & ~NIOS2_STATUS_PIE_MSK);
  804df0:	e0fffb17 	ldw	r3,-20(fp)
  804df4:	00bfff84 	movi	r2,-2
  804df8:	1884703a 	and	r2,r3,r2
  804dfc:	1001703a 	wrctl	status,r2
  
  return context;
  804e00:	e0bffb17 	ldw	r2,-20(fp)
    }
#endif
    OS_ENTER_CRITICAL();
  804e04:	e0bffc15 	stw	r2,-16(fp)
    p_mem_data->OSAddr     = pmem->OSMemAddr;
  804e08:	e0bffd17 	ldw	r2,-12(fp)
  804e0c:	10c00017 	ldw	r3,0(r2)
  804e10:	e0bffe17 	ldw	r2,-8(fp)
  804e14:	10c00015 	stw	r3,0(r2)
    p_mem_data->OSFreeList = pmem->OSMemFreeList;
  804e18:	e0bffd17 	ldw	r2,-12(fp)
  804e1c:	10c00117 	ldw	r3,4(r2)
  804e20:	e0bffe17 	ldw	r2,-8(fp)
  804e24:	10c00115 	stw	r3,4(r2)
    p_mem_data->OSBlkSize  = pmem->OSMemBlkSize;
  804e28:	e0bffd17 	ldw	r2,-12(fp)
  804e2c:	10c00217 	ldw	r3,8(r2)
  804e30:	e0bffe17 	ldw	r2,-8(fp)
  804e34:	10c00215 	stw	r3,8(r2)
    p_mem_data->OSNBlks    = pmem->OSMemNBlks;
  804e38:	e0bffd17 	ldw	r2,-12(fp)
  804e3c:	10c00317 	ldw	r3,12(r2)
  804e40:	e0bffe17 	ldw	r2,-8(fp)
  804e44:	10c00315 	stw	r3,12(r2)
    p_mem_data->OSNFree    = pmem->OSMemNFree;
  804e48:	e0bffd17 	ldw	r2,-12(fp)
  804e4c:	10c00417 	ldw	r3,16(r2)
  804e50:	e0bffe17 	ldw	r2,-8(fp)
  804e54:	10c00415 	stw	r3,16(r2)
  804e58:	e0bffc17 	ldw	r2,-16(fp)
  804e5c:	e0bffa15 	stw	r2,-24(fp)
  status &= ~NIOS2_STATUS_PIE_MSK;
  status |= (context & NIOS2_STATUS_PIE_MSK);
  
  NIOS2_WRITE_STATUS (status);
#else
  NIOS2_WRITE_STATUS (context);
  804e60:	e0bffa17 	ldw	r2,-24(fp)
  804e64:	1001703a 	wrctl	status,r2
    OS_EXIT_CRITICAL();
    p_mem_data->OSNUsed    = p_mem_data->OSNBlks - p_mem_data->OSNFree;
  804e68:	e0bffe17 	ldw	r2,-8(fp)
  804e6c:	10c00317 	ldw	r3,12(r2)
  804e70:	e0bffe17 	ldw	r2,-8(fp)
  804e74:	10800417 	ldw	r2,16(r2)
  804e78:	1887c83a 	sub	r3,r3,r2
  804e7c:	e0bffe17 	ldw	r2,-8(fp)
  804e80:	10c00515 	stw	r3,20(r2)
    return (OS_ERR_NONE);
  804e84:	e03fff15 	stw	zero,-4(fp)
  804e88:	e0bfff17 	ldw	r2,-4(fp)
}
  804e8c:	e037883a 	mov	sp,fp
  804e90:	df000017 	ldw	fp,0(sp)
  804e94:	dec00104 	addi	sp,sp,4
  804e98:	f800283a 	ret

00804e9c <OS_MemInit>:
* Note(s)    : This function is INTERNAL to uC/OS-II and your application should not call it.
*********************************************************************************************************
*/

void  OS_MemInit (void)
{
  804e9c:	defffc04 	addi	sp,sp,-16
  804ea0:	dfc00315 	stw	ra,12(sp)
  804ea4:	df000215 	stw	fp,8(sp)
  804ea8:	df000204 	addi	fp,sp,8
#if OS_MAX_MEM_PART >= 2
    OS_MEM  *pmem;
    INT16U   i;


    OS_MemClr((INT8U *)&OSMemTbl[0], sizeof(OSMemTbl));   /* Clear the memory partition table          */
  804eac:	010020b4 	movhi	r4,130
  804eb0:	21204904 	addi	r4,r4,-32476
  804eb4:	01430c04 	movi	r5,3120
  804eb8:	08024f40 	call	8024f4 <OS_MemClr>
    pmem = &OSMemTbl[0];                                  /* Point to memory control block (MCB)       */
  804ebc:	008020b4 	movhi	r2,130
  804ec0:	10a04904 	addi	r2,r2,-32476
  804ec4:	e0bfff15 	stw	r2,-4(fp)
    for (i = 0; i < (OS_MAX_MEM_PART - 1); i++) {         /* Init. list of free memory partitions      */
  804ec8:	e03ffe0d 	sth	zero,-8(fp)
  804ecc:	00001406 	br	804f20 <OS_MemInit+0x84>
        pmem->OSMemFreeList = (void *)&OSMemTbl[i+1];     /* Chain list of free partitions             */
  804ed0:	e13ffe0b 	ldhu	r4,-8(fp)
  804ed4:	01400d04 	movi	r5,52
  804ed8:	080dd080 	call	80dd08 <__mulsi3>
  804edc:	1007883a 	mov	r3,r2
  804ee0:	008020b4 	movhi	r2,130
  804ee4:	10a05604 	addi	r2,r2,-32424
  804ee8:	1887883a 	add	r3,r3,r2
  804eec:	e0bfff17 	ldw	r2,-4(fp)
  804ef0:	10c00115 	stw	r3,4(r2)
#if OS_MEM_NAME_SIZE > 1
        pmem->OSMemName[0]  = '?';                        /* Unknown name                              */
  804ef4:	e0ffff17 	ldw	r3,-4(fp)
  804ef8:	00800fc4 	movi	r2,63
  804efc:	18800505 	stb	r2,20(r3)
        pmem->OSMemName[1]  = OS_ASCII_NUL;
  804f00:	e0bfff17 	ldw	r2,-4(fp)
  804f04:	10000545 	stb	zero,21(r2)
#endif
        pmem++;
  804f08:	e0bfff17 	ldw	r2,-4(fp)
  804f0c:	10800d04 	addi	r2,r2,52
  804f10:	e0bfff15 	stw	r2,-4(fp)
    INT16U   i;


    OS_MemClr((INT8U *)&OSMemTbl[0], sizeof(OSMemTbl));   /* Clear the memory partition table          */
    pmem = &OSMemTbl[0];                                  /* Point to memory control block (MCB)       */
    for (i = 0; i < (OS_MAX_MEM_PART - 1); i++) {         /* Init. list of free memory partitions      */
  804f14:	e0bffe0b 	ldhu	r2,-8(fp)
  804f18:	10800044 	addi	r2,r2,1
  804f1c:	e0bffe0d 	sth	r2,-8(fp)
  804f20:	e0bffe0b 	ldhu	r2,-8(fp)
  804f24:	10800ef0 	cmpltui	r2,r2,59
  804f28:	103fe91e 	bne	r2,zero,804ed0 <OS_MemInit+0x34>
        pmem->OSMemName[0]  = '?';                        /* Unknown name                              */
        pmem->OSMemName[1]  = OS_ASCII_NUL;
#endif
        pmem++;
    }
    pmem->OSMemFreeList = (void *)0;                      /* Initialize last node                      */
  804f2c:	e0bfff17 	ldw	r2,-4(fp)
  804f30:	10000115 	stw	zero,4(r2)
#if OS_MEM_NAME_SIZE > 1
    pmem->OSMemName[0]  = '?';                            /* Unknown name                              */
  804f34:	e0ffff17 	ldw	r3,-4(fp)
  804f38:	00800fc4 	movi	r2,63
  804f3c:	18800505 	stb	r2,20(r3)
    pmem->OSMemName[1]  = OS_ASCII_NUL;
  804f40:	e0bfff17 	ldw	r2,-4(fp)
  804f44:	10000545 	stb	zero,21(r2)
#endif

    OSMemFreeList       = &OSMemTbl[0];                   /* Point to beginning of free list           */
  804f48:	00c02074 	movhi	r3,129
  804f4c:	18c75004 	addi	r3,r3,7488
  804f50:	008020b4 	movhi	r2,130
  804f54:	10a04904 	addi	r2,r2,-32476
  804f58:	18800015 	stw	r2,0(r3)
#endif
}
  804f5c:	e037883a 	mov	sp,fp
  804f60:	dfc00117 	ldw	ra,4(sp)
  804f64:	df000017 	ldw	fp,0(sp)
  804f68:	dec00204 	addi	sp,sp,8
  804f6c:	f800283a 	ret

00804f70 <OSQAccept>:
*********************************************************************************************************
*/

#if OS_Q_ACCEPT_EN > 0
void  *OSQAccept (OS_EVENT *pevent, INT8U *perr)
{
  804f70:	defff704 	addi	sp,sp,-36
  804f74:	df000815 	stw	fp,32(sp)
  804f78:	df000804 	addi	fp,sp,32
  804f7c:	e13ffd15 	stw	r4,-12(fp)
  804f80:	e17ffe15 	stw	r5,-8(fp)
    void      *pmsg;
    OS_Q      *pq;
#if OS_CRITICAL_METHOD == 3                      /* Allocate storage for CPU status register           */
    OS_CPU_SR  cpu_sr = 0;
  804f84:	e03ffa15 	stw	zero,-24(fp)
#endif



#if OS_ARG_CHK_EN > 0
    if (perr == (INT8U *)0) {                    /* Validate 'perr'                                    */
  804f88:	e0bffe17 	ldw	r2,-8(fp)
  804f8c:	1004c03a 	cmpne	r2,r2,zero
  804f90:	1000021e 	bne	r2,zero,804f9c <OSQAccept+0x2c>
        return ((void *)0);
  804f94:	e03fff15 	stw	zero,-4(fp)
  804f98:	00004506 	br	8050b0 <OSQAccept+0x140>
    }
    if (pevent == (OS_EVENT *)0) {               /* Validate 'pevent'                                  */
  804f9c:	e0bffd17 	ldw	r2,-12(fp)
  804fa0:	1004c03a 	cmpne	r2,r2,zero
  804fa4:	1000051e 	bne	r2,zero,804fbc <OSQAccept+0x4c>
        *perr = OS_ERR_PEVENT_NULL;
  804fa8:	e0fffe17 	ldw	r3,-8(fp)
  804fac:	00800104 	movi	r2,4
  804fb0:	18800005 	stb	r2,0(r3)
        return ((void *)0);
  804fb4:	e03fff15 	stw	zero,-4(fp)
  804fb8:	00003d06 	br	8050b0 <OSQAccept+0x140>
    }
#endif
    if (pevent->OSEventType != OS_EVENT_TYPE_Q) {/* Validate event block type                          */
  804fbc:	e0bffd17 	ldw	r2,-12(fp)
  804fc0:	10800003 	ldbu	r2,0(r2)
  804fc4:	10803fcc 	andi	r2,r2,255
  804fc8:	108000a0 	cmpeqi	r2,r2,2
  804fcc:	1000051e 	bne	r2,zero,804fe4 <OSQAccept+0x74>
        *perr = OS_ERR_EVENT_TYPE;
  804fd0:	e0fffe17 	ldw	r3,-8(fp)
  804fd4:	00800044 	movi	r2,1
  804fd8:	18800005 	stb	r2,0(r3)
        return ((void *)0);
  804fdc:	e03fff15 	stw	zero,-4(fp)
  804fe0:	00003306 	br	8050b0 <OSQAccept+0x140>
static ALT_INLINE alt_irq_context ALT_ALWAYS_INLINE 
       alt_irq_disable_all (void)
{
  alt_irq_context context;

  NIOS2_READ_STATUS (context);
  804fe4:	0005303a 	rdctl	r2,status
  804fe8:	e0bff915 	stw	r2,-28(fp)

  NIOS2_WRITE_STATUS (context & ~NIOS2_STATUS_PIE_MSK);
  804fec:	e0fff917 	ldw	r3,-28(fp)
  804ff0:	00bfff84 	movi	r2,-2
  804ff4:	1884703a 	and	r2,r3,r2
  804ff8:	1001703a 	wrctl	status,r2
  
  return context;
  804ffc:	e0bff917 	ldw	r2,-28(fp)
    }
    OS_ENTER_CRITICAL();
  805000:	e0bffa15 	stw	r2,-24(fp)
    pq = (OS_Q *)pevent->OSEventPtr;             /* Point at queue control block                       */
  805004:	e0bffd17 	ldw	r2,-12(fp)
  805008:	10800117 	ldw	r2,4(r2)
  80500c:	e0bffb15 	stw	r2,-20(fp)
    if (pq->OSQEntries > 0) {                    /* See if any messages in the queue                   */
  805010:	e0bffb17 	ldw	r2,-20(fp)
  805014:	1080058b 	ldhu	r2,22(r2)
  805018:	10bfffcc 	andi	r2,r2,65535
  80501c:	1005003a 	cmpeq	r2,r2,zero
  805020:	1000191e 	bne	r2,zero,805088 <OSQAccept+0x118>
        pmsg = *pq->OSQOut++;                    /* Yes, extract oldest message from the queue         */
  805024:	e0bffb17 	ldw	r2,-20(fp)
  805028:	10c00417 	ldw	r3,16(r2)
  80502c:	18800017 	ldw	r2,0(r3)
  805030:	e0bffc15 	stw	r2,-16(fp)
  805034:	18c00104 	addi	r3,r3,4
  805038:	e0bffb17 	ldw	r2,-20(fp)
  80503c:	10c00415 	stw	r3,16(r2)
        pq->OSQEntries--;                        /* Update the number of entries in the queue          */
  805040:	e0bffb17 	ldw	r2,-20(fp)
  805044:	1080058b 	ldhu	r2,22(r2)
  805048:	10bfffc4 	addi	r2,r2,-1
  80504c:	1007883a 	mov	r3,r2
  805050:	e0bffb17 	ldw	r2,-20(fp)
  805054:	10c0058d 	sth	r3,22(r2)
        if (pq->OSQOut == pq->OSQEnd) {          /* Wrap OUT pointer if we are at the end of the queue */
  805058:	e0bffb17 	ldw	r2,-20(fp)
  80505c:	10c00417 	ldw	r3,16(r2)
  805060:	e0bffb17 	ldw	r2,-20(fp)
  805064:	10800217 	ldw	r2,8(r2)
  805068:	1880041e 	bne	r3,r2,80507c <OSQAccept+0x10c>
            pq->OSQOut = pq->OSQStart;
  80506c:	e0bffb17 	ldw	r2,-20(fp)
  805070:	10c00117 	ldw	r3,4(r2)
  805074:	e0bffb17 	ldw	r2,-20(fp)
  805078:	10c00415 	stw	r3,16(r2)
        }
        *perr = OS_ERR_NONE;
  80507c:	e0bffe17 	ldw	r2,-8(fp)
  805080:	10000005 	stb	zero,0(r2)
  805084:	00000406 	br	805098 <OSQAccept+0x128>
    } else {
        *perr = OS_ERR_Q_EMPTY;
  805088:	e0fffe17 	ldw	r3,-8(fp)
  80508c:	008007c4 	movi	r2,31
  805090:	18800005 	stb	r2,0(r3)
        pmsg  = (void *)0;                       /* Queue is empty                                     */
  805094:	e03ffc15 	stw	zero,-16(fp)
  805098:	e0bffa17 	ldw	r2,-24(fp)
  80509c:	e0bff815 	stw	r2,-32(fp)
  status &= ~NIOS2_STATUS_PIE_MSK;
  status |= (context & NIOS2_STATUS_PIE_MSK);
  
  NIOS2_WRITE_STATUS (status);
#else
  NIOS2_WRITE_STATUS (context);
  8050a0:	e0bff817 	ldw	r2,-32(fp)
  8050a4:	1001703a 	wrctl	status,r2
    }
    OS_EXIT_CRITICAL();
    return (pmsg);                               /* Return message received (or NULL)                  */
  8050a8:	e0bffc17 	ldw	r2,-16(fp)
  8050ac:	e0bfff15 	stw	r2,-4(fp)
  8050b0:	e0bfff17 	ldw	r2,-4(fp)
}
  8050b4:	e037883a 	mov	sp,fp
  8050b8:	df000017 	ldw	fp,0(sp)
  8050bc:	dec00104 	addi	sp,sp,4
  8050c0:	f800283a 	ret

008050c4 <OSQCreate>:
*              == (OS_EVENT *)0  if no event control blocks were available or an error was detected
*********************************************************************************************************
*/

OS_EVENT  *OSQCreate (void **start, INT16U size)
{
  8050c4:	defff304 	addi	sp,sp,-52
  8050c8:	dfc00c15 	stw	ra,48(sp)
  8050cc:	df000b15 	stw	fp,44(sp)
  8050d0:	df000b04 	addi	fp,sp,44
  8050d4:	e13ffd15 	stw	r4,-12(fp)
  8050d8:	e17ffe0d 	sth	r5,-8(fp)
    OS_EVENT  *pevent;
    OS_Q      *pq;
#if OS_CRITICAL_METHOD == 3                      /* Allocate storage for CPU status register           */
    OS_CPU_SR  cpu_sr = 0;
  8050dc:	e03ffa15 	stw	zero,-24(fp)
#endif



    if (OSIntNesting > 0) {                      /* See if called from ISR ...                         */
  8050e0:	00802074 	movhi	r2,129
  8050e4:	10875504 	addi	r2,r2,7508
  8050e8:	10800003 	ldbu	r2,0(r2)
  8050ec:	10803fcc 	andi	r2,r2,255
  8050f0:	1005003a 	cmpeq	r2,r2,zero
  8050f4:	1000021e 	bne	r2,zero,805100 <OSQCreate+0x3c>
        return ((OS_EVENT *)0);                  /* ... can't CREATE from an ISR                       */
  8050f8:	e03fff15 	stw	zero,-4(fp)
  8050fc:	00007006 	br	8052c0 <OSQCreate+0x1fc>
static ALT_INLINE alt_irq_context ALT_ALWAYS_INLINE 
       alt_irq_disable_all (void)
{
  alt_irq_context context;

  NIOS2_READ_STATUS (context);
  805100:	0005303a 	rdctl	r2,status
  805104:	e0bff915 	stw	r2,-28(fp)

  NIOS2_WRITE_STATUS (context & ~NIOS2_STATUS_PIE_MSK);
  805108:	e0fff917 	ldw	r3,-28(fp)
  80510c:	00bfff84 	movi	r2,-2
  805110:	1884703a 	and	r2,r3,r2
  805114:	1001703a 	wrctl	status,r2
  
  return context;
  805118:	e0bff917 	ldw	r2,-28(fp)
    }
    OS_ENTER_CRITICAL();
  80511c:	e0bffa15 	stw	r2,-24(fp)
    pevent = OSEventFreeList;                    /* Get next free event control block                  */
  805120:	00802074 	movhi	r2,129
  805124:	10875404 	addi	r2,r2,7504
  805128:	10800017 	ldw	r2,0(r2)
  80512c:	e0bffc15 	stw	r2,-16(fp)
    if (OSEventFreeList != (OS_EVENT *)0) {      /* See if pool of free ECB pool was empty             */
  805130:	00802074 	movhi	r2,129
  805134:	10875404 	addi	r2,r2,7504
  805138:	10800017 	ldw	r2,0(r2)
  80513c:	1005003a 	cmpeq	r2,r2,zero
  805140:	1000081e 	bne	r2,zero,805164 <OSQCreate+0xa0>
        OSEventFreeList = (OS_EVENT *)OSEventFreeList->OSEventPtr;
  805144:	00802074 	movhi	r2,129
  805148:	10875404 	addi	r2,r2,7504
  80514c:	10800017 	ldw	r2,0(r2)
  805150:	10800117 	ldw	r2,4(r2)
  805154:	1007883a 	mov	r3,r2
  805158:	00802074 	movhi	r2,129
  80515c:	10875404 	addi	r2,r2,7504
  805160:	10c00015 	stw	r3,0(r2)
  805164:	e0bffa17 	ldw	r2,-24(fp)
  805168:	e0bff815 	stw	r2,-32(fp)
  status &= ~NIOS2_STATUS_PIE_MSK;
  status |= (context & NIOS2_STATUS_PIE_MSK);
  
  NIOS2_WRITE_STATUS (status);
#else
  NIOS2_WRITE_STATUS (context);
  80516c:	e0bff817 	ldw	r2,-32(fp)
  805170:	1001703a 	wrctl	status,r2
    }
    OS_EXIT_CRITICAL();
    if (pevent != (OS_EVENT *)0) {               /* See if we have an event control block              */
  805174:	e0bffc17 	ldw	r2,-16(fp)
  805178:	1005003a 	cmpeq	r2,r2,zero
  80517c:	10004e1e 	bne	r2,zero,8052b8 <OSQCreate+0x1f4>
static ALT_INLINE alt_irq_context ALT_ALWAYS_INLINE 
       alt_irq_disable_all (void)
{
  alt_irq_context context;

  NIOS2_READ_STATUS (context);
  805180:	0005303a 	rdctl	r2,status
  805184:	e0bff715 	stw	r2,-36(fp)

  NIOS2_WRITE_STATUS (context & ~NIOS2_STATUS_PIE_MSK);
  805188:	e0fff717 	ldw	r3,-36(fp)
  80518c:	00bfff84 	movi	r2,-2
  805190:	1884703a 	and	r2,r3,r2
  805194:	1001703a 	wrctl	status,r2
  
  return context;
  805198:	e0bff717 	ldw	r2,-36(fp)
        OS_ENTER_CRITICAL();
  80519c:	e0bffa15 	stw	r2,-24(fp)
        pq = OSQFreeList;                        /* Get a free queue control block                     */
  8051a0:	00802074 	movhi	r2,129
  8051a4:	10875204 	addi	r2,r2,7496
  8051a8:	10800017 	ldw	r2,0(r2)
  8051ac:	e0bffb15 	stw	r2,-20(fp)
        if (pq != (OS_Q *)0) {                   /* Were we able to get a queue control block ?        */
  8051b0:	e0bffb17 	ldw	r2,-20(fp)
  8051b4:	1005003a 	cmpeq	r2,r2,zero
  8051b8:	1000311e 	bne	r2,zero,805280 <OSQCreate+0x1bc>
            OSQFreeList            = OSQFreeList->OSQPtr; /* Yes, Adjust free list pointer to next free*/
  8051bc:	00802074 	movhi	r2,129
  8051c0:	10875204 	addi	r2,r2,7496
  8051c4:	10800017 	ldw	r2,0(r2)
  8051c8:	10c00017 	ldw	r3,0(r2)
  8051cc:	00802074 	movhi	r2,129
  8051d0:	10875204 	addi	r2,r2,7496
  8051d4:	10c00015 	stw	r3,0(r2)
  8051d8:	e0bffa17 	ldw	r2,-24(fp)
  8051dc:	e0bff615 	stw	r2,-40(fp)
  status &= ~NIOS2_STATUS_PIE_MSK;
  status |= (context & NIOS2_STATUS_PIE_MSK);
  
  NIOS2_WRITE_STATUS (status);
#else
  NIOS2_WRITE_STATUS (context);
  8051e0:	e0bff617 	ldw	r2,-40(fp)
  8051e4:	1001703a 	wrctl	status,r2
            OS_EXIT_CRITICAL();
            pq->OSQStart           = start;               /*      Initialize the queue                 */
  8051e8:	e0fffb17 	ldw	r3,-20(fp)
  8051ec:	e0bffd17 	ldw	r2,-12(fp)
  8051f0:	18800115 	stw	r2,4(r3)
            pq->OSQEnd             = &start[size];
  8051f4:	e0bffe0b 	ldhu	r2,-8(fp)
  8051f8:	1085883a 	add	r2,r2,r2
  8051fc:	1085883a 	add	r2,r2,r2
  805200:	1007883a 	mov	r3,r2
  805204:	e0bffd17 	ldw	r2,-12(fp)
  805208:	1887883a 	add	r3,r3,r2
  80520c:	e0bffb17 	ldw	r2,-20(fp)
  805210:	10c00215 	stw	r3,8(r2)
            pq->OSQIn              = start;
  805214:	e0fffb17 	ldw	r3,-20(fp)
  805218:	e0bffd17 	ldw	r2,-12(fp)
  80521c:	18800315 	stw	r2,12(r3)
            pq->OSQOut             = start;
  805220:	e0fffb17 	ldw	r3,-20(fp)
  805224:	e0bffd17 	ldw	r2,-12(fp)
  805228:	18800415 	stw	r2,16(r3)
            pq->OSQSize            = size;
  80522c:	e0fffb17 	ldw	r3,-20(fp)
  805230:	e0bffe0b 	ldhu	r2,-8(fp)
  805234:	1880050d 	sth	r2,20(r3)
            pq->OSQEntries         = 0;
  805238:	e0bffb17 	ldw	r2,-20(fp)
  80523c:	1000058d 	sth	zero,22(r2)
            pevent->OSEventType    = OS_EVENT_TYPE_Q;
  805240:	e0fffc17 	ldw	r3,-16(fp)
  805244:	00800084 	movi	r2,2
  805248:	18800005 	stb	r2,0(r3)
            pevent->OSEventCnt     = 0;
  80524c:	e0bffc17 	ldw	r2,-16(fp)
  805250:	1000020d 	sth	zero,8(r2)
            pevent->OSEventPtr     = pq;
  805254:	e0fffc17 	ldw	r3,-16(fp)
  805258:	e0bffb17 	ldw	r2,-20(fp)
  80525c:	18800115 	stw	r2,4(r3)
#if OS_EVENT_NAME_SIZE > 1
            pevent->OSEventName[0] = '?';                  /* Unknown name                             */
  805260:	e0fffc17 	ldw	r3,-16(fp)
  805264:	00800fc4 	movi	r2,63
  805268:	18800385 	stb	r2,14(r3)
            pevent->OSEventName[1] = OS_ASCII_NUL;
  80526c:	e0bffc17 	ldw	r2,-16(fp)
  805270:	100003c5 	stb	zero,15(r2)
#endif
            OS_EventWaitListInit(pevent);                 /*      Initalize the wait list              */
  805274:	e13ffc17 	ldw	r4,-16(fp)
  805278:	08021280 	call	802128 <OS_EventWaitListInit>
  80527c:	00000e06 	br	8052b8 <OSQCreate+0x1f4>
        } else {
            pevent->OSEventPtr = (void *)OSEventFreeList; /* No,  Return event control block on error  */
  805280:	00802074 	movhi	r2,129
  805284:	10875404 	addi	r2,r2,7504
  805288:	10c00017 	ldw	r3,0(r2)
  80528c:	e0bffc17 	ldw	r2,-16(fp)
  805290:	10c00115 	stw	r3,4(r2)
            OSEventFreeList    = pevent;
  805294:	00c02074 	movhi	r3,129
  805298:	18c75404 	addi	r3,r3,7504
  80529c:	e0bffc17 	ldw	r2,-16(fp)
  8052a0:	18800015 	stw	r2,0(r3)
  8052a4:	e0bffa17 	ldw	r2,-24(fp)
  8052a8:	e0bff515 	stw	r2,-44(fp)
  8052ac:	e0bff517 	ldw	r2,-44(fp)
  8052b0:	1001703a 	wrctl	status,r2
            OS_EXIT_CRITICAL();
            pevent = (OS_EVENT *)0;
  8052b4:	e03ffc15 	stw	zero,-16(fp)
        }
    }
    return (pevent);
  8052b8:	e0bffc17 	ldw	r2,-16(fp)
  8052bc:	e0bfff15 	stw	r2,-4(fp)
  8052c0:	e0bfff17 	ldw	r2,-4(fp)
}
  8052c4:	e037883a 	mov	sp,fp
  8052c8:	dfc00117 	ldw	ra,4(sp)
  8052cc:	df000017 	ldw	fp,0(sp)
  8052d0:	dec00204 	addi	sp,sp,8
  8052d4:	f800283a 	ret

008052d8 <OSQDel>:
*********************************************************************************************************
*/

#if OS_Q_DEL_EN > 0
OS_EVENT  *OSQDel (OS_EVENT *pevent, INT8U opt, INT8U *perr)
{
  8052d8:	defff004 	addi	sp,sp,-64
  8052dc:	dfc00f15 	stw	ra,60(sp)
  8052e0:	df000e15 	stw	fp,56(sp)
  8052e4:	df000e04 	addi	fp,sp,56
  8052e8:	e13ffb15 	stw	r4,-20(fp)
  8052ec:	e1bffd15 	stw	r6,-12(fp)
  8052f0:	e17ffc05 	stb	r5,-16(fp)
    BOOLEAN    tasks_waiting;
    OS_EVENT  *pevent_return;
    OS_Q      *pq;
#if OS_CRITICAL_METHOD == 3                                /* Allocate storage for CPU status register */
    OS_CPU_SR  cpu_sr = 0;
  8052f4:	e03ff715 	stw	zero,-36(fp)
#endif



#if OS_ARG_CHK_EN > 0
    if (perr == (INT8U *)0) {                              /* Validate 'perr'                          */
  8052f8:	e0bffd17 	ldw	r2,-12(fp)
  8052fc:	1004c03a 	cmpne	r2,r2,zero
  805300:	1000031e 	bne	r2,zero,805310 <OSQDel+0x38>
        return (pevent);
  805304:	e0bffb17 	ldw	r2,-20(fp)
  805308:	e0bfff15 	stw	r2,-4(fp)
  80530c:	0000ac06 	br	8055c0 <OSQDel+0x2e8>
    }
    if (pevent == (OS_EVENT *)0) {                         /* Validate 'pevent'                        */
  805310:	e0bffb17 	ldw	r2,-20(fp)
  805314:	1004c03a 	cmpne	r2,r2,zero
  805318:	1000061e 	bne	r2,zero,805334 <OSQDel+0x5c>
        *perr = OS_ERR_PEVENT_NULL;
  80531c:	e0fffd17 	ldw	r3,-12(fp)
  805320:	00800104 	movi	r2,4
  805324:	18800005 	stb	r2,0(r3)
        return (pevent);
  805328:	e0fffb17 	ldw	r3,-20(fp)
  80532c:	e0ffff15 	stw	r3,-4(fp)
  805330:	0000a306 	br	8055c0 <OSQDel+0x2e8>
    }
#endif
    if (pevent->OSEventType != OS_EVENT_TYPE_Q) {          /* Validate event block type                */
  805334:	e0bffb17 	ldw	r2,-20(fp)
  805338:	10800003 	ldbu	r2,0(r2)
  80533c:	10803fcc 	andi	r2,r2,255
  805340:	108000a0 	cmpeqi	r2,r2,2
  805344:	1000061e 	bne	r2,zero,805360 <OSQDel+0x88>
        *perr = OS_ERR_EVENT_TYPE;
  805348:	e0fffd17 	ldw	r3,-12(fp)
  80534c:	00800044 	movi	r2,1
  805350:	18800005 	stb	r2,0(r3)
        return (pevent);
  805354:	e0bffb17 	ldw	r2,-20(fp)
  805358:	e0bfff15 	stw	r2,-4(fp)
  80535c:	00009806 	br	8055c0 <OSQDel+0x2e8>
    }
    if (OSIntNesting > 0) {                                /* See if called from ISR ...               */
  805360:	00802074 	movhi	r2,129
  805364:	10875504 	addi	r2,r2,7508
  805368:	10800003 	ldbu	r2,0(r2)
  80536c:	10803fcc 	andi	r2,r2,255
  805370:	1005003a 	cmpeq	r2,r2,zero
  805374:	1000061e 	bne	r2,zero,805390 <OSQDel+0xb8>
        *perr = OS_ERR_DEL_ISR;                            /* ... can't DELETE from an ISR             */
  805378:	e0fffd17 	ldw	r3,-12(fp)
  80537c:	008003c4 	movi	r2,15
  805380:	18800005 	stb	r2,0(r3)
        return (pevent);
  805384:	e0fffb17 	ldw	r3,-20(fp)
  805388:	e0ffff15 	stw	r3,-4(fp)
  80538c:	00008c06 	br	8055c0 <OSQDel+0x2e8>
static ALT_INLINE alt_irq_context ALT_ALWAYS_INLINE 
       alt_irq_disable_all (void)
{
  alt_irq_context context;

  NIOS2_READ_STATUS (context);
  805390:	0005303a 	rdctl	r2,status
  805394:	e0bff615 	stw	r2,-40(fp)

  NIOS2_WRITE_STATUS (context & ~NIOS2_STATUS_PIE_MSK);
  805398:	e0fff617 	ldw	r3,-40(fp)
  80539c:	00bfff84 	movi	r2,-2
  8053a0:	1884703a 	and	r2,r3,r2
  8053a4:	1001703a 	wrctl	status,r2
  
  return context;
  8053a8:	e0bff617 	ldw	r2,-40(fp)
    }
    OS_ENTER_CRITICAL();
  8053ac:	e0bff715 	stw	r2,-36(fp)
    if (pevent->OSEventGrp != 0) {                         /* See if any tasks waiting on queue        */
  8053b0:	e0bffb17 	ldw	r2,-20(fp)
  8053b4:	10800283 	ldbu	r2,10(r2)
  8053b8:	10803fcc 	andi	r2,r2,255
  8053bc:	1005003a 	cmpeq	r2,r2,zero
  8053c0:	1000031e 	bne	r2,zero,8053d0 <OSQDel+0xf8>
        tasks_waiting = OS_TRUE;                           /* Yes                                      */
  8053c4:	00800044 	movi	r2,1
  8053c8:	e0bffa05 	stb	r2,-24(fp)
  8053cc:	00000106 	br	8053d4 <OSQDel+0xfc>
    } else {
        tasks_waiting = OS_FALSE;                          /* No                                       */
  8053d0:	e03ffa05 	stb	zero,-24(fp)
    }
    switch (opt) {
  8053d4:	e0bffc03 	ldbu	r2,-16(fp)
  8053d8:	e0bffe15 	stw	r2,-8(fp)
  8053dc:	e0fffe17 	ldw	r3,-8(fp)
  8053e0:	1805003a 	cmpeq	r2,r3,zero
  8053e4:	1000041e 	bne	r2,zero,8053f8 <OSQDel+0x120>
  8053e8:	e0fffe17 	ldw	r3,-8(fp)
  8053ec:	18800060 	cmpeqi	r2,r3,1
  8053f0:	1000391e 	bne	r2,zero,8054d8 <OSQDel+0x200>
  8053f4:	00006706 	br	805594 <OSQDel+0x2bc>
        case OS_DEL_NO_PEND:                               /* Delete queue only if no task waiting     */
             if (tasks_waiting == OS_FALSE) {
  8053f8:	e0bffa03 	ldbu	r2,-24(fp)
  8053fc:	1004c03a 	cmpne	r2,r2,zero
  805400:	1000261e 	bne	r2,zero,80549c <OSQDel+0x1c4>
#if OS_EVENT_NAME_SIZE > 1
                 pevent->OSEventName[0] = '?';             /* Unknown name                             */
  805404:	e0fffb17 	ldw	r3,-20(fp)
  805408:	00800fc4 	movi	r2,63
  80540c:	18800385 	stb	r2,14(r3)
                 pevent->OSEventName[1] = OS_ASCII_NUL;
  805410:	e0bffb17 	ldw	r2,-20(fp)
  805414:	100003c5 	stb	zero,15(r2)
#endif
                 pq                     = (OS_Q *)pevent->OSEventPtr;  /* Return OS_Q to free list     */
  805418:	e0bffb17 	ldw	r2,-20(fp)
  80541c:	10800117 	ldw	r2,4(r2)
  805420:	e0bff815 	stw	r2,-32(fp)
                 pq->OSQPtr             = OSQFreeList;
  805424:	00802074 	movhi	r2,129
  805428:	10875204 	addi	r2,r2,7496
  80542c:	10c00017 	ldw	r3,0(r2)
  805430:	e0bff817 	ldw	r2,-32(fp)
  805434:	10c00015 	stw	r3,0(r2)
                 OSQFreeList            = pq;
  805438:	00c02074 	movhi	r3,129
  80543c:	18c75204 	addi	r3,r3,7496
  805440:	e0bff817 	ldw	r2,-32(fp)
  805444:	18800015 	stw	r2,0(r3)
                 pevent->OSEventType    = OS_EVENT_TYPE_UNUSED;
  805448:	e0bffb17 	ldw	r2,-20(fp)
  80544c:	10000005 	stb	zero,0(r2)
                 pevent->OSEventPtr     = OSEventFreeList; /* Return Event Control Block to free list  */
  805450:	00802074 	movhi	r2,129
  805454:	10875404 	addi	r2,r2,7504
  805458:	10c00017 	ldw	r3,0(r2)
  80545c:	e0bffb17 	ldw	r2,-20(fp)
  805460:	10c00115 	stw	r3,4(r2)
                 pevent->OSEventCnt     = 0;
  805464:	e0bffb17 	ldw	r2,-20(fp)
  805468:	1000020d 	sth	zero,8(r2)
                 OSEventFreeList        = pevent;          /* Get next free event control block        */
  80546c:	00c02074 	movhi	r3,129
  805470:	18c75404 	addi	r3,r3,7504
  805474:	e0bffb17 	ldw	r2,-20(fp)
  805478:	18800015 	stw	r2,0(r3)
  80547c:	e0bff717 	ldw	r2,-36(fp)
  805480:	e0bff515 	stw	r2,-44(fp)
  status &= ~NIOS2_STATUS_PIE_MSK;
  status |= (context & NIOS2_STATUS_PIE_MSK);
  
  NIOS2_WRITE_STATUS (status);
#else
  NIOS2_WRITE_STATUS (context);
  805484:	e0bff517 	ldw	r2,-44(fp)
  805488:	1001703a 	wrctl	status,r2
                 OS_EXIT_CRITICAL();
                 *perr                  = OS_ERR_NONE;
  80548c:	e0bffd17 	ldw	r2,-12(fp)
  805490:	10000005 	stb	zero,0(r2)
                 pevent_return          = (OS_EVENT *)0;   /* Queue has been deleted                   */
  805494:	e03ff915 	stw	zero,-28(fp)
  805498:	00004706 	br	8055b8 <OSQDel+0x2e0>
  80549c:	e0bff717 	ldw	r2,-36(fp)
  8054a0:	e0bff415 	stw	r2,-48(fp)
  8054a4:	e0bff417 	ldw	r2,-48(fp)
  8054a8:	1001703a 	wrctl	status,r2
             } else {
                 OS_EXIT_CRITICAL();
                 *perr                  = OS_ERR_TASK_WAITING;
  8054ac:	e0fffd17 	ldw	r3,-12(fp)
  8054b0:	00801244 	movi	r2,73
  8054b4:	18800005 	stb	r2,0(r3)
                 pevent_return          = pevent;
  8054b8:	e0bffb17 	ldw	r2,-20(fp)
  8054bc:	e0bff915 	stw	r2,-28(fp)
             }
             break;
  8054c0:	00003d06 	br	8055b8 <OSQDel+0x2e0>

        case OS_DEL_ALWAYS:                                /* Always delete the queue                  */
             while (pevent->OSEventGrp != 0) {             /* Ready ALL tasks waiting for queue        */
                 (void)OS_EventTaskRdy(pevent, (void *)0, OS_STAT_Q, OS_STAT_PEND_OK);
  8054c4:	e13ffb17 	ldw	r4,-20(fp)
  8054c8:	000b883a 	mov	r5,zero
  8054cc:	01800104 	movi	r6,4
  8054d0:	000f883a 	mov	r7,zero
  8054d4:	0801b740 	call	801b74 <OS_EventTaskRdy>
                 pevent_return          = pevent;
             }
             break;

        case OS_DEL_ALWAYS:                                /* Always delete the queue                  */
             while (pevent->OSEventGrp != 0) {             /* Ready ALL tasks waiting for queue        */
  8054d8:	e0bffb17 	ldw	r2,-20(fp)
  8054dc:	10800283 	ldbu	r2,10(r2)
  8054e0:	10803fcc 	andi	r2,r2,255
  8054e4:	1004c03a 	cmpne	r2,r2,zero
  8054e8:	103ff61e 	bne	r2,zero,8054c4 <OSQDel+0x1ec>
                 (void)OS_EventTaskRdy(pevent, (void *)0, OS_STAT_Q, OS_STAT_PEND_OK);
             }
#if OS_EVENT_NAME_SIZE > 1
             pevent->OSEventName[0] = '?';                 /* Unknown name                             */
  8054ec:	e0fffb17 	ldw	r3,-20(fp)
  8054f0:	00800fc4 	movi	r2,63
  8054f4:	18800385 	stb	r2,14(r3)
             pevent->OSEventName[1] = OS_ASCII_NUL;
  8054f8:	e0bffb17 	ldw	r2,-20(fp)
  8054fc:	100003c5 	stb	zero,15(r2)
#endif
             pq                     = (OS_Q *)pevent->OSEventPtr;   /* Return OS_Q to free list        */
  805500:	e0bffb17 	ldw	r2,-20(fp)
  805504:	10800117 	ldw	r2,4(r2)
  805508:	e0bff815 	stw	r2,-32(fp)
             pq->OSQPtr             = OSQFreeList;
  80550c:	00802074 	movhi	r2,129
  805510:	10875204 	addi	r2,r2,7496
  805514:	10c00017 	ldw	r3,0(r2)
  805518:	e0bff817 	ldw	r2,-32(fp)
  80551c:	10c00015 	stw	r3,0(r2)
             OSQFreeList            = pq;
  805520:	00c02074 	movhi	r3,129
  805524:	18c75204 	addi	r3,r3,7496
  805528:	e0bff817 	ldw	r2,-32(fp)
  80552c:	18800015 	stw	r2,0(r3)
             pevent->OSEventType    = OS_EVENT_TYPE_UNUSED;
  805530:	e0bffb17 	ldw	r2,-20(fp)
  805534:	10000005 	stb	zero,0(r2)
             pevent->OSEventPtr     = OSEventFreeList;     /* Return Event Control Block to free list  */
  805538:	00802074 	movhi	r2,129
  80553c:	10875404 	addi	r2,r2,7504
  805540:	10c00017 	ldw	r3,0(r2)
  805544:	e0bffb17 	ldw	r2,-20(fp)
  805548:	10c00115 	stw	r3,4(r2)
             pevent->OSEventCnt     = 0;
  80554c:	e0bffb17 	ldw	r2,-20(fp)
  805550:	1000020d 	sth	zero,8(r2)
             OSEventFreeList        = pevent;              /* Get next free event control block        */
  805554:	00c02074 	movhi	r3,129
  805558:	18c75404 	addi	r3,r3,7504
  80555c:	e0bffb17 	ldw	r2,-20(fp)
  805560:	18800015 	stw	r2,0(r3)
  805564:	e0bff717 	ldw	r2,-36(fp)
  805568:	e0bff315 	stw	r2,-52(fp)
  80556c:	e0bff317 	ldw	r2,-52(fp)
  805570:	1001703a 	wrctl	status,r2
             OS_EXIT_CRITICAL();
             if (tasks_waiting == OS_TRUE) {               /* Reschedule only if task(s) were waiting  */
  805574:	e0bffa03 	ldbu	r2,-24(fp)
  805578:	10800058 	cmpnei	r2,r2,1
  80557c:	1000011e 	bne	r2,zero,805584 <OSQDel+0x2ac>
                 OS_Sched();                               /* Find highest priority task ready to run  */
  805580:	08025b40 	call	8025b4 <OS_Sched>
             }
             *perr                  = OS_ERR_NONE;
  805584:	e0bffd17 	ldw	r2,-12(fp)
  805588:	10000005 	stb	zero,0(r2)
             pevent_return          = (OS_EVENT *)0;       /* Queue has been deleted                   */
  80558c:	e03ff915 	stw	zero,-28(fp)
             break;
  805590:	00000906 	br	8055b8 <OSQDel+0x2e0>
  805594:	e0bff717 	ldw	r2,-36(fp)
  805598:	e0bff215 	stw	r2,-56(fp)
  80559c:	e0bff217 	ldw	r2,-56(fp)
  8055a0:	1001703a 	wrctl	status,r2

        default:
             OS_EXIT_CRITICAL();
             *perr                  = OS_ERR_INVALID_OPT;
  8055a4:	e0fffd17 	ldw	r3,-12(fp)
  8055a8:	008001c4 	movi	r2,7
  8055ac:	18800005 	stb	r2,0(r3)
             pevent_return          = pevent;
  8055b0:	e0bffb17 	ldw	r2,-20(fp)
  8055b4:	e0bff915 	stw	r2,-28(fp)
             break;
    }
    return (pevent_return);
  8055b8:	e0bff917 	ldw	r2,-28(fp)
  8055bc:	e0bfff15 	stw	r2,-4(fp)
  8055c0:	e0bfff17 	ldw	r2,-4(fp)
}
  8055c4:	e037883a 	mov	sp,fp
  8055c8:	dfc00117 	ldw	ra,4(sp)
  8055cc:	df000017 	ldw	fp,0(sp)
  8055d0:	dec00204 	addi	sp,sp,8
  8055d4:	f800283a 	ret

008055d8 <OSQFlush>:
*********************************************************************************************************
*/

#if OS_Q_FLUSH_EN > 0
INT8U  OSQFlush (OS_EVENT *pevent)
{
  8055d8:	defff904 	addi	sp,sp,-28
  8055dc:	df000615 	stw	fp,24(sp)
  8055e0:	df000604 	addi	fp,sp,24
  8055e4:	e13ffe15 	stw	r4,-8(fp)
    OS_Q      *pq;
#if OS_CRITICAL_METHOD == 3                           /* Allocate storage for CPU status register      */
    OS_CPU_SR  cpu_sr = 0;
  8055e8:	e03ffc15 	stw	zero,-16(fp)
#endif



#if OS_ARG_CHK_EN > 0
    if (pevent == (OS_EVENT *)0) {                    /* Validate 'pevent'                             */
  8055ec:	e0bffe17 	ldw	r2,-8(fp)
  8055f0:	1004c03a 	cmpne	r2,r2,zero
  8055f4:	1000031e 	bne	r2,zero,805604 <OSQFlush+0x2c>
        return (OS_ERR_PEVENT_NULL);
  8055f8:	00800104 	movi	r2,4
  8055fc:	e0bfff15 	stw	r2,-4(fp)
  805600:	00002206 	br	80568c <OSQFlush+0xb4>
    }
    if (pevent->OSEventType != OS_EVENT_TYPE_Q) {     /* Validate event block type                     */
  805604:	e0bffe17 	ldw	r2,-8(fp)
  805608:	10800003 	ldbu	r2,0(r2)
  80560c:	10803fcc 	andi	r2,r2,255
  805610:	108000a0 	cmpeqi	r2,r2,2
  805614:	1000031e 	bne	r2,zero,805624 <OSQFlush+0x4c>
        return (OS_ERR_EVENT_TYPE);
  805618:	00800044 	movi	r2,1
  80561c:	e0bfff15 	stw	r2,-4(fp)
  805620:	00001a06 	br	80568c <OSQFlush+0xb4>
static ALT_INLINE alt_irq_context ALT_ALWAYS_INLINE 
       alt_irq_disable_all (void)
{
  alt_irq_context context;

  NIOS2_READ_STATUS (context);
  805624:	0005303a 	rdctl	r2,status
  805628:	e0bffb15 	stw	r2,-20(fp)

  NIOS2_WRITE_STATUS (context & ~NIOS2_STATUS_PIE_MSK);
  80562c:	e0fffb17 	ldw	r3,-20(fp)
  805630:	00bfff84 	movi	r2,-2
  805634:	1884703a 	and	r2,r3,r2
  805638:	1001703a 	wrctl	status,r2
  
  return context;
  80563c:	e0bffb17 	ldw	r2,-20(fp)
    }
#endif
    OS_ENTER_CRITICAL();
  805640:	e0bffc15 	stw	r2,-16(fp)
    pq             = (OS_Q *)pevent->OSEventPtr;      /* Point to queue storage structure              */
  805644:	e0bffe17 	ldw	r2,-8(fp)
  805648:	10800117 	ldw	r2,4(r2)
  80564c:	e0bffd15 	stw	r2,-12(fp)
    pq->OSQIn      = pq->OSQStart;
  805650:	e0bffd17 	ldw	r2,-12(fp)
  805654:	10c00117 	ldw	r3,4(r2)
  805658:	e0bffd17 	ldw	r2,-12(fp)
  80565c:	10c00315 	stw	r3,12(r2)
    pq->OSQOut     = pq->OSQStart;
  805660:	e0bffd17 	ldw	r2,-12(fp)
  805664:	10c00117 	ldw	r3,4(r2)
  805668:	e0bffd17 	ldw	r2,-12(fp)
  80566c:	10c00415 	stw	r3,16(r2)
    pq->OSQEntries = 0;
  805670:	e0bffd17 	ldw	r2,-12(fp)
  805674:	1000058d 	sth	zero,22(r2)
  805678:	e0bffc17 	ldw	r2,-16(fp)
  80567c:	e0bffa15 	stw	r2,-24(fp)
  status &= ~NIOS2_STATUS_PIE_MSK;
  status |= (context & NIOS2_STATUS_PIE_MSK);
  
  NIOS2_WRITE_STATUS (status);
#else
  NIOS2_WRITE_STATUS (context);
  805680:	e0bffa17 	ldw	r2,-24(fp)
  805684:	1001703a 	wrctl	status,r2
    OS_EXIT_CRITICAL();
    return (OS_ERR_NONE);
  805688:	e03fff15 	stw	zero,-4(fp)
  80568c:	e0bfff17 	ldw	r2,-4(fp)
}
  805690:	e037883a 	mov	sp,fp
  805694:	df000017 	ldw	fp,0(sp)
  805698:	dec00104 	addi	sp,sp,4
  80569c:	f800283a 	ret

008056a0 <OSQPend>:
* Note(s)    : As of V2.60, this function allows you to receive NULL pointer messages.
*********************************************************************************************************
*/

void  *OSQPend (OS_EVENT *pevent, INT16U timeout, INT8U *perr)
{
  8056a0:	defff104 	addi	sp,sp,-60
  8056a4:	dfc00e15 	stw	ra,56(sp)
  8056a8:	df000d15 	stw	fp,52(sp)
  8056ac:	df000d04 	addi	fp,sp,52
  8056b0:	e13ffb15 	stw	r4,-20(fp)
  8056b4:	e1bffd15 	stw	r6,-12(fp)
  8056b8:	e17ffc0d 	sth	r5,-16(fp)
    void      *pmsg;
    OS_Q      *pq;
#if OS_CRITICAL_METHOD == 3                      /* Allocate storage for CPU status register           */
    OS_CPU_SR  cpu_sr = 0;
  8056bc:	e03ff815 	stw	zero,-32(fp)
#endif



#if OS_ARG_CHK_EN > 0
    if (perr == (INT8U *)0) {                    /* Validate 'perr'                                    */
  8056c0:	e0bffd17 	ldw	r2,-12(fp)
  8056c4:	1004c03a 	cmpne	r2,r2,zero
  8056c8:	1000021e 	bne	r2,zero,8056d4 <OSQPend+0x34>
        return ((void *)0);
  8056cc:	e03fff15 	stw	zero,-4(fp)
  8056d0:	0000b506 	br	8059a8 <OSQPend+0x308>
    }
    if (pevent == (OS_EVENT *)0) {               /* Validate 'pevent'                                  */
  8056d4:	e0bffb17 	ldw	r2,-20(fp)
  8056d8:	1004c03a 	cmpne	r2,r2,zero
  8056dc:	1000051e 	bne	r2,zero,8056f4 <OSQPend+0x54>
        *perr = OS_ERR_PEVENT_NULL;
  8056e0:	e0fffd17 	ldw	r3,-12(fp)
  8056e4:	00800104 	movi	r2,4
  8056e8:	18800005 	stb	r2,0(r3)
        return ((void *)0);
  8056ec:	e03fff15 	stw	zero,-4(fp)
  8056f0:	0000ad06 	br	8059a8 <OSQPend+0x308>
    }
#endif
    if (pevent->OSEventType != OS_EVENT_TYPE_Q) {/* Validate event block type                          */
  8056f4:	e0bffb17 	ldw	r2,-20(fp)
  8056f8:	10800003 	ldbu	r2,0(r2)
  8056fc:	10803fcc 	andi	r2,r2,255
  805700:	108000a0 	cmpeqi	r2,r2,2
  805704:	1000051e 	bne	r2,zero,80571c <OSQPend+0x7c>
        *perr = OS_ERR_EVENT_TYPE;
  805708:	e0fffd17 	ldw	r3,-12(fp)
  80570c:	00800044 	movi	r2,1
  805710:	18800005 	stb	r2,0(r3)
        return ((void *)0);
  805714:	e03fff15 	stw	zero,-4(fp)
  805718:	0000a306 	br	8059a8 <OSQPend+0x308>
    }
    if (OSIntNesting > 0) {                      /* See if called from ISR ...                         */
  80571c:	00802074 	movhi	r2,129
  805720:	10875504 	addi	r2,r2,7508
  805724:	10800003 	ldbu	r2,0(r2)
  805728:	10803fcc 	andi	r2,r2,255
  80572c:	1005003a 	cmpeq	r2,r2,zero
  805730:	1000051e 	bne	r2,zero,805748 <OSQPend+0xa8>
        *perr = OS_ERR_PEND_ISR;                 /* ... can't PEND from an ISR                         */
  805734:	e0fffd17 	ldw	r3,-12(fp)
  805738:	00800084 	movi	r2,2
  80573c:	18800005 	stb	r2,0(r3)
        return ((void *)0);
  805740:	e03fff15 	stw	zero,-4(fp)
  805744:	00009806 	br	8059a8 <OSQPend+0x308>
    }
    if (OSLockNesting > 0) {                     /* See if called with scheduler locked ...            */
  805748:	00802074 	movhi	r2,129
  80574c:	10874704 	addi	r2,r2,7452
  805750:	10800003 	ldbu	r2,0(r2)
  805754:	10803fcc 	andi	r2,r2,255
  805758:	1005003a 	cmpeq	r2,r2,zero
  80575c:	1000051e 	bne	r2,zero,805774 <OSQPend+0xd4>
        *perr = OS_ERR_PEND_LOCKED;              /* ... can't PEND when locked                         */
  805760:	e0fffd17 	ldw	r3,-12(fp)
  805764:	00800344 	movi	r2,13
  805768:	18800005 	stb	r2,0(r3)
        return ((void *)0);
  80576c:	e03fff15 	stw	zero,-4(fp)
  805770:	00008d06 	br	8059a8 <OSQPend+0x308>
static ALT_INLINE alt_irq_context ALT_ALWAYS_INLINE 
       alt_irq_disable_all (void)
{
  alt_irq_context context;

  NIOS2_READ_STATUS (context);
  805774:	0005303a 	rdctl	r2,status
  805778:	e0bff715 	stw	r2,-36(fp)

  NIOS2_WRITE_STATUS (context & ~NIOS2_STATUS_PIE_MSK);
  80577c:	e0fff717 	ldw	r3,-36(fp)
  805780:	00bfff84 	movi	r2,-2
  805784:	1884703a 	and	r2,r3,r2
  805788:	1001703a 	wrctl	status,r2
  
  return context;
  80578c:	e0bff717 	ldw	r2,-36(fp)
    }
    OS_ENTER_CRITICAL();
  805790:	e0bff815 	stw	r2,-32(fp)
    pq = (OS_Q *)pevent->OSEventPtr;             /* Point at queue control block                       */
  805794:	e0bffb17 	ldw	r2,-20(fp)
  805798:	10800117 	ldw	r2,4(r2)
  80579c:	e0bff915 	stw	r2,-28(fp)
    if (pq->OSQEntries > 0) {                    /* See if any messages in the queue                   */
  8057a0:	e0bff917 	ldw	r2,-28(fp)
  8057a4:	1080058b 	ldhu	r2,22(r2)
  8057a8:	10bfffcc 	andi	r2,r2,65535
  8057ac:	1005003a 	cmpeq	r2,r2,zero
  8057b0:	10001f1e 	bne	r2,zero,805830 <OSQPend+0x190>
        pmsg = *pq->OSQOut++;                    /* Yes, extract oldest message from the queue         */
  8057b4:	e0bff917 	ldw	r2,-28(fp)
  8057b8:	10c00417 	ldw	r3,16(r2)
  8057bc:	18800017 	ldw	r2,0(r3)
  8057c0:	e0bffa15 	stw	r2,-24(fp)
  8057c4:	18c00104 	addi	r3,r3,4
  8057c8:	e0bff917 	ldw	r2,-28(fp)
  8057cc:	10c00415 	stw	r3,16(r2)
        pq->OSQEntries--;                        /* Update the number of entries in the queue          */
  8057d0:	e0bff917 	ldw	r2,-28(fp)
  8057d4:	1080058b 	ldhu	r2,22(r2)
  8057d8:	10bfffc4 	addi	r2,r2,-1
  8057dc:	1007883a 	mov	r3,r2
  8057e0:	e0bff917 	ldw	r2,-28(fp)
  8057e4:	10c0058d 	sth	r3,22(r2)
        if (pq->OSQOut == pq->OSQEnd) {          /* Wrap OUT pointer if we are at the end of the queue */
  8057e8:	e0bff917 	ldw	r2,-28(fp)
  8057ec:	10c00417 	ldw	r3,16(r2)
  8057f0:	e0bff917 	ldw	r2,-28(fp)
  8057f4:	10800217 	ldw	r2,8(r2)
  8057f8:	1880041e 	bne	r3,r2,80580c <OSQPend+0x16c>
            pq->OSQOut = pq->OSQStart;
  8057fc:	e0bff917 	ldw	r2,-28(fp)
  805800:	10c00117 	ldw	r3,4(r2)
  805804:	e0bff917 	ldw	r2,-28(fp)
  805808:	10c00415 	stw	r3,16(r2)
  80580c:	e0bff817 	ldw	r2,-32(fp)
  805810:	e0bff615 	stw	r2,-40(fp)
  status &= ~NIOS2_STATUS_PIE_MSK;
  status |= (context & NIOS2_STATUS_PIE_MSK);
  
  NIOS2_WRITE_STATUS (status);
#else
  NIOS2_WRITE_STATUS (context);
  805814:	e0bff617 	ldw	r2,-40(fp)
  805818:	1001703a 	wrctl	status,r2
        }
        OS_EXIT_CRITICAL();
        *perr = OS_ERR_NONE;
  80581c:	e0bffd17 	ldw	r2,-12(fp)
  805820:	10000005 	stb	zero,0(r2)
        return (pmsg);                           /* Return message received                            */
  805824:	e0bffa17 	ldw	r2,-24(fp)
  805828:	e0bfff15 	stw	r2,-4(fp)
  80582c:	00005e06 	br	8059a8 <OSQPend+0x308>
    }
    OSTCBCur->OSTCBStat     |= OS_STAT_Q;        /* Task will have to pend for a message to be posted  */
  805830:	00802074 	movhi	r2,129
  805834:	10875604 	addi	r2,r2,7512
  805838:	10c00017 	ldw	r3,0(r2)
  80583c:	00802074 	movhi	r2,129
  805840:	10875604 	addi	r2,r2,7512
  805844:	10800017 	ldw	r2,0(r2)
  805848:	10800c03 	ldbu	r2,48(r2)
  80584c:	10800114 	ori	r2,r2,4
  805850:	18800c05 	stb	r2,48(r3)
    OSTCBCur->OSTCBStatPend  = OS_STAT_PEND_OK;
  805854:	00802074 	movhi	r2,129
  805858:	10875604 	addi	r2,r2,7512
  80585c:	10800017 	ldw	r2,0(r2)
  805860:	10000c45 	stb	zero,49(r2)
    OSTCBCur->OSTCBDly       = timeout;          /* Load timeout into TCB                              */
  805864:	00802074 	movhi	r2,129
  805868:	10875604 	addi	r2,r2,7512
  80586c:	10c00017 	ldw	r3,0(r2)
  805870:	e0bffc0b 	ldhu	r2,-16(fp)
  805874:	18800b8d 	sth	r2,46(r3)
    OS_EventTaskWait(pevent);                    /* Suspend task until event or timeout occurs         */
  805878:	e13ffb17 	ldw	r4,-20(fp)
  80587c:	0801d080 	call	801d08 <OS_EventTaskWait>
  805880:	e0bff817 	ldw	r2,-32(fp)
  805884:	e0bff515 	stw	r2,-44(fp)
  805888:	e0bff517 	ldw	r2,-44(fp)
  80588c:	1001703a 	wrctl	status,r2
    OS_EXIT_CRITICAL();
    OS_Sched();                                  /* Find next highest priority task ready to run       */
  805890:	08025b40 	call	8025b4 <OS_Sched>
static ALT_INLINE alt_irq_context ALT_ALWAYS_INLINE 
       alt_irq_disable_all (void)
{
  alt_irq_context context;

  NIOS2_READ_STATUS (context);
  805894:	0005303a 	rdctl	r2,status
  805898:	e0bff415 	stw	r2,-48(fp)

  NIOS2_WRITE_STATUS (context & ~NIOS2_STATUS_PIE_MSK);
  80589c:	e0fff417 	ldw	r3,-48(fp)
  8058a0:	00bfff84 	movi	r2,-2
  8058a4:	1884703a 	and	r2,r3,r2
  8058a8:	1001703a 	wrctl	status,r2
  
  return context;
  8058ac:	e0bff417 	ldw	r2,-48(fp)
    OS_ENTER_CRITICAL();
  8058b0:	e0bff815 	stw	r2,-32(fp)
    switch (OSTCBCur->OSTCBStatPend) {                /* See if we timed-out or aborted                */
  8058b4:	00802074 	movhi	r2,129
  8058b8:	10875604 	addi	r2,r2,7512
  8058bc:	10800017 	ldw	r2,0(r2)
  8058c0:	10800c43 	ldbu	r2,49(r2)
  8058c4:	10803fcc 	andi	r2,r2,255
  8058c8:	e0bffe15 	stw	r2,-8(fp)
  8058cc:	e0fffe17 	ldw	r3,-8(fp)
  8058d0:	1805003a 	cmpeq	r2,r3,zero
  8058d4:	1000041e 	bne	r2,zero,8058e8 <OSQPend+0x248>
  8058d8:	e0fffe17 	ldw	r3,-8(fp)
  8058dc:	188000a0 	cmpeqi	r2,r3,2
  8058e0:	1000091e 	bne	r2,zero,805908 <OSQPend+0x268>
  8058e4:	00000d06 	br	80591c <OSQPend+0x27c>
        case OS_STAT_PEND_OK:                         /* Extract message from TCB (Put there by QPost) */
             pmsg =  OSTCBCur->OSTCBMsg;
  8058e8:	00802074 	movhi	r2,129
  8058ec:	10875604 	addi	r2,r2,7512
  8058f0:	10800017 	ldw	r2,0(r2)
  8058f4:	10800917 	ldw	r2,36(r2)
  8058f8:	e0bffa15 	stw	r2,-24(fp)
            *perr =  OS_ERR_NONE;
  8058fc:	e0bffd17 	ldw	r2,-12(fp)
  805900:	10000005 	stb	zero,0(r2)
             break;
  805904:	00000e06 	br	805940 <OSQPend+0x2a0>

        case OS_STAT_PEND_ABORT:
             pmsg = (void *)0;
  805908:	e03ffa15 	stw	zero,-24(fp)
            *perr =  OS_ERR_PEND_ABORT;               /* Indicate that we aborted                      */
  80590c:	e0fffd17 	ldw	r3,-12(fp)
  805910:	00800384 	movi	r2,14
  805914:	18800005 	stb	r2,0(r3)
             break;
  805918:	00000906 	br	805940 <OSQPend+0x2a0>

        case OS_STAT_PEND_TO:
        default:
             OS_EventTaskRemove(OSTCBCur, pevent);
  80591c:	00802074 	movhi	r2,129
  805920:	10875604 	addi	r2,r2,7512
  805924:	11000017 	ldw	r4,0(r2)
  805928:	e17ffb17 	ldw	r5,-20(fp)
  80592c:	0801f6c0 	call	801f6c <OS_EventTaskRemove>
             pmsg = (void *)0;
  805930:	e03ffa15 	stw	zero,-24(fp)
            *perr =  OS_ERR_TIMEOUT;                  /* Indicate that we didn't get event within TO   */
  805934:	e0fffd17 	ldw	r3,-12(fp)
  805938:	00800284 	movi	r2,10
  80593c:	18800005 	stb	r2,0(r3)
             break;
    }
    OSTCBCur->OSTCBStat          =  OS_STAT_RDY;      /* Set   task  status to ready                   */
  805940:	00802074 	movhi	r2,129
  805944:	10875604 	addi	r2,r2,7512
  805948:	10800017 	ldw	r2,0(r2)
  80594c:	10000c05 	stb	zero,48(r2)
    OSTCBCur->OSTCBStatPend      =  OS_STAT_PEND_OK;  /* Clear pend  status                            */
  805950:	00802074 	movhi	r2,129
  805954:	10875604 	addi	r2,r2,7512
  805958:	10800017 	ldw	r2,0(r2)
  80595c:	10000c45 	stb	zero,49(r2)
    OSTCBCur->OSTCBEventPtr      = (OS_EVENT  *)0;    /* Clear event pointers                          */
  805960:	00802074 	movhi	r2,129
  805964:	10875604 	addi	r2,r2,7512
  805968:	10800017 	ldw	r2,0(r2)
  80596c:	10000715 	stw	zero,28(r2)
#if (OS_EVENT_MULTI_EN > 0)
    OSTCBCur->OSTCBEventMultiPtr = (OS_EVENT **)0;
  805970:	00802074 	movhi	r2,129
  805974:	10875604 	addi	r2,r2,7512
  805978:	10800017 	ldw	r2,0(r2)
  80597c:	10000815 	stw	zero,32(r2)
#endif
    OSTCBCur->OSTCBMsg           = (void      *)0;    /* Clear  received message                       */
  805980:	00802074 	movhi	r2,129
  805984:	10875604 	addi	r2,r2,7512
  805988:	10800017 	ldw	r2,0(r2)
  80598c:	10000915 	stw	zero,36(r2)
  805990:	e0bff817 	ldw	r2,-32(fp)
  805994:	e0bff315 	stw	r2,-52(fp)
  status &= ~NIOS2_STATUS_PIE_MSK;
  status |= (context & NIOS2_STATUS_PIE_MSK);
  
  NIOS2_WRITE_STATUS (status);
#else
  NIOS2_WRITE_STATUS (context);
  805998:	e0bff317 	ldw	r2,-52(fp)
  80599c:	1001703a 	wrctl	status,r2
    OS_EXIT_CRITICAL();
    return (pmsg);                                    /* Return received message                       */
  8059a0:	e0bffa17 	ldw	r2,-24(fp)
  8059a4:	e0bfff15 	stw	r2,-4(fp)
  8059a8:	e0bfff17 	ldw	r2,-4(fp)
}
  8059ac:	e037883a 	mov	sp,fp
  8059b0:	dfc00117 	ldw	ra,4(sp)
  8059b4:	df000017 	ldw	fp,0(sp)
  8059b8:	dec00204 	addi	sp,sp,8
  8059bc:	f800283a 	ret

008059c0 <OSQPendAbort>:
*********************************************************************************************************
*/

#if OS_Q_PEND_ABORT_EN > 0
INT8U  OSQPendAbort (OS_EVENT *pevent, INT8U opt, INT8U *perr)
{
  8059c0:	defff504 	addi	sp,sp,-44
  8059c4:	dfc00a15 	stw	ra,40(sp)
  8059c8:	df000915 	stw	fp,36(sp)
  8059cc:	df000904 	addi	fp,sp,36
  8059d0:	e13ffc15 	stw	r4,-16(fp)
  8059d4:	e1bffe15 	stw	r6,-8(fp)
  8059d8:	e17ffd05 	stb	r5,-12(fp)
    INT8U      nbr_tasks;
#if OS_CRITICAL_METHOD == 3                                /* Allocate storage for CPU status register */
    OS_CPU_SR  cpu_sr = 0;
  8059dc:	e03ffa15 	stw	zero,-24(fp)
#endif



#if OS_ARG_CHK_EN > 0
    if (perr == (INT8U *)0) {                              /* Validate 'perr'                          */
  8059e0:	e0bffe17 	ldw	r2,-8(fp)
  8059e4:	1004c03a 	cmpne	r2,r2,zero
  8059e8:	1000021e 	bne	r2,zero,8059f4 <OSQPendAbort+0x34>
        return (0);
  8059ec:	e03fff15 	stw	zero,-4(fp)
  8059f0:	00004c06 	br	805b24 <OSQPendAbort+0x164>
    }
    if (pevent == (OS_EVENT *)0) {                         /* Validate 'pevent'                        */
  8059f4:	e0bffc17 	ldw	r2,-16(fp)
  8059f8:	1004c03a 	cmpne	r2,r2,zero
  8059fc:	1000051e 	bne	r2,zero,805a14 <OSQPendAbort+0x54>
        *perr = OS_ERR_PEVENT_NULL;
  805a00:	e0fffe17 	ldw	r3,-8(fp)
  805a04:	00800104 	movi	r2,4
  805a08:	18800005 	stb	r2,0(r3)
        return (0);
  805a0c:	e03fff15 	stw	zero,-4(fp)
  805a10:	00004406 	br	805b24 <OSQPendAbort+0x164>
    }
#endif
    if (pevent->OSEventType != OS_EVENT_TYPE_Q) {          /* Validate event block type                */
  805a14:	e0bffc17 	ldw	r2,-16(fp)
  805a18:	10800003 	ldbu	r2,0(r2)
  805a1c:	10803fcc 	andi	r2,r2,255
  805a20:	108000a0 	cmpeqi	r2,r2,2
  805a24:	1000051e 	bne	r2,zero,805a3c <OSQPendAbort+0x7c>
        *perr = OS_ERR_EVENT_TYPE;
  805a28:	e0fffe17 	ldw	r3,-8(fp)
  805a2c:	00800044 	movi	r2,1
  805a30:	18800005 	stb	r2,0(r3)
        return (0);
  805a34:	e03fff15 	stw	zero,-4(fp)
  805a38:	00003a06 	br	805b24 <OSQPendAbort+0x164>
static ALT_INLINE alt_irq_context ALT_ALWAYS_INLINE 
       alt_irq_disable_all (void)
{
  alt_irq_context context;

  NIOS2_READ_STATUS (context);
  805a3c:	0005303a 	rdctl	r2,status
  805a40:	e0bff915 	stw	r2,-28(fp)

  NIOS2_WRITE_STATUS (context & ~NIOS2_STATUS_PIE_MSK);
  805a44:	e0fff917 	ldw	r3,-28(fp)
  805a48:	00bfff84 	movi	r2,-2
  805a4c:	1884703a 	and	r2,r3,r2
  805a50:	1001703a 	wrctl	status,r2
  
  return context;
  805a54:	e0bff917 	ldw	r2,-28(fp)
    }
    OS_ENTER_CRITICAL();
  805a58:	e0bffa15 	stw	r2,-24(fp)
    if (pevent->OSEventGrp != 0) {                         /* See if any task waiting on queue?        */
  805a5c:	e0bffc17 	ldw	r2,-16(fp)
  805a60:	10800283 	ldbu	r2,10(r2)
  805a64:	10803fcc 	andi	r2,r2,255
  805a68:	1005003a 	cmpeq	r2,r2,zero
  805a6c:	1000261e 	bne	r2,zero,805b08 <OSQPendAbort+0x148>
        nbr_tasks = 0;
  805a70:	e03ffb05 	stb	zero,-20(fp)
        switch (opt) {
  805a74:	e0bffd03 	ldbu	r2,-12(fp)
  805a78:	10800060 	cmpeqi	r2,r2,1
  805a7c:	1000091e 	bne	r2,zero,805aa4 <OSQPendAbort+0xe4>
  805a80:	00000e06 	br	805abc <OSQPendAbort+0xfc>
            case OS_PEND_OPT_BROADCAST:                    /* Do we need to abort ALL waiting tasks?   */
                 while (pevent->OSEventGrp != 0) {         /* Yes, ready ALL tasks waiting on queue    */
                     (void)OS_EventTaskRdy(pevent, (void *)0, OS_STAT_Q, OS_STAT_PEND_ABORT);
  805a84:	e13ffc17 	ldw	r4,-16(fp)
  805a88:	000b883a 	mov	r5,zero
  805a8c:	01800104 	movi	r6,4
  805a90:	01c00084 	movi	r7,2
  805a94:	0801b740 	call	801b74 <OS_EventTaskRdy>
                     nbr_tasks++;
  805a98:	e0bffb03 	ldbu	r2,-20(fp)
  805a9c:	10800044 	addi	r2,r2,1
  805aa0:	e0bffb05 	stb	r2,-20(fp)
    OS_ENTER_CRITICAL();
    if (pevent->OSEventGrp != 0) {                         /* See if any task waiting on queue?        */
        nbr_tasks = 0;
        switch (opt) {
            case OS_PEND_OPT_BROADCAST:                    /* Do we need to abort ALL waiting tasks?   */
                 while (pevent->OSEventGrp != 0) {         /* Yes, ready ALL tasks waiting on queue    */
  805aa4:	e0bffc17 	ldw	r2,-16(fp)
  805aa8:	10800283 	ldbu	r2,10(r2)
  805aac:	10803fcc 	andi	r2,r2,255
  805ab0:	1004c03a 	cmpne	r2,r2,zero
  805ab4:	103ff31e 	bne	r2,zero,805a84 <OSQPendAbort+0xc4>
                     (void)OS_EventTaskRdy(pevent, (void *)0, OS_STAT_Q, OS_STAT_PEND_ABORT);
                     nbr_tasks++;
                 }
                 break;
  805ab8:	00000806 	br	805adc <OSQPendAbort+0x11c>
               
            case OS_PEND_OPT_NONE:
            default:                                       /* No,  ready HPT       waiting on queue    */
                 (void)OS_EventTaskRdy(pevent, (void *)0, OS_STAT_Q, OS_STAT_PEND_ABORT);
  805abc:	e13ffc17 	ldw	r4,-16(fp)
  805ac0:	000b883a 	mov	r5,zero
  805ac4:	01800104 	movi	r6,4
  805ac8:	01c00084 	movi	r7,2
  805acc:	0801b740 	call	801b74 <OS_EventTaskRdy>
                 nbr_tasks++;
  805ad0:	e0bffb03 	ldbu	r2,-20(fp)
  805ad4:	10800044 	addi	r2,r2,1
  805ad8:	e0bffb05 	stb	r2,-20(fp)
  805adc:	e0bffa17 	ldw	r2,-24(fp)
  805ae0:	e0bff815 	stw	r2,-32(fp)
  status &= ~NIOS2_STATUS_PIE_MSK;
  status |= (context & NIOS2_STATUS_PIE_MSK);
  
  NIOS2_WRITE_STATUS (status);
#else
  NIOS2_WRITE_STATUS (context);
  805ae4:	e0bff817 	ldw	r2,-32(fp)
  805ae8:	1001703a 	wrctl	status,r2
                 break;
        }
        OS_EXIT_CRITICAL();
        OS_Sched();                                        /* Find HPT ready to run                    */
  805aec:	08025b40 	call	8025b4 <OS_Sched>
        *perr = OS_ERR_PEND_ABORT;
  805af0:	e0fffe17 	ldw	r3,-8(fp)
  805af4:	00800384 	movi	r2,14
  805af8:	18800005 	stb	r2,0(r3)
        return (nbr_tasks);
  805afc:	e0bffb03 	ldbu	r2,-20(fp)
  805b00:	e0bfff15 	stw	r2,-4(fp)
  805b04:	00000706 	br	805b24 <OSQPendAbort+0x164>
  805b08:	e0bffa17 	ldw	r2,-24(fp)
  805b0c:	e0bff715 	stw	r2,-36(fp)
  805b10:	e0bff717 	ldw	r2,-36(fp)
  805b14:	1001703a 	wrctl	status,r2
    }
    OS_EXIT_CRITICAL();
    *perr = OS_ERR_NONE;
  805b18:	e0bffe17 	ldw	r2,-8(fp)
  805b1c:	10000005 	stb	zero,0(r2)
    return (0);                                            /* No tasks waiting on queue                */
  805b20:	e03fff15 	stw	zero,-4(fp)
  805b24:	e0bfff17 	ldw	r2,-4(fp)
}
  805b28:	e037883a 	mov	sp,fp
  805b2c:	dfc00117 	ldw	ra,4(sp)
  805b30:	df000017 	ldw	fp,0(sp)
  805b34:	dec00204 	addi	sp,sp,8
  805b38:	f800283a 	ret

00805b3c <OSQPost>:
*********************************************************************************************************
*/

#if OS_Q_POST_EN > 0
INT8U  OSQPost (OS_EVENT *pevent, void *pmsg)
{
  805b3c:	defff504 	addi	sp,sp,-44
  805b40:	dfc00a15 	stw	ra,40(sp)
  805b44:	df000915 	stw	fp,36(sp)
  805b48:	df000904 	addi	fp,sp,36
  805b4c:	e13ffd15 	stw	r4,-12(fp)
  805b50:	e17ffe15 	stw	r5,-8(fp)
    OS_Q      *pq;
#if OS_CRITICAL_METHOD == 3                            /* Allocate storage for CPU status register     */
    OS_CPU_SR  cpu_sr = 0;
  805b54:	e03ffb15 	stw	zero,-20(fp)
#endif



#if OS_ARG_CHK_EN > 0
    if (pevent == (OS_EVENT *)0) {                     /* Validate 'pevent'                            */
  805b58:	e0bffd17 	ldw	r2,-12(fp)
  805b5c:	1004c03a 	cmpne	r2,r2,zero
  805b60:	1000031e 	bne	r2,zero,805b70 <OSQPost+0x34>
        return (OS_ERR_PEVENT_NULL);
  805b64:	00800104 	movi	r2,4
  805b68:	e0bfff15 	stw	r2,-4(fp)
  805b6c:	00004d06 	br	805ca4 <OSQPost+0x168>
    }
#endif
    if (pevent->OSEventType != OS_EVENT_TYPE_Q) {      /* Validate event block type                    */
  805b70:	e0bffd17 	ldw	r2,-12(fp)
  805b74:	10800003 	ldbu	r2,0(r2)
  805b78:	10803fcc 	andi	r2,r2,255
  805b7c:	108000a0 	cmpeqi	r2,r2,2
  805b80:	1000031e 	bne	r2,zero,805b90 <OSQPost+0x54>
        return (OS_ERR_EVENT_TYPE);
  805b84:	00800044 	movi	r2,1
  805b88:	e0bfff15 	stw	r2,-4(fp)
  805b8c:	00004506 	br	805ca4 <OSQPost+0x168>
static ALT_INLINE alt_irq_context ALT_ALWAYS_INLINE 
       alt_irq_disable_all (void)
{
  alt_irq_context context;

  NIOS2_READ_STATUS (context);
  805b90:	0005303a 	rdctl	r2,status
  805b94:	e0bffa15 	stw	r2,-24(fp)

  NIOS2_WRITE_STATUS (context & ~NIOS2_STATUS_PIE_MSK);
  805b98:	e0fffa17 	ldw	r3,-24(fp)
  805b9c:	00bfff84 	movi	r2,-2
  805ba0:	1884703a 	and	r2,r3,r2
  805ba4:	1001703a 	wrctl	status,r2
  
  return context;
  805ba8:	e0bffa17 	ldw	r2,-24(fp)
    }
    OS_ENTER_CRITICAL();
  805bac:	e0bffb15 	stw	r2,-20(fp)
    if (pevent->OSEventGrp != 0) {                     /* See if any task pending on queue             */
  805bb0:	e0bffd17 	ldw	r2,-12(fp)
  805bb4:	10800283 	ldbu	r2,10(r2)
  805bb8:	10803fcc 	andi	r2,r2,255
  805bbc:	1005003a 	cmpeq	r2,r2,zero
  805bc0:	10000c1e 	bne	r2,zero,805bf4 <OSQPost+0xb8>
                                                       /* Ready highest priority task waiting on event */
        (void)OS_EventTaskRdy(pevent, pmsg, OS_STAT_Q, OS_STAT_PEND_OK);
  805bc4:	e13ffd17 	ldw	r4,-12(fp)
  805bc8:	e17ffe17 	ldw	r5,-8(fp)
  805bcc:	01800104 	movi	r6,4
  805bd0:	000f883a 	mov	r7,zero
  805bd4:	0801b740 	call	801b74 <OS_EventTaskRdy>
  805bd8:	e0bffb17 	ldw	r2,-20(fp)
  805bdc:	e0bff915 	stw	r2,-28(fp)
  status &= ~NIOS2_STATUS_PIE_MSK;
  status |= (context & NIOS2_STATUS_PIE_MSK);
  
  NIOS2_WRITE_STATUS (status);
#else
  NIOS2_WRITE_STATUS (context);
  805be0:	e0bff917 	ldw	r2,-28(fp)
  805be4:	1001703a 	wrctl	status,r2
        OS_EXIT_CRITICAL();
        OS_Sched();                                    /* Find highest priority task ready to run      */
  805be8:	08025b40 	call	8025b4 <OS_Sched>
        return (OS_ERR_NONE);
  805bec:	e03fff15 	stw	zero,-4(fp)
  805bf0:	00002c06 	br	805ca4 <OSQPost+0x168>
    }
    pq = (OS_Q *)pevent->OSEventPtr;                   /* Point to queue control block                 */
  805bf4:	e0bffd17 	ldw	r2,-12(fp)
  805bf8:	10800117 	ldw	r2,4(r2)
  805bfc:	e0bffc15 	stw	r2,-16(fp)
    if (pq->OSQEntries >= pq->OSQSize) {               /* Make sure queue is not full                  */
  805c00:	e0bffc17 	ldw	r2,-16(fp)
  805c04:	10c0058b 	ldhu	r3,22(r2)
  805c08:	e0bffc17 	ldw	r2,-16(fp)
  805c0c:	1080050b 	ldhu	r2,20(r2)
  805c10:	18ffffcc 	andi	r3,r3,65535
  805c14:	10bfffcc 	andi	r2,r2,65535
  805c18:	18800736 	bltu	r3,r2,805c38 <OSQPost+0xfc>
  805c1c:	e0bffb17 	ldw	r2,-20(fp)
  805c20:	e0bff815 	stw	r2,-32(fp)
  805c24:	e0bff817 	ldw	r2,-32(fp)
  805c28:	1001703a 	wrctl	status,r2
        OS_EXIT_CRITICAL();
        return (OS_ERR_Q_FULL);
  805c2c:	00800784 	movi	r2,30
  805c30:	e0bfff15 	stw	r2,-4(fp)
  805c34:	00001b06 	br	805ca4 <OSQPost+0x168>
    }
    *pq->OSQIn++ = pmsg;                               /* Insert message into queue                    */
  805c38:	e0bffc17 	ldw	r2,-16(fp)
  805c3c:	10c00317 	ldw	r3,12(r2)
  805c40:	e0bffe17 	ldw	r2,-8(fp)
  805c44:	18800015 	stw	r2,0(r3)
  805c48:	18c00104 	addi	r3,r3,4
  805c4c:	e0bffc17 	ldw	r2,-16(fp)
  805c50:	10c00315 	stw	r3,12(r2)
    pq->OSQEntries++;                                  /* Update the nbr of entries in the queue       */
  805c54:	e0bffc17 	ldw	r2,-16(fp)
  805c58:	1080058b 	ldhu	r2,22(r2)
  805c5c:	10800044 	addi	r2,r2,1
  805c60:	1007883a 	mov	r3,r2
  805c64:	e0bffc17 	ldw	r2,-16(fp)
  805c68:	10c0058d 	sth	r3,22(r2)
    if (pq->OSQIn == pq->OSQEnd) {                     /* Wrap IN ptr if we are at end of queue        */
  805c6c:	e0bffc17 	ldw	r2,-16(fp)
  805c70:	10c00317 	ldw	r3,12(r2)
  805c74:	e0bffc17 	ldw	r2,-16(fp)
  805c78:	10800217 	ldw	r2,8(r2)
  805c7c:	1880041e 	bne	r3,r2,805c90 <OSQPost+0x154>
        pq->OSQIn = pq->OSQStart;
  805c80:	e0bffc17 	ldw	r2,-16(fp)
  805c84:	10c00117 	ldw	r3,4(r2)
  805c88:	e0bffc17 	ldw	r2,-16(fp)
  805c8c:	10c00315 	stw	r3,12(r2)
  805c90:	e0bffb17 	ldw	r2,-20(fp)
  805c94:	e0bff715 	stw	r2,-36(fp)
  805c98:	e0bff717 	ldw	r2,-36(fp)
  805c9c:	1001703a 	wrctl	status,r2
    }
    OS_EXIT_CRITICAL();
    return (OS_ERR_NONE);
  805ca0:	e03fff15 	stw	zero,-4(fp)
  805ca4:	e0bfff17 	ldw	r2,-4(fp)
}
  805ca8:	e037883a 	mov	sp,fp
  805cac:	dfc00117 	ldw	ra,4(sp)
  805cb0:	df000017 	ldw	fp,0(sp)
  805cb4:	dec00204 	addi	sp,sp,8
  805cb8:	f800283a 	ret

00805cbc <OSQPostFront>:
*********************************************************************************************************
*/

#if OS_Q_POST_FRONT_EN > 0
INT8U  OSQPostFront (OS_EVENT *pevent, void *pmsg)
{
  805cbc:	defff504 	addi	sp,sp,-44
  805cc0:	dfc00a15 	stw	ra,40(sp)
  805cc4:	df000915 	stw	fp,36(sp)
  805cc8:	df000904 	addi	fp,sp,36
  805ccc:	e13ffd15 	stw	r4,-12(fp)
  805cd0:	e17ffe15 	stw	r5,-8(fp)
    OS_Q      *pq;
#if OS_CRITICAL_METHOD == 3                           /* Allocate storage for CPU status register      */
    OS_CPU_SR  cpu_sr = 0;
  805cd4:	e03ffb15 	stw	zero,-20(fp)
#endif



#if OS_ARG_CHK_EN > 0
    if (pevent == (OS_EVENT *)0) {                    /* Validate 'pevent'                             */
  805cd8:	e0bffd17 	ldw	r2,-12(fp)
  805cdc:	1004c03a 	cmpne	r2,r2,zero
  805ce0:	1000031e 	bne	r2,zero,805cf0 <OSQPostFront+0x34>
        return (OS_ERR_PEVENT_NULL);
  805ce4:	00800104 	movi	r2,4
  805ce8:	e0bfff15 	stw	r2,-4(fp)
  805cec:	00004f06 	br	805e2c <OSQPostFront+0x170>
    }
#endif
    if (pevent->OSEventType != OS_EVENT_TYPE_Q) {     /* Validate event block type                     */
  805cf0:	e0bffd17 	ldw	r2,-12(fp)
  805cf4:	10800003 	ldbu	r2,0(r2)
  805cf8:	10803fcc 	andi	r2,r2,255
  805cfc:	108000a0 	cmpeqi	r2,r2,2
  805d00:	1000031e 	bne	r2,zero,805d10 <OSQPostFront+0x54>
        return (OS_ERR_EVENT_TYPE);
  805d04:	00800044 	movi	r2,1
  805d08:	e0bfff15 	stw	r2,-4(fp)
  805d0c:	00004706 	br	805e2c <OSQPostFront+0x170>
static ALT_INLINE alt_irq_context ALT_ALWAYS_INLINE 
       alt_irq_disable_all (void)
{
  alt_irq_context context;

  NIOS2_READ_STATUS (context);
  805d10:	0005303a 	rdctl	r2,status
  805d14:	e0bffa15 	stw	r2,-24(fp)

  NIOS2_WRITE_STATUS (context & ~NIOS2_STATUS_PIE_MSK);
  805d18:	e0fffa17 	ldw	r3,-24(fp)
  805d1c:	00bfff84 	movi	r2,-2
  805d20:	1884703a 	and	r2,r3,r2
  805d24:	1001703a 	wrctl	status,r2
  
  return context;
  805d28:	e0bffa17 	ldw	r2,-24(fp)
    }
    OS_ENTER_CRITICAL();
  805d2c:	e0bffb15 	stw	r2,-20(fp)
    if (pevent->OSEventGrp != 0) {                    /* See if any task pending on queue              */
  805d30:	e0bffd17 	ldw	r2,-12(fp)
  805d34:	10800283 	ldbu	r2,10(r2)
  805d38:	10803fcc 	andi	r2,r2,255
  805d3c:	1005003a 	cmpeq	r2,r2,zero
  805d40:	10000c1e 	bne	r2,zero,805d74 <OSQPostFront+0xb8>
                                                      /* Ready highest priority task waiting on event  */
        (void)OS_EventTaskRdy(pevent, pmsg, OS_STAT_Q, OS_STAT_PEND_OK);
  805d44:	e13ffd17 	ldw	r4,-12(fp)
  805d48:	e17ffe17 	ldw	r5,-8(fp)
  805d4c:	01800104 	movi	r6,4
  805d50:	000f883a 	mov	r7,zero
  805d54:	0801b740 	call	801b74 <OS_EventTaskRdy>
  805d58:	e0bffb17 	ldw	r2,-20(fp)
  805d5c:	e0bff915 	stw	r2,-28(fp)
  status &= ~NIOS2_STATUS_PIE_MSK;
  status |= (context & NIOS2_STATUS_PIE_MSK);
  
  NIOS2_WRITE_STATUS (status);
#else
  NIOS2_WRITE_STATUS (context);
  805d60:	e0bff917 	ldw	r2,-28(fp)
  805d64:	1001703a 	wrctl	status,r2
        OS_EXIT_CRITICAL();
        OS_Sched();                                   /* Find highest priority task ready to run       */
  805d68:	08025b40 	call	8025b4 <OS_Sched>
        return (OS_ERR_NONE);
  805d6c:	e03fff15 	stw	zero,-4(fp)
  805d70:	00002e06 	br	805e2c <OSQPostFront+0x170>
    }
    pq = (OS_Q *)pevent->OSEventPtr;                  /* Point to queue control block                  */
  805d74:	e0bffd17 	ldw	r2,-12(fp)
  805d78:	10800117 	ldw	r2,4(r2)
  805d7c:	e0bffc15 	stw	r2,-16(fp)
    if (pq->OSQEntries >= pq->OSQSize) {              /* Make sure queue is not full                   */
  805d80:	e0bffc17 	ldw	r2,-16(fp)
  805d84:	10c0058b 	ldhu	r3,22(r2)
  805d88:	e0bffc17 	ldw	r2,-16(fp)
  805d8c:	1080050b 	ldhu	r2,20(r2)
  805d90:	18ffffcc 	andi	r3,r3,65535
  805d94:	10bfffcc 	andi	r2,r2,65535
  805d98:	18800736 	bltu	r3,r2,805db8 <OSQPostFront+0xfc>
  805d9c:	e0bffb17 	ldw	r2,-20(fp)
  805da0:	e0bff815 	stw	r2,-32(fp)
  805da4:	e0bff817 	ldw	r2,-32(fp)
  805da8:	1001703a 	wrctl	status,r2
        OS_EXIT_CRITICAL();
        return (OS_ERR_Q_FULL);
  805dac:	00800784 	movi	r2,30
  805db0:	e0bfff15 	stw	r2,-4(fp)
  805db4:	00001d06 	br	805e2c <OSQPostFront+0x170>
    }
    if (pq->OSQOut == pq->OSQStart) {                 /* Wrap OUT ptr if we are at the 1st queue entry */
  805db8:	e0bffc17 	ldw	r2,-16(fp)
  805dbc:	10c00417 	ldw	r3,16(r2)
  805dc0:	e0bffc17 	ldw	r2,-16(fp)
  805dc4:	10800117 	ldw	r2,4(r2)
  805dc8:	1880041e 	bne	r3,r2,805ddc <OSQPostFront+0x120>
        pq->OSQOut = pq->OSQEnd;
  805dcc:	e0bffc17 	ldw	r2,-16(fp)
  805dd0:	10c00217 	ldw	r3,8(r2)
  805dd4:	e0bffc17 	ldw	r2,-16(fp)
  805dd8:	10c00415 	stw	r3,16(r2)
    }
    pq->OSQOut--;
  805ddc:	e0bffc17 	ldw	r2,-16(fp)
  805de0:	10800417 	ldw	r2,16(r2)
  805de4:	10ffff04 	addi	r3,r2,-4
  805de8:	e0bffc17 	ldw	r2,-16(fp)
  805dec:	10c00415 	stw	r3,16(r2)
    *pq->OSQOut = pmsg;                               /* Insert message into queue                     */
  805df0:	e0bffc17 	ldw	r2,-16(fp)
  805df4:	10c00417 	ldw	r3,16(r2)
  805df8:	e0bffe17 	ldw	r2,-8(fp)
  805dfc:	18800015 	stw	r2,0(r3)
    pq->OSQEntries++;                                 /* Update the nbr of entries in the queue        */
  805e00:	e0bffc17 	ldw	r2,-16(fp)
  805e04:	1080058b 	ldhu	r2,22(r2)
  805e08:	10800044 	addi	r2,r2,1
  805e0c:	1007883a 	mov	r3,r2
  805e10:	e0bffc17 	ldw	r2,-16(fp)
  805e14:	10c0058d 	sth	r3,22(r2)
  805e18:	e0bffb17 	ldw	r2,-20(fp)
  805e1c:	e0bff715 	stw	r2,-36(fp)
  805e20:	e0bff717 	ldw	r2,-36(fp)
  805e24:	1001703a 	wrctl	status,r2
    OS_EXIT_CRITICAL();
    return (OS_ERR_NONE);
  805e28:	e03fff15 	stw	zero,-4(fp)
  805e2c:	e0bfff17 	ldw	r2,-4(fp)
}
  805e30:	e037883a 	mov	sp,fp
  805e34:	dfc00117 	ldw	ra,4(sp)
  805e38:	df000017 	ldw	fp,0(sp)
  805e3c:	dec00204 	addi	sp,sp,8
  805e40:	f800283a 	ret

00805e44 <OSQPostOpt>:
*********************************************************************************************************
*/

#if OS_Q_POST_OPT_EN > 0
INT8U  OSQPostOpt (OS_EVENT *pevent, void *pmsg, INT8U opt)
{
  805e44:	defff404 	addi	sp,sp,-48
  805e48:	dfc00b15 	stw	ra,44(sp)
  805e4c:	df000a15 	stw	fp,40(sp)
  805e50:	df000a04 	addi	fp,sp,40
  805e54:	e13ffc15 	stw	r4,-16(fp)
  805e58:	e17ffd15 	stw	r5,-12(fp)
  805e5c:	e1bffe05 	stb	r6,-8(fp)
    OS_Q      *pq;
#if OS_CRITICAL_METHOD == 3                           /* Allocate storage for CPU status register      */
    OS_CPU_SR  cpu_sr = 0;
  805e60:	e03ffa15 	stw	zero,-24(fp)
#endif



#if OS_ARG_CHK_EN > 0
    if (pevent == (OS_EVENT *)0) {                    /* Validate 'pevent'                             */
  805e64:	e0bffc17 	ldw	r2,-16(fp)
  805e68:	1004c03a 	cmpne	r2,r2,zero
  805e6c:	1000031e 	bne	r2,zero,805e7c <OSQPostOpt+0x38>
        return (OS_ERR_PEVENT_NULL);
  805e70:	00800104 	movi	r2,4
  805e74:	e0bfff15 	stw	r2,-4(fp)
  805e78:	00007906 	br	806060 <OSQPostOpt+0x21c>
    }
#endif
    if (pevent->OSEventType != OS_EVENT_TYPE_Q) {     /* Validate event block type                     */
  805e7c:	e0bffc17 	ldw	r2,-16(fp)
  805e80:	10800003 	ldbu	r2,0(r2)
  805e84:	10803fcc 	andi	r2,r2,255
  805e88:	108000a0 	cmpeqi	r2,r2,2
  805e8c:	1000031e 	bne	r2,zero,805e9c <OSQPostOpt+0x58>
        return (OS_ERR_EVENT_TYPE);
  805e90:	00800044 	movi	r2,1
  805e94:	e0bfff15 	stw	r2,-4(fp)
  805e98:	00007106 	br	806060 <OSQPostOpt+0x21c>
static ALT_INLINE alt_irq_context ALT_ALWAYS_INLINE 
       alt_irq_disable_all (void)
{
  alt_irq_context context;

  NIOS2_READ_STATUS (context);
  805e9c:	0005303a 	rdctl	r2,status
  805ea0:	e0bff915 	stw	r2,-28(fp)

  NIOS2_WRITE_STATUS (context & ~NIOS2_STATUS_PIE_MSK);
  805ea4:	e0fff917 	ldw	r3,-28(fp)
  805ea8:	00bfff84 	movi	r2,-2
  805eac:	1884703a 	and	r2,r3,r2
  805eb0:	1001703a 	wrctl	status,r2
  
  return context;
  805eb4:	e0bff917 	ldw	r2,-28(fp)
    }
    OS_ENTER_CRITICAL();
  805eb8:	e0bffa15 	stw	r2,-24(fp)
    if (pevent->OSEventGrp != 0x00) {                 /* See if any task pending on queue              */
  805ebc:	e0bffc17 	ldw	r2,-16(fp)
  805ec0:	10800283 	ldbu	r2,10(r2)
  805ec4:	10803fcc 	andi	r2,r2,255
  805ec8:	1005003a 	cmpeq	r2,r2,zero
  805ecc:	1000211e 	bne	r2,zero,805f54 <OSQPostOpt+0x110>
        if ((opt & OS_POST_OPT_BROADCAST) != 0x00) {  /* Do we need to post msg to ALL waiting tasks ? */
  805ed0:	e0bffe03 	ldbu	r2,-8(fp)
  805ed4:	1080004c 	andi	r2,r2,1
  805ed8:	10803fcc 	andi	r2,r2,255
  805edc:	1005003a 	cmpeq	r2,r2,zero
  805ee0:	10000c1e 	bne	r2,zero,805f14 <OSQPostOpt+0xd0>
            while (pevent->OSEventGrp != 0) {         /* Yes, Post to ALL tasks waiting on queue       */
  805ee4:	00000506 	br	805efc <OSQPostOpt+0xb8>
                (void)OS_EventTaskRdy(pevent, pmsg, OS_STAT_Q, OS_STAT_PEND_OK);
  805ee8:	e13ffc17 	ldw	r4,-16(fp)
  805eec:	e17ffd17 	ldw	r5,-12(fp)
  805ef0:	01800104 	movi	r6,4
  805ef4:	000f883a 	mov	r7,zero
  805ef8:	0801b740 	call	801b74 <OS_EventTaskRdy>
        return (OS_ERR_EVENT_TYPE);
    }
    OS_ENTER_CRITICAL();
    if (pevent->OSEventGrp != 0x00) {                 /* See if any task pending on queue              */
        if ((opt & OS_POST_OPT_BROADCAST) != 0x00) {  /* Do we need to post msg to ALL waiting tasks ? */
            while (pevent->OSEventGrp != 0) {         /* Yes, Post to ALL tasks waiting on queue       */
  805efc:	e0bffc17 	ldw	r2,-16(fp)
  805f00:	10800283 	ldbu	r2,10(r2)
  805f04:	10803fcc 	andi	r2,r2,255
  805f08:	1004c03a 	cmpne	r2,r2,zero
  805f0c:	103ff61e 	bne	r2,zero,805ee8 <OSQPostOpt+0xa4>
  805f10:	00000506 	br	805f28 <OSQPostOpt+0xe4>
                (void)OS_EventTaskRdy(pevent, pmsg, OS_STAT_Q, OS_STAT_PEND_OK);
            }
        } else {                                      /* No,  Post to HPT waiting on queue             */
            (void)OS_EventTaskRdy(pevent, pmsg, OS_STAT_Q, OS_STAT_PEND_OK);
  805f14:	e13ffc17 	ldw	r4,-16(fp)
  805f18:	e17ffd17 	ldw	r5,-12(fp)
  805f1c:	01800104 	movi	r6,4
  805f20:	000f883a 	mov	r7,zero
  805f24:	0801b740 	call	801b74 <OS_EventTaskRdy>
  805f28:	e0bffa17 	ldw	r2,-24(fp)
  805f2c:	e0bff815 	stw	r2,-32(fp)
  status &= ~NIOS2_STATUS_PIE_MSK;
  status |= (context & NIOS2_STATUS_PIE_MSK);
  
  NIOS2_WRITE_STATUS (status);
#else
  NIOS2_WRITE_STATUS (context);
  805f30:	e0bff817 	ldw	r2,-32(fp)
  805f34:	1001703a 	wrctl	status,r2
        }
        OS_EXIT_CRITICAL();
        if ((opt & OS_POST_OPT_NO_SCHED) == 0) {	  /* See if scheduler needs to be invoked          */
  805f38:	e0bffe03 	ldbu	r2,-8(fp)
  805f3c:	1080010c 	andi	r2,r2,4
  805f40:	1004c03a 	cmpne	r2,r2,zero
  805f44:	1000011e 	bne	r2,zero,805f4c <OSQPostOpt+0x108>
            OS_Sched();                               /* Find highest priority task ready to run       */
  805f48:	08025b40 	call	8025b4 <OS_Sched>
        }
        return (OS_ERR_NONE);
  805f4c:	e03fff15 	stw	zero,-4(fp)
  805f50:	00004306 	br	806060 <OSQPostOpt+0x21c>
    }
    pq = (OS_Q *)pevent->OSEventPtr;                  /* Point to queue control block                  */
  805f54:	e0bffc17 	ldw	r2,-16(fp)
  805f58:	10800117 	ldw	r2,4(r2)
  805f5c:	e0bffb15 	stw	r2,-20(fp)
    if (pq->OSQEntries >= pq->OSQSize) {              /* Make sure queue is not full                   */
  805f60:	e0bffb17 	ldw	r2,-20(fp)
  805f64:	10c0058b 	ldhu	r3,22(r2)
  805f68:	e0bffb17 	ldw	r2,-20(fp)
  805f6c:	1080050b 	ldhu	r2,20(r2)
  805f70:	18ffffcc 	andi	r3,r3,65535
  805f74:	10bfffcc 	andi	r2,r2,65535
  805f78:	18800736 	bltu	r3,r2,805f98 <OSQPostOpt+0x154>
  805f7c:	e0bffa17 	ldw	r2,-24(fp)
  805f80:	e0bff715 	stw	r2,-36(fp)
  805f84:	e0bff717 	ldw	r2,-36(fp)
  805f88:	1001703a 	wrctl	status,r2
        OS_EXIT_CRITICAL();
        return (OS_ERR_Q_FULL);
  805f8c:	00800784 	movi	r2,30
  805f90:	e0bfff15 	stw	r2,-4(fp)
  805f94:	00003206 	br	806060 <OSQPostOpt+0x21c>
    }
    if ((opt & OS_POST_OPT_FRONT) != 0x00) {          /* Do we post to the FRONT of the queue?         */
  805f98:	e0bffe03 	ldbu	r2,-8(fp)
  805f9c:	1080008c 	andi	r2,r2,2
  805fa0:	1005003a 	cmpeq	r2,r2,zero
  805fa4:	1000131e 	bne	r2,zero,805ff4 <OSQPostOpt+0x1b0>
        if (pq->OSQOut == pq->OSQStart) {             /* Yes, Post as LIFO, Wrap OUT pointer if we ... */
  805fa8:	e0bffb17 	ldw	r2,-20(fp)
  805fac:	10c00417 	ldw	r3,16(r2)
  805fb0:	e0bffb17 	ldw	r2,-20(fp)
  805fb4:	10800117 	ldw	r2,4(r2)
  805fb8:	1880041e 	bne	r3,r2,805fcc <OSQPostOpt+0x188>
            pq->OSQOut = pq->OSQEnd;                  /*      ... are at the 1st queue entry           */
  805fbc:	e0bffb17 	ldw	r2,-20(fp)
  805fc0:	10c00217 	ldw	r3,8(r2)
  805fc4:	e0bffb17 	ldw	r2,-20(fp)
  805fc8:	10c00415 	stw	r3,16(r2)
        }
        pq->OSQOut--;
  805fcc:	e0bffb17 	ldw	r2,-20(fp)
  805fd0:	10800417 	ldw	r2,16(r2)
  805fd4:	10ffff04 	addi	r3,r2,-4
  805fd8:	e0bffb17 	ldw	r2,-20(fp)
  805fdc:	10c00415 	stw	r3,16(r2)
        *pq->OSQOut = pmsg;                           /*      Insert message into queue                */
  805fe0:	e0bffb17 	ldw	r2,-20(fp)
  805fe4:	10c00417 	ldw	r3,16(r2)
  805fe8:	e0bffd17 	ldw	r2,-12(fp)
  805fec:	18800015 	stw	r2,0(r3)
  805ff0:	00001006 	br	806034 <OSQPostOpt+0x1f0>
    } else {                                          /* No,  Post as FIFO                             */
        *pq->OSQIn++ = pmsg;                          /*      Insert message into queue                */
  805ff4:	e0bffb17 	ldw	r2,-20(fp)
  805ff8:	10c00317 	ldw	r3,12(r2)
  805ffc:	e0bffd17 	ldw	r2,-12(fp)
  806000:	18800015 	stw	r2,0(r3)
  806004:	18c00104 	addi	r3,r3,4
  806008:	e0bffb17 	ldw	r2,-20(fp)
  80600c:	10c00315 	stw	r3,12(r2)
        if (pq->OSQIn == pq->OSQEnd) {                /*      Wrap IN ptr if we are at end of queue    */
  806010:	e0bffb17 	ldw	r2,-20(fp)
  806014:	10c00317 	ldw	r3,12(r2)
  806018:	e0bffb17 	ldw	r2,-20(fp)
  80601c:	10800217 	ldw	r2,8(r2)
  806020:	1880041e 	bne	r3,r2,806034 <OSQPostOpt+0x1f0>
            pq->OSQIn = pq->OSQStart;
  806024:	e0bffb17 	ldw	r2,-20(fp)
  806028:	10c00117 	ldw	r3,4(r2)
  80602c:	e0bffb17 	ldw	r2,-20(fp)
  806030:	10c00315 	stw	r3,12(r2)
        }
    }
    pq->OSQEntries++;                                 /* Update the nbr of entries in the queue        */
  806034:	e0bffb17 	ldw	r2,-20(fp)
  806038:	1080058b 	ldhu	r2,22(r2)
  80603c:	10800044 	addi	r2,r2,1
  806040:	1007883a 	mov	r3,r2
  806044:	e0bffb17 	ldw	r2,-20(fp)
  806048:	10c0058d 	sth	r3,22(r2)
  80604c:	e0bffa17 	ldw	r2,-24(fp)
  806050:	e0bff615 	stw	r2,-40(fp)
  806054:	e0bff617 	ldw	r2,-40(fp)
  806058:	1001703a 	wrctl	status,r2
    OS_EXIT_CRITICAL();
    return (OS_ERR_NONE);
  80605c:	e03fff15 	stw	zero,-4(fp)
  806060:	e0bfff17 	ldw	r2,-4(fp)
}
  806064:	e037883a 	mov	sp,fp
  806068:	dfc00117 	ldw	ra,4(sp)
  80606c:	df000017 	ldw	fp,0(sp)
  806070:	dec00204 	addi	sp,sp,8
  806074:	f800283a 	ret

00806078 <OSQQuery>:
*********************************************************************************************************
*/

#if OS_Q_QUERY_EN > 0
INT8U  OSQQuery (OS_EVENT *pevent, OS_Q_DATA *p_q_data)
{
  806078:	defff504 	addi	sp,sp,-44
  80607c:	df000a15 	stw	fp,40(sp)
  806080:	df000a04 	addi	fp,sp,40
  806084:	e13ffd15 	stw	r4,-12(fp)
  806088:	e17ffe15 	stw	r5,-8(fp)
#else
    INT16U    *psrc;
    INT16U    *pdest;
#endif
#if OS_CRITICAL_METHOD == 3                            /* Allocate storage for CPU status register     */
    OS_CPU_SR  cpu_sr = 0;
  80608c:	e03ff815 	stw	zero,-32(fp)
#endif



#if OS_ARG_CHK_EN > 0
    if (pevent == (OS_EVENT *)0) {                     /* Validate 'pevent'                            */
  806090:	e0bffd17 	ldw	r2,-12(fp)
  806094:	1004c03a 	cmpne	r2,r2,zero
  806098:	1000031e 	bne	r2,zero,8060a8 <OSQQuery+0x30>
        return (OS_ERR_PEVENT_NULL);
  80609c:	00800104 	movi	r2,4
  8060a0:	e0bfff15 	stw	r2,-4(fp)
  8060a4:	00004f06 	br	8061e4 <OSQQuery+0x16c>
    }
    if (p_q_data == (OS_Q_DATA *)0) {                  /* Validate 'p_q_data'                          */
  8060a8:	e0bffe17 	ldw	r2,-8(fp)
  8060ac:	1004c03a 	cmpne	r2,r2,zero
  8060b0:	1000031e 	bne	r2,zero,8060c0 <OSQQuery+0x48>
        return (OS_ERR_PDATA_NULL);
  8060b4:	00800244 	movi	r2,9
  8060b8:	e0bfff15 	stw	r2,-4(fp)
  8060bc:	00004906 	br	8061e4 <OSQQuery+0x16c>
    }
#endif
    if (pevent->OSEventType != OS_EVENT_TYPE_Q) {      /* Validate event block type                    */
  8060c0:	e0bffd17 	ldw	r2,-12(fp)
  8060c4:	10800003 	ldbu	r2,0(r2)
  8060c8:	10803fcc 	andi	r2,r2,255
  8060cc:	108000a0 	cmpeqi	r2,r2,2
  8060d0:	1000031e 	bne	r2,zero,8060e0 <OSQQuery+0x68>
        return (OS_ERR_EVENT_TYPE);
  8060d4:	00800044 	movi	r2,1
  8060d8:	e0bfff15 	stw	r2,-4(fp)
  8060dc:	00004106 	br	8061e4 <OSQQuery+0x16c>
static ALT_INLINE alt_irq_context ALT_ALWAYS_INLINE 
       alt_irq_disable_all (void)
{
  alt_irq_context context;

  NIOS2_READ_STATUS (context);
  8060e0:	0005303a 	rdctl	r2,status
  8060e4:	e0bff715 	stw	r2,-36(fp)

  NIOS2_WRITE_STATUS (context & ~NIOS2_STATUS_PIE_MSK);
  8060e8:	e0fff717 	ldw	r3,-36(fp)
  8060ec:	00bfff84 	movi	r2,-2
  8060f0:	1884703a 	and	r2,r3,r2
  8060f4:	1001703a 	wrctl	status,r2
  
  return context;
  8060f8:	e0bff717 	ldw	r2,-36(fp)
    }
    OS_ENTER_CRITICAL();
  8060fc:	e0bff815 	stw	r2,-32(fp)
    p_q_data->OSEventGrp = pevent->OSEventGrp;         /* Copy message queue wait list                 */
  806100:	e0bffd17 	ldw	r2,-12(fp)
  806104:	10c00283 	ldbu	r3,10(r2)
  806108:	e0bffe17 	ldw	r2,-8(fp)
  80610c:	10c002c5 	stb	r3,11(r2)
    psrc                 = &pevent->OSEventTbl[0];
  806110:	e0bffd17 	ldw	r2,-12(fp)
  806114:	108002c4 	addi	r2,r2,11
  806118:	e0bffa15 	stw	r2,-24(fp)
    pdest                = &p_q_data->OSEventTbl[0];
  80611c:	e0bffe17 	ldw	r2,-8(fp)
  806120:	10800204 	addi	r2,r2,8
  806124:	e0bff915 	stw	r2,-28(fp)
    for (i = 0; i < OS_EVENT_TBL_SIZE; i++) {
  806128:	e03ffb05 	stb	zero,-20(fp)
  80612c:	00000d06 	br	806164 <OSQQuery+0xec>
        *pdest++ = *psrc++;
  806130:	e0bffa17 	ldw	r2,-24(fp)
  806134:	10c00003 	ldbu	r3,0(r2)
  806138:	e0bff917 	ldw	r2,-28(fp)
  80613c:	10c00005 	stb	r3,0(r2)
  806140:	e0bff917 	ldw	r2,-28(fp)
  806144:	10800044 	addi	r2,r2,1
  806148:	e0bff915 	stw	r2,-28(fp)
  80614c:	e0bffa17 	ldw	r2,-24(fp)
  806150:	10800044 	addi	r2,r2,1
  806154:	e0bffa15 	stw	r2,-24(fp)
    }
    OS_ENTER_CRITICAL();
    p_q_data->OSEventGrp = pevent->OSEventGrp;         /* Copy message queue wait list                 */
    psrc                 = &pevent->OSEventTbl[0];
    pdest                = &p_q_data->OSEventTbl[0];
    for (i = 0; i < OS_EVENT_TBL_SIZE; i++) {
  806158:	e0bffb03 	ldbu	r2,-20(fp)
  80615c:	10800044 	addi	r2,r2,1
  806160:	e0bffb05 	stb	r2,-20(fp)
  806164:	e0bffb03 	ldbu	r2,-20(fp)
  806168:	108000f0 	cmpltui	r2,r2,3
  80616c:	103ff01e 	bne	r2,zero,806130 <OSQQuery+0xb8>
        *pdest++ = *psrc++;
    }
    pq = (OS_Q *)pevent->OSEventPtr;
  806170:	e0bffd17 	ldw	r2,-12(fp)
  806174:	10800117 	ldw	r2,4(r2)
  806178:	e0bffc15 	stw	r2,-16(fp)
    if (pq->OSQEntries > 0) {
  80617c:	e0bffc17 	ldw	r2,-16(fp)
  806180:	1080058b 	ldhu	r2,22(r2)
  806184:	10bfffcc 	andi	r2,r2,65535
  806188:	1005003a 	cmpeq	r2,r2,zero
  80618c:	1000061e 	bne	r2,zero,8061a8 <OSQQuery+0x130>
        p_q_data->OSMsg = *pq->OSQOut;                 /* Get next message to return if available      */
  806190:	e0bffc17 	ldw	r2,-16(fp)
  806194:	10800417 	ldw	r2,16(r2)
  806198:	10c00017 	ldw	r3,0(r2)
  80619c:	e0bffe17 	ldw	r2,-8(fp)
  8061a0:	10c00015 	stw	r3,0(r2)
  8061a4:	00000206 	br	8061b0 <OSQQuery+0x138>
    } else {
        p_q_data->OSMsg = (void *)0;
  8061a8:	e0bffe17 	ldw	r2,-8(fp)
  8061ac:	10000015 	stw	zero,0(r2)
    }
    p_q_data->OSNMsgs = pq->OSQEntries;
  8061b0:	e0bffc17 	ldw	r2,-16(fp)
  8061b4:	10c0058b 	ldhu	r3,22(r2)
  8061b8:	e0bffe17 	ldw	r2,-8(fp)
  8061bc:	10c0010d 	sth	r3,4(r2)
    p_q_data->OSQSize = pq->OSQSize;
  8061c0:	e0bffc17 	ldw	r2,-16(fp)
  8061c4:	10c0050b 	ldhu	r3,20(r2)
  8061c8:	e0bffe17 	ldw	r2,-8(fp)
  8061cc:	10c0018d 	sth	r3,6(r2)
  8061d0:	e0bff817 	ldw	r2,-32(fp)
  8061d4:	e0bff615 	stw	r2,-40(fp)
  status &= ~NIOS2_STATUS_PIE_MSK;
  status |= (context & NIOS2_STATUS_PIE_MSK);
  
  NIOS2_WRITE_STATUS (status);
#else
  NIOS2_WRITE_STATUS (context);
  8061d8:	e0bff617 	ldw	r2,-40(fp)
  8061dc:	1001703a 	wrctl	status,r2
    OS_EXIT_CRITICAL();
    return (OS_ERR_NONE);
  8061e0:	e03fff15 	stw	zero,-4(fp)
  8061e4:	e0bfff17 	ldw	r2,-4(fp)
}
  8061e8:	e037883a 	mov	sp,fp
  8061ec:	df000017 	ldw	fp,0(sp)
  8061f0:	dec00104 	addi	sp,sp,4
  8061f4:	f800283a 	ret

008061f8 <OS_QInit>:
* Note(s)    : This function is INTERNAL to uC/OS-II and your application should not call it.
*********************************************************************************************************
*/

void  OS_QInit (void)
{
  8061f8:	defffb04 	addi	sp,sp,-20
  8061fc:	dfc00415 	stw	ra,16(sp)
  806200:	df000315 	stw	fp,12(sp)
  806204:	df000304 	addi	fp,sp,12
    OS_Q   *pq1;
    OS_Q   *pq2;



    OS_MemClr((INT8U *)&OSQTbl[0], sizeof(OSQTbl));  /* Clear the queue table                          */
  806208:	010020b4 	movhi	r4,130
  80620c:	21255504 	addi	r4,r4,-27308
  806210:	01407804 	movi	r5,480
  806214:	08024f40 	call	8024f4 <OS_MemClr>
    pq1 = &OSQTbl[0];
  806218:	008020b4 	movhi	r2,130
  80621c:	10a55504 	addi	r2,r2,-27308
  806220:	e0bffe15 	stw	r2,-8(fp)
    pq2 = &OSQTbl[1];
  806224:	008020b4 	movhi	r2,130
  806228:	10a55b04 	addi	r2,r2,-27284
  80622c:	e0bffd15 	stw	r2,-12(fp)
    for (i = 0; i < (OS_MAX_QS - 1); i++) {          /* Init. list of free QUEUE control blocks        */
  806230:	e03fff0d 	sth	zero,-4(fp)
  806234:	00000c06 	br	806268 <OS_QInit+0x70>
        pq1->OSQPtr = pq2;
  806238:	e0fffe17 	ldw	r3,-8(fp)
  80623c:	e0bffd17 	ldw	r2,-12(fp)
  806240:	18800015 	stw	r2,0(r3)
        pq1++;
  806244:	e0bffe17 	ldw	r2,-8(fp)
  806248:	10800604 	addi	r2,r2,24
  80624c:	e0bffe15 	stw	r2,-8(fp)
        pq2++;
  806250:	e0bffd17 	ldw	r2,-12(fp)
  806254:	10800604 	addi	r2,r2,24
  806258:	e0bffd15 	stw	r2,-12(fp)


    OS_MemClr((INT8U *)&OSQTbl[0], sizeof(OSQTbl));  /* Clear the queue table                          */
    pq1 = &OSQTbl[0];
    pq2 = &OSQTbl[1];
    for (i = 0; i < (OS_MAX_QS - 1); i++) {          /* Init. list of free QUEUE control blocks        */
  80625c:	e0bfff0b 	ldhu	r2,-4(fp)
  806260:	10800044 	addi	r2,r2,1
  806264:	e0bfff0d 	sth	r2,-4(fp)
  806268:	e0bfff0b 	ldhu	r2,-4(fp)
  80626c:	108004f0 	cmpltui	r2,r2,19
  806270:	103ff11e 	bne	r2,zero,806238 <OS_QInit+0x40>
        pq1->OSQPtr = pq2;
        pq1++;
        pq2++;
    }
    pq1->OSQPtr = (OS_Q *)0;
  806274:	e0bffe17 	ldw	r2,-8(fp)
  806278:	10000015 	stw	zero,0(r2)
    OSQFreeList = &OSQTbl[0];
  80627c:	00c02074 	movhi	r3,129
  806280:	18c75204 	addi	r3,r3,7496
  806284:	008020b4 	movhi	r2,130
  806288:	10a55504 	addi	r2,r2,-27308
  80628c:	18800015 	stw	r2,0(r3)
#endif
}
  806290:	e037883a 	mov	sp,fp
  806294:	dfc00117 	ldw	ra,4(sp)
  806298:	df000017 	ldw	fp,0(sp)
  80629c:	dec00204 	addi	sp,sp,8
  8062a0:	f800283a 	ret

008062a4 <OSSemAccept>:
*********************************************************************************************************
*/

#if OS_SEM_ACCEPT_EN > 0
INT16U  OSSemAccept (OS_EVENT *pevent)
{
  8062a4:	defff904 	addi	sp,sp,-28
  8062a8:	df000615 	stw	fp,24(sp)
  8062ac:	df000604 	addi	fp,sp,24
  8062b0:	e13ffe15 	stw	r4,-8(fp)
    INT16U     cnt;
#if OS_CRITICAL_METHOD == 3                           /* Allocate storage for CPU status register      */
    OS_CPU_SR  cpu_sr = 0;
  8062b4:	e03ffc15 	stw	zero,-16(fp)
#endif



#if OS_ARG_CHK_EN > 0
    if (pevent == (OS_EVENT *)0) {                    /* Validate 'pevent'                             */
  8062b8:	e0bffe17 	ldw	r2,-8(fp)
  8062bc:	1004c03a 	cmpne	r2,r2,zero
  8062c0:	1000021e 	bne	r2,zero,8062cc <OSSemAccept+0x28>
        return (0);
  8062c4:	e03fff15 	stw	zero,-4(fp)
  8062c8:	00002106 	br	806350 <OSSemAccept+0xac>
    }
#endif
    if (pevent->OSEventType != OS_EVENT_TYPE_SEM) {   /* Validate event block type                     */
  8062cc:	e0bffe17 	ldw	r2,-8(fp)
  8062d0:	10800003 	ldbu	r2,0(r2)
  8062d4:	10803fcc 	andi	r2,r2,255
  8062d8:	108000e0 	cmpeqi	r2,r2,3
  8062dc:	1000021e 	bne	r2,zero,8062e8 <OSSemAccept+0x44>
        return (0);
  8062e0:	e03fff15 	stw	zero,-4(fp)
  8062e4:	00001a06 	br	806350 <OSSemAccept+0xac>
static ALT_INLINE alt_irq_context ALT_ALWAYS_INLINE 
       alt_irq_disable_all (void)
{
  alt_irq_context context;

  NIOS2_READ_STATUS (context);
  8062e8:	0005303a 	rdctl	r2,status
  8062ec:	e0bffb15 	stw	r2,-20(fp)

  NIOS2_WRITE_STATUS (context & ~NIOS2_STATUS_PIE_MSK);
  8062f0:	e0fffb17 	ldw	r3,-20(fp)
  8062f4:	00bfff84 	movi	r2,-2
  8062f8:	1884703a 	and	r2,r3,r2
  8062fc:	1001703a 	wrctl	status,r2
  
  return context;
  806300:	e0bffb17 	ldw	r2,-20(fp)
    }
    OS_ENTER_CRITICAL();
  806304:	e0bffc15 	stw	r2,-16(fp)
    cnt = pevent->OSEventCnt;
  806308:	e0bffe17 	ldw	r2,-8(fp)
  80630c:	1080020b 	ldhu	r2,8(r2)
  806310:	e0bffd0d 	sth	r2,-12(fp)
    if (cnt > 0) {                                    /* See if resource is available                  */
  806314:	e0bffd0b 	ldhu	r2,-12(fp)
  806318:	1005003a 	cmpeq	r2,r2,zero
  80631c:	1000061e 	bne	r2,zero,806338 <OSSemAccept+0x94>
        pevent->OSEventCnt--;                         /* Yes, decrement semaphore and notify caller    */
  806320:	e0bffe17 	ldw	r2,-8(fp)
  806324:	1080020b 	ldhu	r2,8(r2)
  806328:	10bfffc4 	addi	r2,r2,-1
  80632c:	1007883a 	mov	r3,r2
  806330:	e0bffe17 	ldw	r2,-8(fp)
  806334:	10c0020d 	sth	r3,8(r2)
  806338:	e0bffc17 	ldw	r2,-16(fp)
  80633c:	e0bffa15 	stw	r2,-24(fp)
  status &= ~NIOS2_STATUS_PIE_MSK;
  status |= (context & NIOS2_STATUS_PIE_MSK);
  
  NIOS2_WRITE_STATUS (status);
#else
  NIOS2_WRITE_STATUS (context);
  806340:	e0bffa17 	ldw	r2,-24(fp)
  806344:	1001703a 	wrctl	status,r2
    }
    OS_EXIT_CRITICAL();
    return (cnt);                                     /* Return semaphore count                        */
  806348:	e0bffd0b 	ldhu	r2,-12(fp)
  80634c:	e0bfff15 	stw	r2,-4(fp)
  806350:	e0bfff17 	ldw	r2,-4(fp)
}
  806354:	e037883a 	mov	sp,fp
  806358:	df000017 	ldw	fp,0(sp)
  80635c:	dec00104 	addi	sp,sp,4
  806360:	f800283a 	ret

00806364 <OSSemCreate>:
*              == (void *)0  if no event control blocks were available
*********************************************************************************************************
*/

OS_EVENT  *OSSemCreate (INT16U cnt)
{
  806364:	defff804 	addi	sp,sp,-32
  806368:	dfc00715 	stw	ra,28(sp)
  80636c:	df000615 	stw	fp,24(sp)
  806370:	df000604 	addi	fp,sp,24
  806374:	e13ffe0d 	sth	r4,-8(fp)
    OS_EVENT  *pevent;
#if OS_CRITICAL_METHOD == 3                                /* Allocate storage for CPU status register */
    OS_CPU_SR  cpu_sr = 0;
  806378:	e03ffc15 	stw	zero,-16(fp)
#endif



    if (OSIntNesting > 0) {                                /* See if called from ISR ...               */
  80637c:	00802074 	movhi	r2,129
  806380:	10875504 	addi	r2,r2,7508
  806384:	10800003 	ldbu	r2,0(r2)
  806388:	10803fcc 	andi	r2,r2,255
  80638c:	1005003a 	cmpeq	r2,r2,zero
  806390:	1000021e 	bne	r2,zero,80639c <OSSemCreate+0x38>
        return ((OS_EVENT *)0);                            /* ... can't CREATE from an ISR             */
  806394:	e03fff15 	stw	zero,-4(fp)
  806398:	00003106 	br	806460 <OSSemCreate+0xfc>
static ALT_INLINE alt_irq_context ALT_ALWAYS_INLINE 
       alt_irq_disable_all (void)
{
  alt_irq_context context;

  NIOS2_READ_STATUS (context);
  80639c:	0005303a 	rdctl	r2,status
  8063a0:	e0bffb15 	stw	r2,-20(fp)

  NIOS2_WRITE_STATUS (context & ~NIOS2_STATUS_PIE_MSK);
  8063a4:	e0fffb17 	ldw	r3,-20(fp)
  8063a8:	00bfff84 	movi	r2,-2
  8063ac:	1884703a 	and	r2,r3,r2
  8063b0:	1001703a 	wrctl	status,r2
  
  return context;
  8063b4:	e0bffb17 	ldw	r2,-20(fp)
    }
    OS_ENTER_CRITICAL();
  8063b8:	e0bffc15 	stw	r2,-16(fp)
    pevent = OSEventFreeList;                              /* Get next free event control block        */
  8063bc:	00802074 	movhi	r2,129
  8063c0:	10875404 	addi	r2,r2,7504
  8063c4:	10800017 	ldw	r2,0(r2)
  8063c8:	e0bffd15 	stw	r2,-12(fp)
    if (OSEventFreeList != (OS_EVENT *)0) {                /* See if pool of free ECB pool was empty   */
  8063cc:	00802074 	movhi	r2,129
  8063d0:	10875404 	addi	r2,r2,7504
  8063d4:	10800017 	ldw	r2,0(r2)
  8063d8:	1005003a 	cmpeq	r2,r2,zero
  8063dc:	1000081e 	bne	r2,zero,806400 <OSSemCreate+0x9c>
        OSEventFreeList = (OS_EVENT *)OSEventFreeList->OSEventPtr;
  8063e0:	00802074 	movhi	r2,129
  8063e4:	10875404 	addi	r2,r2,7504
  8063e8:	10800017 	ldw	r2,0(r2)
  8063ec:	10800117 	ldw	r2,4(r2)
  8063f0:	1007883a 	mov	r3,r2
  8063f4:	00802074 	movhi	r2,129
  8063f8:	10875404 	addi	r2,r2,7504
  8063fc:	10c00015 	stw	r3,0(r2)
  806400:	e0bffc17 	ldw	r2,-16(fp)
  806404:	e0bffa15 	stw	r2,-24(fp)
  status &= ~NIOS2_STATUS_PIE_MSK;
  status |= (context & NIOS2_STATUS_PIE_MSK);
  
  NIOS2_WRITE_STATUS (status);
#else
  NIOS2_WRITE_STATUS (context);
  806408:	e0bffa17 	ldw	r2,-24(fp)
  80640c:	1001703a 	wrctl	status,r2
    }
    OS_EXIT_CRITICAL();
    if (pevent != (OS_EVENT *)0) {                         /* Get an event control block               */
  806410:	e0bffd17 	ldw	r2,-12(fp)
  806414:	1005003a 	cmpeq	r2,r2,zero
  806418:	10000f1e 	bne	r2,zero,806458 <OSSemCreate+0xf4>
        pevent->OSEventType    = OS_EVENT_TYPE_SEM;
  80641c:	e0fffd17 	ldw	r3,-12(fp)
  806420:	008000c4 	movi	r2,3
  806424:	18800005 	stb	r2,0(r3)
        pevent->OSEventCnt     = cnt;                      /* Set semaphore value                      */
  806428:	e0fffd17 	ldw	r3,-12(fp)
  80642c:	e0bffe0b 	ldhu	r2,-8(fp)
  806430:	1880020d 	sth	r2,8(r3)
        pevent->OSEventPtr     = (void *)0;                /* Unlink from ECB free list                */
  806434:	e0bffd17 	ldw	r2,-12(fp)
  806438:	10000115 	stw	zero,4(r2)
#if OS_EVENT_NAME_SIZE > 1
        pevent->OSEventName[0] = '?';                      /* Unknown name                             */
  80643c:	e0fffd17 	ldw	r3,-12(fp)
  806440:	00800fc4 	movi	r2,63
  806444:	18800385 	stb	r2,14(r3)
        pevent->OSEventName[1] = OS_ASCII_NUL;
  806448:	e0bffd17 	ldw	r2,-12(fp)
  80644c:	100003c5 	stb	zero,15(r2)
#endif
        OS_EventWaitListInit(pevent);                      /* Initialize to 'nobody waiting' on sem.   */
  806450:	e13ffd17 	ldw	r4,-12(fp)
  806454:	08021280 	call	802128 <OS_EventWaitListInit>
    }
    return (pevent);
  806458:	e0bffd17 	ldw	r2,-12(fp)
  80645c:	e0bfff15 	stw	r2,-4(fp)
  806460:	e0bfff17 	ldw	r2,-4(fp)
}
  806464:	e037883a 	mov	sp,fp
  806468:	dfc00117 	ldw	ra,4(sp)
  80646c:	df000017 	ldw	fp,0(sp)
  806470:	dec00204 	addi	sp,sp,8
  806474:	f800283a 	ret

00806478 <OSSemDel>:
*********************************************************************************************************
*/

#if OS_SEM_DEL_EN > 0
OS_EVENT  *OSSemDel (OS_EVENT *pevent, INT8U opt, INT8U *perr)
{
  806478:	defff104 	addi	sp,sp,-60
  80647c:	dfc00e15 	stw	ra,56(sp)
  806480:	df000d15 	stw	fp,52(sp)
  806484:	df000d04 	addi	fp,sp,52
  806488:	e13ffb15 	stw	r4,-20(fp)
  80648c:	e1bffd15 	stw	r6,-12(fp)
  806490:	e17ffc05 	stb	r5,-16(fp)
    BOOLEAN    tasks_waiting;
    OS_EVENT  *pevent_return;
#if OS_CRITICAL_METHOD == 3                                /* Allocate storage for CPU status register */
    OS_CPU_SR  cpu_sr = 0;
  806494:	e03ff815 	stw	zero,-32(fp)
#endif



#if OS_ARG_CHK_EN > 0
    if (perr == (INT8U *)0) {                              /* Validate 'perr'                          */
  806498:	e0bffd17 	ldw	r2,-12(fp)
  80649c:	1004c03a 	cmpne	r2,r2,zero
  8064a0:	1000031e 	bne	r2,zero,8064b0 <OSSemDel+0x38>
        return (pevent);
  8064a4:	e0bffb17 	ldw	r2,-20(fp)
  8064a8:	e0bfff15 	stw	r2,-4(fp)
  8064ac:	00009406 	br	806700 <OSSemDel+0x288>
    }
    if (pevent == (OS_EVENT *)0) {                         /* Validate 'pevent'                        */
  8064b0:	e0bffb17 	ldw	r2,-20(fp)
  8064b4:	1004c03a 	cmpne	r2,r2,zero
  8064b8:	1000061e 	bne	r2,zero,8064d4 <OSSemDel+0x5c>
        *perr = OS_ERR_PEVENT_NULL;
  8064bc:	e0fffd17 	ldw	r3,-12(fp)
  8064c0:	00800104 	movi	r2,4
  8064c4:	18800005 	stb	r2,0(r3)
        return (pevent);
  8064c8:	e0fffb17 	ldw	r3,-20(fp)
  8064cc:	e0ffff15 	stw	r3,-4(fp)
  8064d0:	00008b06 	br	806700 <OSSemDel+0x288>
    }
#endif
    if (pevent->OSEventType != OS_EVENT_TYPE_SEM) {        /* Validate event block type                */
  8064d4:	e0bffb17 	ldw	r2,-20(fp)
  8064d8:	10800003 	ldbu	r2,0(r2)
  8064dc:	10803fcc 	andi	r2,r2,255
  8064e0:	108000e0 	cmpeqi	r2,r2,3
  8064e4:	1000061e 	bne	r2,zero,806500 <OSSemDel+0x88>
        *perr = OS_ERR_EVENT_TYPE;
  8064e8:	e0fffd17 	ldw	r3,-12(fp)
  8064ec:	00800044 	movi	r2,1
  8064f0:	18800005 	stb	r2,0(r3)
        return (pevent);
  8064f4:	e0bffb17 	ldw	r2,-20(fp)
  8064f8:	e0bfff15 	stw	r2,-4(fp)
  8064fc:	00008006 	br	806700 <OSSemDel+0x288>
    }
    if (OSIntNesting > 0) {                                /* See if called from ISR ...               */
  806500:	00802074 	movhi	r2,129
  806504:	10875504 	addi	r2,r2,7508
  806508:	10800003 	ldbu	r2,0(r2)
  80650c:	10803fcc 	andi	r2,r2,255
  806510:	1005003a 	cmpeq	r2,r2,zero
  806514:	1000061e 	bne	r2,zero,806530 <OSSemDel+0xb8>
        *perr = OS_ERR_DEL_ISR;                             /* ... can't DELETE from an ISR             */
  806518:	e0fffd17 	ldw	r3,-12(fp)
  80651c:	008003c4 	movi	r2,15
  806520:	18800005 	stb	r2,0(r3)
        return (pevent);
  806524:	e0fffb17 	ldw	r3,-20(fp)
  806528:	e0ffff15 	stw	r3,-4(fp)
  80652c:	00007406 	br	806700 <OSSemDel+0x288>
static ALT_INLINE alt_irq_context ALT_ALWAYS_INLINE 
       alt_irq_disable_all (void)
{
  alt_irq_context context;

  NIOS2_READ_STATUS (context);
  806530:	0005303a 	rdctl	r2,status
  806534:	e0bff715 	stw	r2,-36(fp)

  NIOS2_WRITE_STATUS (context & ~NIOS2_STATUS_PIE_MSK);
  806538:	e0fff717 	ldw	r3,-36(fp)
  80653c:	00bfff84 	movi	r2,-2
  806540:	1884703a 	and	r2,r3,r2
  806544:	1001703a 	wrctl	status,r2
  
  return context;
  806548:	e0bff717 	ldw	r2,-36(fp)
    }
    OS_ENTER_CRITICAL();
  80654c:	e0bff815 	stw	r2,-32(fp)
    if (pevent->OSEventGrp != 0) {                         /* See if any tasks waiting on semaphore    */
  806550:	e0bffb17 	ldw	r2,-20(fp)
  806554:	10800283 	ldbu	r2,10(r2)
  806558:	10803fcc 	andi	r2,r2,255
  80655c:	1005003a 	cmpeq	r2,r2,zero
  806560:	1000031e 	bne	r2,zero,806570 <OSSemDel+0xf8>
        tasks_waiting = OS_TRUE;                           /* Yes                                      */
  806564:	00800044 	movi	r2,1
  806568:	e0bffa05 	stb	r2,-24(fp)
  80656c:	00000106 	br	806574 <OSSemDel+0xfc>
    } else {
        tasks_waiting = OS_FALSE;                          /* No                                       */
  806570:	e03ffa05 	stb	zero,-24(fp)
    }
    switch (opt) {
  806574:	e0bffc03 	ldbu	r2,-16(fp)
  806578:	e0bffe15 	stw	r2,-8(fp)
  80657c:	e0fffe17 	ldw	r3,-8(fp)
  806580:	1805003a 	cmpeq	r2,r3,zero
  806584:	1000041e 	bne	r2,zero,806598 <OSSemDel+0x120>
  806588:	e0fffe17 	ldw	r3,-8(fp)
  80658c:	18800060 	cmpeqi	r2,r3,1
  806590:	10002d1e 	bne	r2,zero,806648 <OSSemDel+0x1d0>
  806594:	00004f06 	br	8066d4 <OSSemDel+0x25c>
        case OS_DEL_NO_PEND:                               /* Delete semaphore only if no task waiting */
             if (tasks_waiting == OS_FALSE) {
  806598:	e0bffa03 	ldbu	r2,-24(fp)
  80659c:	1004c03a 	cmpne	r2,r2,zero
  8065a0:	10001a1e 	bne	r2,zero,80660c <OSSemDel+0x194>
#if OS_EVENT_NAME_SIZE > 1
                 pevent->OSEventName[0] = '?';             /* Unknown name                             */
  8065a4:	e0fffb17 	ldw	r3,-20(fp)
  8065a8:	00800fc4 	movi	r2,63
  8065ac:	18800385 	stb	r2,14(r3)
                 pevent->OSEventName[1] = OS_ASCII_NUL;
  8065b0:	e0bffb17 	ldw	r2,-20(fp)
  8065b4:	100003c5 	stb	zero,15(r2)
#endif
                 pevent->OSEventType    = OS_EVENT_TYPE_UNUSED;
  8065b8:	e0bffb17 	ldw	r2,-20(fp)
  8065bc:	10000005 	stb	zero,0(r2)
                 pevent->OSEventPtr     = OSEventFreeList; /* Return Event Control Block to free list  */
  8065c0:	00802074 	movhi	r2,129
  8065c4:	10875404 	addi	r2,r2,7504
  8065c8:	10c00017 	ldw	r3,0(r2)
  8065cc:	e0bffb17 	ldw	r2,-20(fp)
  8065d0:	10c00115 	stw	r3,4(r2)
                 pevent->OSEventCnt     = 0;
  8065d4:	e0bffb17 	ldw	r2,-20(fp)
  8065d8:	1000020d 	sth	zero,8(r2)
                 OSEventFreeList        = pevent;          /* Get next free event control block        */
  8065dc:	00c02074 	movhi	r3,129
  8065e0:	18c75404 	addi	r3,r3,7504
  8065e4:	e0bffb17 	ldw	r2,-20(fp)
  8065e8:	18800015 	stw	r2,0(r3)
  8065ec:	e0bff817 	ldw	r2,-32(fp)
  8065f0:	e0bff615 	stw	r2,-40(fp)
  status &= ~NIOS2_STATUS_PIE_MSK;
  status |= (context & NIOS2_STATUS_PIE_MSK);
  
  NIOS2_WRITE_STATUS (status);
#else
  NIOS2_WRITE_STATUS (context);
  8065f4:	e0bff617 	ldw	r2,-40(fp)
  8065f8:	1001703a 	wrctl	status,r2
                 OS_EXIT_CRITICAL();
                 *perr                  = OS_ERR_NONE;
  8065fc:	e0bffd17 	ldw	r2,-12(fp)
  806600:	10000005 	stb	zero,0(r2)
                 pevent_return          = (OS_EVENT *)0;   /* Semaphore has been deleted               */
  806604:	e03ff915 	stw	zero,-28(fp)
  806608:	00003b06 	br	8066f8 <OSSemDel+0x280>
  80660c:	e0bff817 	ldw	r2,-32(fp)
  806610:	e0bff515 	stw	r2,-44(fp)
  806614:	e0bff517 	ldw	r2,-44(fp)
  806618:	1001703a 	wrctl	status,r2
             } else {
                 OS_EXIT_CRITICAL();
                 *perr                  = OS_ERR_TASK_WAITING;
  80661c:	e0fffd17 	ldw	r3,-12(fp)
  806620:	00801244 	movi	r2,73
  806624:	18800005 	stb	r2,0(r3)
                 pevent_return          = pevent;
  806628:	e0bffb17 	ldw	r2,-20(fp)
  80662c:	e0bff915 	stw	r2,-28(fp)
             }
             break;
  806630:	00003106 	br	8066f8 <OSSemDel+0x280>

        case OS_DEL_ALWAYS:                                /* Always delete the semaphore              */
             while (pevent->OSEventGrp != 0) {             /* Ready ALL tasks waiting for semaphore    */
                 (void)OS_EventTaskRdy(pevent, (void *)0, OS_STAT_SEM, OS_STAT_PEND_OK);
  806634:	e13ffb17 	ldw	r4,-20(fp)
  806638:	000b883a 	mov	r5,zero
  80663c:	01800044 	movi	r6,1
  806640:	000f883a 	mov	r7,zero
  806644:	0801b740 	call	801b74 <OS_EventTaskRdy>
                 pevent_return          = pevent;
             }
             break;

        case OS_DEL_ALWAYS:                                /* Always delete the semaphore              */
             while (pevent->OSEventGrp != 0) {             /* Ready ALL tasks waiting for semaphore    */
  806648:	e0bffb17 	ldw	r2,-20(fp)
  80664c:	10800283 	ldbu	r2,10(r2)
  806650:	10803fcc 	andi	r2,r2,255
  806654:	1004c03a 	cmpne	r2,r2,zero
  806658:	103ff61e 	bne	r2,zero,806634 <OSSemDel+0x1bc>
                 (void)OS_EventTaskRdy(pevent, (void *)0, OS_STAT_SEM, OS_STAT_PEND_OK);
             }
#if OS_EVENT_NAME_SIZE > 1
             pevent->OSEventName[0] = '?';                 /* Unknown name                             */
  80665c:	e0fffb17 	ldw	r3,-20(fp)
  806660:	00800fc4 	movi	r2,63
  806664:	18800385 	stb	r2,14(r3)
             pevent->OSEventName[1] = OS_ASCII_NUL;
  806668:	e0bffb17 	ldw	r2,-20(fp)
  80666c:	100003c5 	stb	zero,15(r2)
#endif
             pevent->OSEventType    = OS_EVENT_TYPE_UNUSED;
  806670:	e0bffb17 	ldw	r2,-20(fp)
  806674:	10000005 	stb	zero,0(r2)
             pevent->OSEventPtr     = OSEventFreeList;     /* Return Event Control Block to free list  */
  806678:	00802074 	movhi	r2,129
  80667c:	10875404 	addi	r2,r2,7504
  806680:	10c00017 	ldw	r3,0(r2)
  806684:	e0bffb17 	ldw	r2,-20(fp)
  806688:	10c00115 	stw	r3,4(r2)
             pevent->OSEventCnt     = 0;
  80668c:	e0bffb17 	ldw	r2,-20(fp)
  806690:	1000020d 	sth	zero,8(r2)
             OSEventFreeList        = pevent;              /* Get next free event control block        */
  806694:	00c02074 	movhi	r3,129
  806698:	18c75404 	addi	r3,r3,7504
  80669c:	e0bffb17 	ldw	r2,-20(fp)
  8066a0:	18800015 	stw	r2,0(r3)
  8066a4:	e0bff817 	ldw	r2,-32(fp)
  8066a8:	e0bff415 	stw	r2,-48(fp)
  8066ac:	e0bff417 	ldw	r2,-48(fp)
  8066b0:	1001703a 	wrctl	status,r2
             OS_EXIT_CRITICAL();
             if (tasks_waiting == OS_TRUE) {               /* Reschedule only if task(s) were waiting  */
  8066b4:	e0bffa03 	ldbu	r2,-24(fp)
  8066b8:	10800058 	cmpnei	r2,r2,1
  8066bc:	1000011e 	bne	r2,zero,8066c4 <OSSemDel+0x24c>
                 OS_Sched();                               /* Find highest priority task ready to run  */
  8066c0:	08025b40 	call	8025b4 <OS_Sched>
             }
             *perr                  = OS_ERR_NONE;
  8066c4:	e0bffd17 	ldw	r2,-12(fp)
  8066c8:	10000005 	stb	zero,0(r2)
             pevent_return          = (OS_EVENT *)0;       /* Semaphore has been deleted               */
  8066cc:	e03ff915 	stw	zero,-28(fp)
             break;
  8066d0:	00000906 	br	8066f8 <OSSemDel+0x280>
  8066d4:	e0bff817 	ldw	r2,-32(fp)
  8066d8:	e0bff315 	stw	r2,-52(fp)
  8066dc:	e0bff317 	ldw	r2,-52(fp)
  8066e0:	1001703a 	wrctl	status,r2

        default:
             OS_EXIT_CRITICAL();
             *perr                  = OS_ERR_INVALID_OPT;
  8066e4:	e0fffd17 	ldw	r3,-12(fp)
  8066e8:	008001c4 	movi	r2,7
  8066ec:	18800005 	stb	r2,0(r3)
             pevent_return          = pevent;
  8066f0:	e0bffb17 	ldw	r2,-20(fp)
  8066f4:	e0bff915 	stw	r2,-28(fp)
             break;
    }
    return (pevent_return);
  8066f8:	e0bff917 	ldw	r2,-28(fp)
  8066fc:	e0bfff15 	stw	r2,-4(fp)
  806700:	e0bfff17 	ldw	r2,-4(fp)
}
  806704:	e037883a 	mov	sp,fp
  806708:	dfc00117 	ldw	ra,4(sp)
  80670c:	df000017 	ldw	fp,0(sp)
  806710:	dec00204 	addi	sp,sp,8
  806714:	f800283a 	ret

00806718 <OSSemPend>:
* Returns    : none
*********************************************************************************************************
*/
/*$PAGE*/
void  OSSemPend (OS_EVENT *pevent, INT16U timeout, INT8U *perr)
{
  806718:	defff404 	addi	sp,sp,-48
  80671c:	dfc00b15 	stw	ra,44(sp)
  806720:	df000a15 	stw	fp,40(sp)
  806724:	df000a04 	addi	fp,sp,40
  806728:	e13ffc15 	stw	r4,-16(fp)
  80672c:	e1bffe15 	stw	r6,-8(fp)
  806730:	e17ffd0d 	sth	r5,-12(fp)
#if OS_CRITICAL_METHOD == 3                           /* Allocate storage for CPU status register      */
    OS_CPU_SR  cpu_sr = 0;
  806734:	e03ffb15 	stw	zero,-20(fp)
#endif



#if OS_ARG_CHK_EN > 0
    if (perr == (INT8U *)0) {                         /* Validate 'perr'                               */
  806738:	e0bffe17 	ldw	r2,-8(fp)
  80673c:	1005003a 	cmpeq	r2,r2,zero
  806740:	10008f1e 	bne	r2,zero,806980 <OSSemPend+0x268>
        return;
    }
    if (pevent == (OS_EVENT *)0) {                    /* Validate 'pevent'                             */
  806744:	e0bffc17 	ldw	r2,-16(fp)
  806748:	1004c03a 	cmpne	r2,r2,zero
  80674c:	1000041e 	bne	r2,zero,806760 <OSSemPend+0x48>
        *perr = OS_ERR_PEVENT_NULL;
  806750:	e0fffe17 	ldw	r3,-8(fp)
  806754:	00800104 	movi	r2,4
  806758:	18800005 	stb	r2,0(r3)
        return;
  80675c:	00008806 	br	806980 <OSSemPend+0x268>
    }
#endif
    if (pevent->OSEventType != OS_EVENT_TYPE_SEM) {   /* Validate event block type                     */
  806760:	e0bffc17 	ldw	r2,-16(fp)
  806764:	10800003 	ldbu	r2,0(r2)
  806768:	10803fcc 	andi	r2,r2,255
  80676c:	108000e0 	cmpeqi	r2,r2,3
  806770:	1000041e 	bne	r2,zero,806784 <OSSemPend+0x6c>
        *perr = OS_ERR_EVENT_TYPE;
  806774:	e0fffe17 	ldw	r3,-8(fp)
  806778:	00800044 	movi	r2,1
  80677c:	18800005 	stb	r2,0(r3)
        return;
  806780:	00007f06 	br	806980 <OSSemPend+0x268>
    }
    if (OSIntNesting > 0) {                           /* See if called from ISR ...                    */
  806784:	00802074 	movhi	r2,129
  806788:	10875504 	addi	r2,r2,7508
  80678c:	10800003 	ldbu	r2,0(r2)
  806790:	10803fcc 	andi	r2,r2,255
  806794:	1005003a 	cmpeq	r2,r2,zero
  806798:	1000041e 	bne	r2,zero,8067ac <OSSemPend+0x94>
        *perr = OS_ERR_PEND_ISR;                      /* ... can't PEND from an ISR                    */
  80679c:	e0fffe17 	ldw	r3,-8(fp)
  8067a0:	00800084 	movi	r2,2
  8067a4:	18800005 	stb	r2,0(r3)
        return;
  8067a8:	00007506 	br	806980 <OSSemPend+0x268>
    }
    if (OSLockNesting > 0) {                          /* See if called with scheduler locked ...       */
  8067ac:	00802074 	movhi	r2,129
  8067b0:	10874704 	addi	r2,r2,7452
  8067b4:	10800003 	ldbu	r2,0(r2)
  8067b8:	10803fcc 	andi	r2,r2,255
  8067bc:	1005003a 	cmpeq	r2,r2,zero
  8067c0:	1000041e 	bne	r2,zero,8067d4 <OSSemPend+0xbc>
        *perr = OS_ERR_PEND_LOCKED;                   /* ... can't PEND when locked                    */
  8067c4:	e0fffe17 	ldw	r3,-8(fp)
  8067c8:	00800344 	movi	r2,13
  8067cc:	18800005 	stb	r2,0(r3)
        return;
  8067d0:	00006b06 	br	806980 <OSSemPend+0x268>
static ALT_INLINE alt_irq_context ALT_ALWAYS_INLINE 
       alt_irq_disable_all (void)
{
  alt_irq_context context;

  NIOS2_READ_STATUS (context);
  8067d4:	0005303a 	rdctl	r2,status
  8067d8:	e0bffa15 	stw	r2,-24(fp)

  NIOS2_WRITE_STATUS (context & ~NIOS2_STATUS_PIE_MSK);
  8067dc:	e0fffa17 	ldw	r3,-24(fp)
  8067e0:	00bfff84 	movi	r2,-2
  8067e4:	1884703a 	and	r2,r3,r2
  8067e8:	1001703a 	wrctl	status,r2
  
  return context;
  8067ec:	e0bffa17 	ldw	r2,-24(fp)
    }
    OS_ENTER_CRITICAL();
  8067f0:	e0bffb15 	stw	r2,-20(fp)
    if (pevent->OSEventCnt > 0) {                     /* If sem. is positive, resource available ...   */
  8067f4:	e0bffc17 	ldw	r2,-16(fp)
  8067f8:	1080020b 	ldhu	r2,8(r2)
  8067fc:	10bfffcc 	andi	r2,r2,65535
  806800:	1005003a 	cmpeq	r2,r2,zero
  806804:	10000d1e 	bne	r2,zero,80683c <OSSemPend+0x124>
        pevent->OSEventCnt--;                         /* ... decrement semaphore only if positive.     */
  806808:	e0bffc17 	ldw	r2,-16(fp)
  80680c:	1080020b 	ldhu	r2,8(r2)
  806810:	10bfffc4 	addi	r2,r2,-1
  806814:	1007883a 	mov	r3,r2
  806818:	e0bffc17 	ldw	r2,-16(fp)
  80681c:	10c0020d 	sth	r3,8(r2)
  806820:	e0bffb17 	ldw	r2,-20(fp)
  806824:	e0bff915 	stw	r2,-28(fp)
  status &= ~NIOS2_STATUS_PIE_MSK;
  status |= (context & NIOS2_STATUS_PIE_MSK);
  
  NIOS2_WRITE_STATUS (status);
#else
  NIOS2_WRITE_STATUS (context);
  806828:	e0bff917 	ldw	r2,-28(fp)
  80682c:	1001703a 	wrctl	status,r2
        OS_EXIT_CRITICAL();
        *perr = OS_ERR_NONE;
  806830:	e0bffe17 	ldw	r2,-8(fp)
  806834:	10000005 	stb	zero,0(r2)
        return;
  806838:	00005106 	br	806980 <OSSemPend+0x268>
    }
                                                      /* Otherwise, must wait until event occurs       */
    OSTCBCur->OSTCBStat     |= OS_STAT_SEM;           /* Resource not available, pend on semaphore     */
  80683c:	00802074 	movhi	r2,129
  806840:	10875604 	addi	r2,r2,7512
  806844:	10c00017 	ldw	r3,0(r2)
  806848:	00802074 	movhi	r2,129
  80684c:	10875604 	addi	r2,r2,7512
  806850:	10800017 	ldw	r2,0(r2)
  806854:	10800c03 	ldbu	r2,48(r2)
  806858:	10800054 	ori	r2,r2,1
  80685c:	18800c05 	stb	r2,48(r3)
    OSTCBCur->OSTCBStatPend  = OS_STAT_PEND_OK;
  806860:	00802074 	movhi	r2,129
  806864:	10875604 	addi	r2,r2,7512
  806868:	10800017 	ldw	r2,0(r2)
  80686c:	10000c45 	stb	zero,49(r2)
    OSTCBCur->OSTCBDly       = timeout;               /* Store pend timeout in TCB                     */
  806870:	00802074 	movhi	r2,129
  806874:	10875604 	addi	r2,r2,7512
  806878:	10c00017 	ldw	r3,0(r2)
  80687c:	e0bffd0b 	ldhu	r2,-12(fp)
  806880:	18800b8d 	sth	r2,46(r3)
    OS_EventTaskWait(pevent);                         /* Suspend task until event or timeout occurs    */
  806884:	e13ffc17 	ldw	r4,-16(fp)
  806888:	0801d080 	call	801d08 <OS_EventTaskWait>
  80688c:	e0bffb17 	ldw	r2,-20(fp)
  806890:	e0bff815 	stw	r2,-32(fp)
  806894:	e0bff817 	ldw	r2,-32(fp)
  806898:	1001703a 	wrctl	status,r2
    OS_EXIT_CRITICAL();
    OS_Sched();                                       /* Find next highest priority task ready         */
  80689c:	08025b40 	call	8025b4 <OS_Sched>
static ALT_INLINE alt_irq_context ALT_ALWAYS_INLINE 
       alt_irq_disable_all (void)
{
  alt_irq_context context;

  NIOS2_READ_STATUS (context);
  8068a0:	0005303a 	rdctl	r2,status
  8068a4:	e0bff715 	stw	r2,-36(fp)

  NIOS2_WRITE_STATUS (context & ~NIOS2_STATUS_PIE_MSK);
  8068a8:	e0fff717 	ldw	r3,-36(fp)
  8068ac:	00bfff84 	movi	r2,-2
  8068b0:	1884703a 	and	r2,r3,r2
  8068b4:	1001703a 	wrctl	status,r2
  
  return context;
  8068b8:	e0bff717 	ldw	r2,-36(fp)
    OS_ENTER_CRITICAL();
  8068bc:	e0bffb15 	stw	r2,-20(fp)
    switch (OSTCBCur->OSTCBStatPend) {                /* See if we timed-out or aborted                */
  8068c0:	00802074 	movhi	r2,129
  8068c4:	10875604 	addi	r2,r2,7512
  8068c8:	10800017 	ldw	r2,0(r2)
  8068cc:	10800c43 	ldbu	r2,49(r2)
  8068d0:	10803fcc 	andi	r2,r2,255
  8068d4:	e0bfff15 	stw	r2,-4(fp)
  8068d8:	e0ffff17 	ldw	r3,-4(fp)
  8068dc:	1805003a 	cmpeq	r2,r3,zero
  8068e0:	1000041e 	bne	r2,zero,8068f4 <OSSemPend+0x1dc>
  8068e4:	e0ffff17 	ldw	r3,-4(fp)
  8068e8:	188000a0 	cmpeqi	r2,r3,2
  8068ec:	1000041e 	bne	r2,zero,806900 <OSSemPend+0x1e8>
  8068f0:	00000706 	br	806910 <OSSemPend+0x1f8>
        case OS_STAT_PEND_OK:
             *perr = OS_ERR_NONE;
  8068f4:	e0bffe17 	ldw	r2,-8(fp)
  8068f8:	10000005 	stb	zero,0(r2)
             break;
  8068fc:	00000c06 	br	806930 <OSSemPend+0x218>

        case OS_STAT_PEND_ABORT:
             *perr = OS_ERR_PEND_ABORT;               /* Indicate that we aborted                      */
  806900:	e0fffe17 	ldw	r3,-8(fp)
  806904:	00800384 	movi	r2,14
  806908:	18800005 	stb	r2,0(r3)
             break;
  80690c:	00000806 	br	806930 <OSSemPend+0x218>

        case OS_STAT_PEND_TO:
        default:        
             OS_EventTaskRemove(OSTCBCur, pevent);
  806910:	00802074 	movhi	r2,129
  806914:	10875604 	addi	r2,r2,7512
  806918:	11000017 	ldw	r4,0(r2)
  80691c:	e17ffc17 	ldw	r5,-16(fp)
  806920:	0801f6c0 	call	801f6c <OS_EventTaskRemove>
             *perr = OS_ERR_TIMEOUT;                  /* Indicate that we didn't get event within TO   */
  806924:	e0fffe17 	ldw	r3,-8(fp)
  806928:	00800284 	movi	r2,10
  80692c:	18800005 	stb	r2,0(r3)
             break;
    }
    OSTCBCur->OSTCBStat          =  OS_STAT_RDY;      /* Set   task  status to ready                   */
  806930:	00802074 	movhi	r2,129
  806934:	10875604 	addi	r2,r2,7512
  806938:	10800017 	ldw	r2,0(r2)
  80693c:	10000c05 	stb	zero,48(r2)
    OSTCBCur->OSTCBStatPend      =  OS_STAT_PEND_OK;  /* Clear pend  status                            */
  806940:	00802074 	movhi	r2,129
  806944:	10875604 	addi	r2,r2,7512
  806948:	10800017 	ldw	r2,0(r2)
  80694c:	10000c45 	stb	zero,49(r2)
    OSTCBCur->OSTCBEventPtr      = (OS_EVENT  *)0;    /* Clear event pointers                          */
  806950:	00802074 	movhi	r2,129
  806954:	10875604 	addi	r2,r2,7512
  806958:	10800017 	ldw	r2,0(r2)
  80695c:	10000715 	stw	zero,28(r2)
#if (OS_EVENT_MULTI_EN > 0)
    OSTCBCur->OSTCBEventMultiPtr = (OS_EVENT **)0;
  806960:	00802074 	movhi	r2,129
  806964:	10875604 	addi	r2,r2,7512
  806968:	10800017 	ldw	r2,0(r2)
  80696c:	10000815 	stw	zero,32(r2)
  806970:	e0bffb17 	ldw	r2,-20(fp)
  806974:	e0bff615 	stw	r2,-40(fp)
  status &= ~NIOS2_STATUS_PIE_MSK;
  status |= (context & NIOS2_STATUS_PIE_MSK);
  
  NIOS2_WRITE_STATUS (status);
#else
  NIOS2_WRITE_STATUS (context);
  806978:	e0bff617 	ldw	r2,-40(fp)
  80697c:	1001703a 	wrctl	status,r2
#endif
    OS_EXIT_CRITICAL();
}
  806980:	e037883a 	mov	sp,fp
  806984:	dfc00117 	ldw	ra,4(sp)
  806988:	df000017 	ldw	fp,0(sp)
  80698c:	dec00204 	addi	sp,sp,8
  806990:	f800283a 	ret

00806994 <OSSemPendAbort>:
*********************************************************************************************************
*/

#if OS_SEM_PEND_ABORT_EN > 0
INT8U  OSSemPendAbort (OS_EVENT *pevent, INT8U opt, INT8U *perr)
{
  806994:	defff504 	addi	sp,sp,-44
  806998:	dfc00a15 	stw	ra,40(sp)
  80699c:	df000915 	stw	fp,36(sp)
  8069a0:	df000904 	addi	fp,sp,36
  8069a4:	e13ffc15 	stw	r4,-16(fp)
  8069a8:	e1bffe15 	stw	r6,-8(fp)
  8069ac:	e17ffd05 	stb	r5,-12(fp)
    INT8U      nbr_tasks;
#if OS_CRITICAL_METHOD == 3                           /* Allocate storage for CPU status register      */
    OS_CPU_SR  cpu_sr = 0;
  8069b0:	e03ffa15 	stw	zero,-24(fp)
#endif



#if OS_ARG_CHK_EN > 0
    if (perr == (INT8U *)0) {                         /* Validate 'perr'                               */
  8069b4:	e0bffe17 	ldw	r2,-8(fp)
  8069b8:	1004c03a 	cmpne	r2,r2,zero
  8069bc:	1000021e 	bne	r2,zero,8069c8 <OSSemPendAbort+0x34>
        return (0);
  8069c0:	e03fff15 	stw	zero,-4(fp)
  8069c4:	00004c06 	br	806af8 <OSSemPendAbort+0x164>
    }
    if (pevent == (OS_EVENT *)0) {                    /* Validate 'pevent'                             */
  8069c8:	e0bffc17 	ldw	r2,-16(fp)
  8069cc:	1004c03a 	cmpne	r2,r2,zero
  8069d0:	1000051e 	bne	r2,zero,8069e8 <OSSemPendAbort+0x54>
        *perr = OS_ERR_PEVENT_NULL;
  8069d4:	e0fffe17 	ldw	r3,-8(fp)
  8069d8:	00800104 	movi	r2,4
  8069dc:	18800005 	stb	r2,0(r3)
        return (0);
  8069e0:	e03fff15 	stw	zero,-4(fp)
  8069e4:	00004406 	br	806af8 <OSSemPendAbort+0x164>
    }
#endif
    if (pevent->OSEventType != OS_EVENT_TYPE_SEM) {   /* Validate event block type                     */
  8069e8:	e0bffc17 	ldw	r2,-16(fp)
  8069ec:	10800003 	ldbu	r2,0(r2)
  8069f0:	10803fcc 	andi	r2,r2,255
  8069f4:	108000e0 	cmpeqi	r2,r2,3
  8069f8:	1000051e 	bne	r2,zero,806a10 <OSSemPendAbort+0x7c>
        *perr = OS_ERR_EVENT_TYPE;
  8069fc:	e0fffe17 	ldw	r3,-8(fp)
  806a00:	00800044 	movi	r2,1
  806a04:	18800005 	stb	r2,0(r3)
        return (0);
  806a08:	e03fff15 	stw	zero,-4(fp)
  806a0c:	00003a06 	br	806af8 <OSSemPendAbort+0x164>
static ALT_INLINE alt_irq_context ALT_ALWAYS_INLINE 
       alt_irq_disable_all (void)
{
  alt_irq_context context;

  NIOS2_READ_STATUS (context);
  806a10:	0005303a 	rdctl	r2,status
  806a14:	e0bff915 	stw	r2,-28(fp)

  NIOS2_WRITE_STATUS (context & ~NIOS2_STATUS_PIE_MSK);
  806a18:	e0fff917 	ldw	r3,-28(fp)
  806a1c:	00bfff84 	movi	r2,-2
  806a20:	1884703a 	and	r2,r3,r2
  806a24:	1001703a 	wrctl	status,r2
  
  return context;
  806a28:	e0bff917 	ldw	r2,-28(fp)
    }
    OS_ENTER_CRITICAL();
  806a2c:	e0bffa15 	stw	r2,-24(fp)
    if (pevent->OSEventGrp != 0) {                    /* See if any task waiting on semaphore?         */
  806a30:	e0bffc17 	ldw	r2,-16(fp)
  806a34:	10800283 	ldbu	r2,10(r2)
  806a38:	10803fcc 	andi	r2,r2,255
  806a3c:	1005003a 	cmpeq	r2,r2,zero
  806a40:	1000261e 	bne	r2,zero,806adc <OSSemPendAbort+0x148>
        nbr_tasks = 0;
  806a44:	e03ffb05 	stb	zero,-20(fp)
        switch (opt) {
  806a48:	e0bffd03 	ldbu	r2,-12(fp)
  806a4c:	10800060 	cmpeqi	r2,r2,1
  806a50:	1000091e 	bne	r2,zero,806a78 <OSSemPendAbort+0xe4>
  806a54:	00000e06 	br	806a90 <OSSemPendAbort+0xfc>
            case OS_PEND_OPT_BROADCAST:               /* Do we need to abort ALL waiting tasks?        */
                 while (pevent->OSEventGrp != 0) {    /* Yes, ready ALL tasks waiting on semaphore     */
                     (void)OS_EventTaskRdy(pevent, (void *)0, OS_STAT_SEM, OS_STAT_PEND_ABORT);
  806a58:	e13ffc17 	ldw	r4,-16(fp)
  806a5c:	000b883a 	mov	r5,zero
  806a60:	01800044 	movi	r6,1
  806a64:	01c00084 	movi	r7,2
  806a68:	0801b740 	call	801b74 <OS_EventTaskRdy>
                     nbr_tasks++;
  806a6c:	e0bffb03 	ldbu	r2,-20(fp)
  806a70:	10800044 	addi	r2,r2,1
  806a74:	e0bffb05 	stb	r2,-20(fp)
    OS_ENTER_CRITICAL();
    if (pevent->OSEventGrp != 0) {                    /* See if any task waiting on semaphore?         */
        nbr_tasks = 0;
        switch (opt) {
            case OS_PEND_OPT_BROADCAST:               /* Do we need to abort ALL waiting tasks?        */
                 while (pevent->OSEventGrp != 0) {    /* Yes, ready ALL tasks waiting on semaphore     */
  806a78:	e0bffc17 	ldw	r2,-16(fp)
  806a7c:	10800283 	ldbu	r2,10(r2)
  806a80:	10803fcc 	andi	r2,r2,255
  806a84:	1004c03a 	cmpne	r2,r2,zero
  806a88:	103ff31e 	bne	r2,zero,806a58 <OSSemPendAbort+0xc4>
                     (void)OS_EventTaskRdy(pevent, (void *)0, OS_STAT_SEM, OS_STAT_PEND_ABORT);
                     nbr_tasks++;
                 }
                 break;
  806a8c:	00000806 	br	806ab0 <OSSemPendAbort+0x11c>
                 
            case OS_PEND_OPT_NONE:
            default:                                  /* No,  ready HPT       waiting on semaphore     */
                 (void)OS_EventTaskRdy(pevent, (void *)0, OS_STAT_SEM, OS_STAT_PEND_ABORT);
  806a90:	e13ffc17 	ldw	r4,-16(fp)
  806a94:	000b883a 	mov	r5,zero
  806a98:	01800044 	movi	r6,1
  806a9c:	01c00084 	movi	r7,2
  806aa0:	0801b740 	call	801b74 <OS_EventTaskRdy>
                 nbr_tasks++;
  806aa4:	e0bffb03 	ldbu	r2,-20(fp)
  806aa8:	10800044 	addi	r2,r2,1
  806aac:	e0bffb05 	stb	r2,-20(fp)
  806ab0:	e0bffa17 	ldw	r2,-24(fp)
  806ab4:	e0bff815 	stw	r2,-32(fp)
  status &= ~NIOS2_STATUS_PIE_MSK;
  status |= (context & NIOS2_STATUS_PIE_MSK);
  
  NIOS2_WRITE_STATUS (status);
#else
  NIOS2_WRITE_STATUS (context);
  806ab8:	e0bff817 	ldw	r2,-32(fp)
  806abc:	1001703a 	wrctl	status,r2
                 break;
        }
        OS_EXIT_CRITICAL();
        OS_Sched();                                   /* Find HPT ready to run                         */
  806ac0:	08025b40 	call	8025b4 <OS_Sched>
        *perr = OS_ERR_PEND_ABORT;
  806ac4:	e0fffe17 	ldw	r3,-8(fp)
  806ac8:	00800384 	movi	r2,14
  806acc:	18800005 	stb	r2,0(r3)
        return (nbr_tasks);
  806ad0:	e0bffb03 	ldbu	r2,-20(fp)
  806ad4:	e0bfff15 	stw	r2,-4(fp)
  806ad8:	00000706 	br	806af8 <OSSemPendAbort+0x164>
  806adc:	e0bffa17 	ldw	r2,-24(fp)
  806ae0:	e0bff715 	stw	r2,-36(fp)
  806ae4:	e0bff717 	ldw	r2,-36(fp)
  806ae8:	1001703a 	wrctl	status,r2
    }
    OS_EXIT_CRITICAL();
    *perr = OS_ERR_NONE;
  806aec:	e0bffe17 	ldw	r2,-8(fp)
  806af0:	10000005 	stb	zero,0(r2)
    return (0);                                       /* No tasks waiting on semaphore                 */
  806af4:	e03fff15 	stw	zero,-4(fp)
  806af8:	e0bfff17 	ldw	r2,-4(fp)
}
  806afc:	e037883a 	mov	sp,fp
  806b00:	dfc00117 	ldw	ra,4(sp)
  806b04:	df000017 	ldw	fp,0(sp)
  806b08:	dec00204 	addi	sp,sp,8
  806b0c:	f800283a 	ret

00806b10 <OSSemPost>:
*              OS_ERR_PEVENT_NULL  If 'pevent' is a NULL pointer.
*********************************************************************************************************
*/

INT8U  OSSemPost (OS_EVENT *pevent)
{
  806b10:	defff704 	addi	sp,sp,-36
  806b14:	dfc00815 	stw	ra,32(sp)
  806b18:	df000715 	stw	fp,28(sp)
  806b1c:	df000704 	addi	fp,sp,28
  806b20:	e13ffe15 	stw	r4,-8(fp)
#if OS_CRITICAL_METHOD == 3                           /* Allocate storage for CPU status register      */
    OS_CPU_SR  cpu_sr = 0;
  806b24:	e03ffd15 	stw	zero,-12(fp)
#endif



#if OS_ARG_CHK_EN > 0
    if (pevent == (OS_EVENT *)0) {                    /* Validate 'pevent'                             */
  806b28:	e0bffe17 	ldw	r2,-8(fp)
  806b2c:	1004c03a 	cmpne	r2,r2,zero
  806b30:	1000031e 	bne	r2,zero,806b40 <OSSemPost+0x30>
        return (OS_ERR_PEVENT_NULL);
  806b34:	00800104 	movi	r2,4
  806b38:	e0bfff15 	stw	r2,-4(fp)
  806b3c:	00003806 	br	806c20 <OSSemPost+0x110>
    }
#endif
    if (pevent->OSEventType != OS_EVENT_TYPE_SEM) {   /* Validate event block type                     */
  806b40:	e0bffe17 	ldw	r2,-8(fp)
  806b44:	10800003 	ldbu	r2,0(r2)
  806b48:	10803fcc 	andi	r2,r2,255
  806b4c:	108000e0 	cmpeqi	r2,r2,3
  806b50:	1000031e 	bne	r2,zero,806b60 <OSSemPost+0x50>
        return (OS_ERR_EVENT_TYPE);
  806b54:	00800044 	movi	r2,1
  806b58:	e0bfff15 	stw	r2,-4(fp)
  806b5c:	00003006 	br	806c20 <OSSemPost+0x110>
static ALT_INLINE alt_irq_context ALT_ALWAYS_INLINE 
       alt_irq_disable_all (void)
{
  alt_irq_context context;

  NIOS2_READ_STATUS (context);
  806b60:	0005303a 	rdctl	r2,status
  806b64:	e0bffc15 	stw	r2,-16(fp)

  NIOS2_WRITE_STATUS (context & ~NIOS2_STATUS_PIE_MSK);
  806b68:	e0fffc17 	ldw	r3,-16(fp)
  806b6c:	00bfff84 	movi	r2,-2
  806b70:	1884703a 	and	r2,r3,r2
  806b74:	1001703a 	wrctl	status,r2
  
  return context;
  806b78:	e0bffc17 	ldw	r2,-16(fp)
    }
    OS_ENTER_CRITICAL();
  806b7c:	e0bffd15 	stw	r2,-12(fp)
    if (pevent->OSEventGrp != 0) {                    /* See if any task waiting for semaphore         */
  806b80:	e0bffe17 	ldw	r2,-8(fp)
  806b84:	10800283 	ldbu	r2,10(r2)
  806b88:	10803fcc 	andi	r2,r2,255
  806b8c:	1005003a 	cmpeq	r2,r2,zero
  806b90:	10000c1e 	bne	r2,zero,806bc4 <OSSemPost+0xb4>
                                                      /* Ready HPT waiting on event                    */
        (void)OS_EventTaskRdy(pevent, (void *)0, OS_STAT_SEM, OS_STAT_PEND_OK);
  806b94:	e13ffe17 	ldw	r4,-8(fp)
  806b98:	000b883a 	mov	r5,zero
  806b9c:	01800044 	movi	r6,1
  806ba0:	000f883a 	mov	r7,zero
  806ba4:	0801b740 	call	801b74 <OS_EventTaskRdy>
  806ba8:	e0bffd17 	ldw	r2,-12(fp)
  806bac:	e0bffb15 	stw	r2,-20(fp)
  status &= ~NIOS2_STATUS_PIE_MSK;
  status |= (context & NIOS2_STATUS_PIE_MSK);
  
  NIOS2_WRITE_STATUS (status);
#else
  NIOS2_WRITE_STATUS (context);
  806bb0:	e0bffb17 	ldw	r2,-20(fp)
  806bb4:	1001703a 	wrctl	status,r2
        OS_EXIT_CRITICAL();
        OS_Sched();                                   /* Find HPT ready to run                         */
  806bb8:	08025b40 	call	8025b4 <OS_Sched>
        return (OS_ERR_NONE);
  806bbc:	e03fff15 	stw	zero,-4(fp)
  806bc0:	00001706 	br	806c20 <OSSemPost+0x110>
    }
    if (pevent->OSEventCnt < 65535u) {                /* Make sure semaphore will not overflow         */
  806bc4:	e0bffe17 	ldw	r2,-8(fp)
  806bc8:	1080020b 	ldhu	r2,8(r2)
  806bcc:	10ffffcc 	andi	r3,r2,65535
  806bd0:	00bfffd4 	movui	r2,65535
  806bd4:	18800c26 	beq	r3,r2,806c08 <OSSemPost+0xf8>
        pevent->OSEventCnt++;                         /* Increment semaphore count to register event   */
  806bd8:	e0bffe17 	ldw	r2,-8(fp)
  806bdc:	1080020b 	ldhu	r2,8(r2)
  806be0:	10800044 	addi	r2,r2,1
  806be4:	1007883a 	mov	r3,r2
  806be8:	e0bffe17 	ldw	r2,-8(fp)
  806bec:	10c0020d 	sth	r3,8(r2)
  806bf0:	e0bffd17 	ldw	r2,-12(fp)
  806bf4:	e0bffa15 	stw	r2,-24(fp)
  806bf8:	e0bffa17 	ldw	r2,-24(fp)
  806bfc:	1001703a 	wrctl	status,r2
        OS_EXIT_CRITICAL();
        return (OS_ERR_NONE);
  806c00:	e03fff15 	stw	zero,-4(fp)
  806c04:	00000606 	br	806c20 <OSSemPost+0x110>
  806c08:	e0bffd17 	ldw	r2,-12(fp)
  806c0c:	e0bff915 	stw	r2,-28(fp)
  806c10:	e0bff917 	ldw	r2,-28(fp)
  806c14:	1001703a 	wrctl	status,r2
    }
    OS_EXIT_CRITICAL();                               /* Semaphore value has reached its maximum       */
    return (OS_ERR_SEM_OVF);
  806c18:	00800c84 	movi	r2,50
  806c1c:	e0bfff15 	stw	r2,-4(fp)
  806c20:	e0bfff17 	ldw	r2,-4(fp)
}
  806c24:	e037883a 	mov	sp,fp
  806c28:	dfc00117 	ldw	ra,4(sp)
  806c2c:	df000017 	ldw	fp,0(sp)
  806c30:	dec00204 	addi	sp,sp,8
  806c34:	f800283a 	ret

00806c38 <OSSemQuery>:
*********************************************************************************************************
*/

#if OS_SEM_QUERY_EN > 0
INT8U  OSSemQuery (OS_EVENT *pevent, OS_SEM_DATA *p_sem_data)
{
  806c38:	defff604 	addi	sp,sp,-40
  806c3c:	df000915 	stw	fp,36(sp)
  806c40:	df000904 	addi	fp,sp,36
  806c44:	e13ffd15 	stw	r4,-12(fp)
  806c48:	e17ffe15 	stw	r5,-8(fp)
    INT16U    *psrc;
    INT16U    *pdest;
#endif
    INT8U      i;
#if OS_CRITICAL_METHOD == 3                                /* Allocate storage for CPU status register */
    OS_CPU_SR  cpu_sr = 0;
  806c4c:	e03ff915 	stw	zero,-28(fp)
#endif



#if OS_ARG_CHK_EN > 0
    if (pevent == (OS_EVENT *)0) {                         /* Validate 'pevent'                        */
  806c50:	e0bffd17 	ldw	r2,-12(fp)
  806c54:	1004c03a 	cmpne	r2,r2,zero
  806c58:	1000031e 	bne	r2,zero,806c68 <OSSemQuery+0x30>
        return (OS_ERR_PEVENT_NULL);
  806c5c:	00800104 	movi	r2,4
  806c60:	e0bfff15 	stw	r2,-4(fp)
  806c64:	00003b06 	br	806d54 <OSSemQuery+0x11c>
    }
    if (p_sem_data == (OS_SEM_DATA *)0) {                  /* Validate 'p_sem_data'                    */
  806c68:	e0bffe17 	ldw	r2,-8(fp)
  806c6c:	1004c03a 	cmpne	r2,r2,zero
  806c70:	1000031e 	bne	r2,zero,806c80 <OSSemQuery+0x48>
        return (OS_ERR_PDATA_NULL);
  806c74:	00800244 	movi	r2,9
  806c78:	e0bfff15 	stw	r2,-4(fp)
  806c7c:	00003506 	br	806d54 <OSSemQuery+0x11c>
    }
#endif
    if (pevent->OSEventType != OS_EVENT_TYPE_SEM) {        /* Validate event block type                */
  806c80:	e0bffd17 	ldw	r2,-12(fp)
  806c84:	10800003 	ldbu	r2,0(r2)
  806c88:	10803fcc 	andi	r2,r2,255
  806c8c:	108000e0 	cmpeqi	r2,r2,3
  806c90:	1000031e 	bne	r2,zero,806ca0 <OSSemQuery+0x68>
        return (OS_ERR_EVENT_TYPE);
  806c94:	00800044 	movi	r2,1
  806c98:	e0bfff15 	stw	r2,-4(fp)
  806c9c:	00002d06 	br	806d54 <OSSemQuery+0x11c>
static ALT_INLINE alt_irq_context ALT_ALWAYS_INLINE 
       alt_irq_disable_all (void)
{
  alt_irq_context context;

  NIOS2_READ_STATUS (context);
  806ca0:	0005303a 	rdctl	r2,status
  806ca4:	e0bff815 	stw	r2,-32(fp)

  NIOS2_WRITE_STATUS (context & ~NIOS2_STATUS_PIE_MSK);
  806ca8:	e0fff817 	ldw	r3,-32(fp)
  806cac:	00bfff84 	movi	r2,-2
  806cb0:	1884703a 	and	r2,r3,r2
  806cb4:	1001703a 	wrctl	status,r2
  
  return context;
  806cb8:	e0bff817 	ldw	r2,-32(fp)
    }
    OS_ENTER_CRITICAL();
  806cbc:	e0bff915 	stw	r2,-28(fp)
    p_sem_data->OSEventGrp = pevent->OSEventGrp;           /* Copy message mailbox wait list           */
  806cc0:	e0bffd17 	ldw	r2,-12(fp)
  806cc4:	10c00283 	ldbu	r3,10(r2)
  806cc8:	e0bffe17 	ldw	r2,-8(fp)
  806ccc:	10c00145 	stb	r3,5(r2)
    psrc                   = &pevent->OSEventTbl[0];
  806cd0:	e0bffd17 	ldw	r2,-12(fp)
  806cd4:	108002c4 	addi	r2,r2,11
  806cd8:	e0bffc15 	stw	r2,-16(fp)
    pdest                  = &p_sem_data->OSEventTbl[0];
  806cdc:	e0bffe17 	ldw	r2,-8(fp)
  806ce0:	10800084 	addi	r2,r2,2
  806ce4:	e0bffb15 	stw	r2,-20(fp)
    for (i = 0; i < OS_EVENT_TBL_SIZE; i++) {
  806ce8:	e03ffa05 	stb	zero,-24(fp)
  806cec:	00000d06 	br	806d24 <OSSemQuery+0xec>
        *pdest++ = *psrc++;
  806cf0:	e0bffc17 	ldw	r2,-16(fp)
  806cf4:	10c00003 	ldbu	r3,0(r2)
  806cf8:	e0bffb17 	ldw	r2,-20(fp)
  806cfc:	10c00005 	stb	r3,0(r2)
  806d00:	e0bffb17 	ldw	r2,-20(fp)
  806d04:	10800044 	addi	r2,r2,1
  806d08:	e0bffb15 	stw	r2,-20(fp)
  806d0c:	e0bffc17 	ldw	r2,-16(fp)
  806d10:	10800044 	addi	r2,r2,1
  806d14:	e0bffc15 	stw	r2,-16(fp)
    }
    OS_ENTER_CRITICAL();
    p_sem_data->OSEventGrp = pevent->OSEventGrp;           /* Copy message mailbox wait list           */
    psrc                   = &pevent->OSEventTbl[0];
    pdest                  = &p_sem_data->OSEventTbl[0];
    for (i = 0; i < OS_EVENT_TBL_SIZE; i++) {
  806d18:	e0bffa03 	ldbu	r2,-24(fp)
  806d1c:	10800044 	addi	r2,r2,1
  806d20:	e0bffa05 	stb	r2,-24(fp)
  806d24:	e0bffa03 	ldbu	r2,-24(fp)
  806d28:	108000f0 	cmpltui	r2,r2,3
  806d2c:	103ff01e 	bne	r2,zero,806cf0 <OSSemQuery+0xb8>
        *pdest++ = *psrc++;
    }
    p_sem_data->OSCnt = pevent->OSEventCnt;                /* Get semaphore count                      */
  806d30:	e0bffd17 	ldw	r2,-12(fp)
  806d34:	10c0020b 	ldhu	r3,8(r2)
  806d38:	e0bffe17 	ldw	r2,-8(fp)
  806d3c:	10c0000d 	sth	r3,0(r2)
  806d40:	e0bff917 	ldw	r2,-28(fp)
  806d44:	e0bff715 	stw	r2,-36(fp)
  status &= ~NIOS2_STATUS_PIE_MSK;
  status |= (context & NIOS2_STATUS_PIE_MSK);
  
  NIOS2_WRITE_STATUS (status);
#else
  NIOS2_WRITE_STATUS (context);
  806d48:	e0bff717 	ldw	r2,-36(fp)
  806d4c:	1001703a 	wrctl	status,r2
    OS_EXIT_CRITICAL();
    return (OS_ERR_NONE);
  806d50:	e03fff15 	stw	zero,-4(fp)
  806d54:	e0bfff17 	ldw	r2,-4(fp)
}
  806d58:	e037883a 	mov	sp,fp
  806d5c:	df000017 	ldw	fp,0(sp)
  806d60:	dec00104 	addi	sp,sp,4
  806d64:	f800283a 	ret

00806d68 <OSSemSet>:
*********************************************************************************************************
*/

#if OS_SEM_SET_EN > 0
void  OSSemSet (OS_EVENT *pevent, INT16U cnt, INT8U *perr)
{
  806d68:	defff904 	addi	sp,sp,-28
  806d6c:	df000615 	stw	fp,24(sp)
  806d70:	df000604 	addi	fp,sp,24
  806d74:	e13ffd15 	stw	r4,-12(fp)
  806d78:	e1bfff15 	stw	r6,-4(fp)
  806d7c:	e17ffe0d 	sth	r5,-8(fp)
#if OS_CRITICAL_METHOD == 3                           /* Allocate storage for CPU status register      */
    OS_CPU_SR  cpu_sr = 0;
  806d80:	e03ffc15 	stw	zero,-16(fp)
#endif



#if OS_ARG_CHK_EN > 0
    if (perr == (INT8U *)0) {                         /* Validate 'perr'                               */
  806d84:	e0bfff17 	ldw	r2,-4(fp)
  806d88:	1005003a 	cmpeq	r2,r2,zero
  806d8c:	1000331e 	bne	r2,zero,806e5c <OSSemSet+0xf4>
        return;
    }
    if (pevent == (OS_EVENT *)0) {                    /* Validate 'pevent'                             */
  806d90:	e0bffd17 	ldw	r2,-12(fp)
  806d94:	1004c03a 	cmpne	r2,r2,zero
  806d98:	1000041e 	bne	r2,zero,806dac <OSSemSet+0x44>
        *perr = OS_ERR_PEVENT_NULL;
  806d9c:	e0ffff17 	ldw	r3,-4(fp)
  806da0:	00800104 	movi	r2,4
  806da4:	18800005 	stb	r2,0(r3)
        return;
  806da8:	00002c06 	br	806e5c <OSSemSet+0xf4>
    }
#endif
    if (pevent->OSEventType != OS_EVENT_TYPE_SEM) {   /* Validate event block type                     */
  806dac:	e0bffd17 	ldw	r2,-12(fp)
  806db0:	10800003 	ldbu	r2,0(r2)
  806db4:	10803fcc 	andi	r2,r2,255
  806db8:	108000e0 	cmpeqi	r2,r2,3
  806dbc:	1000041e 	bne	r2,zero,806dd0 <OSSemSet+0x68>
        *perr = OS_ERR_EVENT_TYPE;
  806dc0:	e0ffff17 	ldw	r3,-4(fp)
  806dc4:	00800044 	movi	r2,1
  806dc8:	18800005 	stb	r2,0(r3)
        return;
  806dcc:	00002306 	br	806e5c <OSSemSet+0xf4>
static ALT_INLINE alt_irq_context ALT_ALWAYS_INLINE 
       alt_irq_disable_all (void)
{
  alt_irq_context context;

  NIOS2_READ_STATUS (context);
  806dd0:	0005303a 	rdctl	r2,status
  806dd4:	e0bffb15 	stw	r2,-20(fp)

  NIOS2_WRITE_STATUS (context & ~NIOS2_STATUS_PIE_MSK);
  806dd8:	e0fffb17 	ldw	r3,-20(fp)
  806ddc:	00bfff84 	movi	r2,-2
  806de0:	1884703a 	and	r2,r3,r2
  806de4:	1001703a 	wrctl	status,r2
  
  return context;
  806de8:	e0bffb17 	ldw	r2,-20(fp)
    }
    OS_ENTER_CRITICAL();
  806dec:	e0bffc15 	stw	r2,-16(fp)
    *perr = OS_ERR_NONE;
  806df0:	e0bfff17 	ldw	r2,-4(fp)
  806df4:	10000005 	stb	zero,0(r2)
    if (pevent->OSEventCnt > 0) {                     /* See if semaphore already has a count          */
  806df8:	e0bffd17 	ldw	r2,-12(fp)
  806dfc:	1080020b 	ldhu	r2,8(r2)
  806e00:	10bfffcc 	andi	r2,r2,65535
  806e04:	1005003a 	cmpeq	r2,r2,zero
  806e08:	1000041e 	bne	r2,zero,806e1c <OSSemSet+0xb4>
        pevent->OSEventCnt = cnt;                     /* Yes, set it to the new value specified.       */
  806e0c:	e0fffd17 	ldw	r3,-12(fp)
  806e10:	e0bffe0b 	ldhu	r2,-8(fp)
  806e14:	1880020d 	sth	r2,8(r3)
  806e18:	00000c06 	br	806e4c <OSSemSet+0xe4>
    } else {                                          /* No                                            */
        if (pevent->OSEventGrp == 0) {                /*      See if task(s) waiting?                  */
  806e1c:	e0bffd17 	ldw	r2,-12(fp)
  806e20:	10800283 	ldbu	r2,10(r2)
  806e24:	10803fcc 	andi	r2,r2,255
  806e28:	1004c03a 	cmpne	r2,r2,zero
  806e2c:	1000041e 	bne	r2,zero,806e40 <OSSemSet+0xd8>
            pevent->OSEventCnt = cnt;                 /*      No, OK to set the value                  */
  806e30:	e0fffd17 	ldw	r3,-12(fp)
  806e34:	e0bffe0b 	ldhu	r2,-8(fp)
  806e38:	1880020d 	sth	r2,8(r3)
  806e3c:	00000306 	br	806e4c <OSSemSet+0xe4>
        } else {
            *perr              = OS_ERR_TASK_WAITING;
  806e40:	e0ffff17 	ldw	r3,-4(fp)
  806e44:	00801244 	movi	r2,73
  806e48:	18800005 	stb	r2,0(r3)
  806e4c:	e0bffc17 	ldw	r2,-16(fp)
  806e50:	e0bffa15 	stw	r2,-24(fp)
  status &= ~NIOS2_STATUS_PIE_MSK;
  status |= (context & NIOS2_STATUS_PIE_MSK);
  
  NIOS2_WRITE_STATUS (status);
#else
  NIOS2_WRITE_STATUS (context);
  806e54:	e0bffa17 	ldw	r2,-24(fp)
  806e58:	1001703a 	wrctl	status,r2
        }
    }
    OS_EXIT_CRITICAL();
}
  806e5c:	e037883a 	mov	sp,fp
  806e60:	df000017 	ldw	fp,0(sp)
  806e64:	dec00104 	addi	sp,sp,4
  806e68:	f800283a 	ret

00806e6c <OSTaskChangePrio>:
*********************************************************************************************************
*/

#if OS_TASK_CHANGE_PRIO_EN > 0
INT8U  OSTaskChangePrio (INT8U oldprio, INT8U newprio)
{
  806e6c:	defff004 	addi	sp,sp,-64
  806e70:	dfc00f15 	stw	ra,60(sp)
  806e74:	df000e15 	stw	fp,56(sp)
  806e78:	df000e04 	addi	fp,sp,56
  806e7c:	e13ffd05 	stb	r4,-12(fp)
  806e80:	e17ffe05 	stb	r5,-8(fp)
    INT16U     bitx_new;
    INT16U     bity_old;
    INT16U     bitx_old;
#endif
#if OS_CRITICAL_METHOD == 3
    OS_CPU_SR  cpu_sr = 0;                                  /* Storage for CPU status register         */
  806e84:	e03ff715 	stw	zero,-36(fp)
#endif


/*$PAGE*/
#if OS_ARG_CHK_EN > 0
    if (oldprio >= OS_LOWEST_PRIO) {
  806e88:	e0bffd03 	ldbu	r2,-12(fp)
  806e8c:	10800530 	cmpltui	r2,r2,20
  806e90:	1000061e 	bne	r2,zero,806eac <OSTaskChangePrio+0x40>
        if (oldprio != OS_PRIO_SELF) {
  806e94:	e0bffd03 	ldbu	r2,-12(fp)
  806e98:	10803fe0 	cmpeqi	r2,r2,255
  806e9c:	1000031e 	bne	r2,zero,806eac <OSTaskChangePrio+0x40>
            return (OS_ERR_PRIO_INVALID);
  806ea0:	00800a84 	movi	r2,42
  806ea4:	e0bfff15 	stw	r2,-4(fp)
  806ea8:	00014706 	br	8073c8 <OSTaskChangePrio+0x55c>
        }
    }
    if (newprio >= OS_LOWEST_PRIO) {
  806eac:	e0bffe03 	ldbu	r2,-8(fp)
  806eb0:	10800530 	cmpltui	r2,r2,20
  806eb4:	1000031e 	bne	r2,zero,806ec4 <OSTaskChangePrio+0x58>
        return (OS_ERR_PRIO_INVALID);
  806eb8:	00800a84 	movi	r2,42
  806ebc:	e0bfff15 	stw	r2,-4(fp)
  806ec0:	00014106 	br	8073c8 <OSTaskChangePrio+0x55c>
static ALT_INLINE alt_irq_context ALT_ALWAYS_INLINE 
       alt_irq_disable_all (void)
{
  alt_irq_context context;

  NIOS2_READ_STATUS (context);
  806ec4:	0005303a 	rdctl	r2,status
  806ec8:	e0bff615 	stw	r2,-40(fp)

  NIOS2_WRITE_STATUS (context & ~NIOS2_STATUS_PIE_MSK);
  806ecc:	e0fff617 	ldw	r3,-40(fp)
  806ed0:	00bfff84 	movi	r2,-2
  806ed4:	1884703a 	and	r2,r3,r2
  806ed8:	1001703a 	wrctl	status,r2
  
  return context;
  806edc:	e0bff617 	ldw	r2,-40(fp)
    }
#endif
    OS_ENTER_CRITICAL();
  806ee0:	e0bff715 	stw	r2,-36(fp)
    if (OSTCBPrioTbl[newprio] != (OS_TCB *)0) {             /* New priority must not already exist     */
  806ee4:	e0bffe03 	ldbu	r2,-8(fp)
  806ee8:	00c020b4 	movhi	r3,130
  806eec:	18ebe104 	addi	r3,r3,-20604
  806ef0:	1085883a 	add	r2,r2,r2
  806ef4:	1085883a 	add	r2,r2,r2
  806ef8:	10c5883a 	add	r2,r2,r3
  806efc:	10800017 	ldw	r2,0(r2)
  806f00:	1005003a 	cmpeq	r2,r2,zero
  806f04:	1000071e 	bne	r2,zero,806f24 <OSTaskChangePrio+0xb8>
  806f08:	e0bff717 	ldw	r2,-36(fp)
  806f0c:	e0bff515 	stw	r2,-44(fp)
  status &= ~NIOS2_STATUS_PIE_MSK;
  status |= (context & NIOS2_STATUS_PIE_MSK);
  
  NIOS2_WRITE_STATUS (status);
#else
  NIOS2_WRITE_STATUS (context);
  806f10:	e0bff517 	ldw	r2,-44(fp)
  806f14:	1001703a 	wrctl	status,r2
        OS_EXIT_CRITICAL();
        return (OS_ERR_PRIO_EXIST);
  806f18:	00800a04 	movi	r2,40
  806f1c:	e0bfff15 	stw	r2,-4(fp)
  806f20:	00012906 	br	8073c8 <OSTaskChangePrio+0x55c>
    }
    if (oldprio == OS_PRIO_SELF) {                          /* See if changing self                    */
  806f24:	e0bffd03 	ldbu	r2,-12(fp)
  806f28:	10803fd8 	cmpnei	r2,r2,255
  806f2c:	1000051e 	bne	r2,zero,806f44 <OSTaskChangePrio+0xd8>
        oldprio = OSTCBCur->OSTCBPrio;                      /* Yes, get priority                       */
  806f30:	00802074 	movhi	r2,129
  806f34:	10875604 	addi	r2,r2,7512
  806f38:	10800017 	ldw	r2,0(r2)
  806f3c:	10800c83 	ldbu	r2,50(r2)
  806f40:	e0bffd05 	stb	r2,-12(fp)
    }
    ptcb = OSTCBPrioTbl[oldprio];
  806f44:	e0bffd03 	ldbu	r2,-12(fp)
  806f48:	00c020b4 	movhi	r3,130
  806f4c:	18ebe104 	addi	r3,r3,-20604
  806f50:	1085883a 	add	r2,r2,r2
  806f54:	1085883a 	add	r2,r2,r2
  806f58:	10c5883a 	add	r2,r2,r3
  806f5c:	10800017 	ldw	r2,0(r2)
  806f60:	e0bffa15 	stw	r2,-24(fp)
    if (ptcb == (OS_TCB *)0) {                              /* Does task to change exist?              */
  806f64:	e0bffa17 	ldw	r2,-24(fp)
  806f68:	1004c03a 	cmpne	r2,r2,zero
  806f6c:	1000071e 	bne	r2,zero,806f8c <OSTaskChangePrio+0x120>
  806f70:	e0bff717 	ldw	r2,-36(fp)
  806f74:	e0bff415 	stw	r2,-48(fp)
  806f78:	e0bff417 	ldw	r2,-48(fp)
  806f7c:	1001703a 	wrctl	status,r2
        OS_EXIT_CRITICAL();                                 /* No, can't change its priority!          */
        return (OS_ERR_PRIO);
  806f80:	00800a44 	movi	r2,41
  806f84:	e0bfff15 	stw	r2,-4(fp)
  806f88:	00010f06 	br	8073c8 <OSTaskChangePrio+0x55c>
    }
    if (ptcb == OS_TCB_RESERVED) {                          /* Is task assigned to Mutex               */
  806f8c:	e0bffa17 	ldw	r2,-24(fp)
  806f90:	10800058 	cmpnei	r2,r2,1
  806f94:	1000071e 	bne	r2,zero,806fb4 <OSTaskChangePrio+0x148>
  806f98:	e0bff717 	ldw	r2,-36(fp)
  806f9c:	e0bff315 	stw	r2,-52(fp)
  806fa0:	e0bff317 	ldw	r2,-52(fp)
  806fa4:	1001703a 	wrctl	status,r2
        OS_EXIT_CRITICAL();                                 /* No, can't change its priority!          */
        return (OS_ERR_TASK_NOT_EXIST);
  806fa8:	008010c4 	movi	r2,67
  806fac:	e0bfff15 	stw	r2,-4(fp)
  806fb0:	00010506 	br	8073c8 <OSTaskChangePrio+0x55c>
    }
#if OS_LOWEST_PRIO <= 63
    y_new                 = (INT8U)(newprio >> 3);          /* Yes, compute new TCB fields             */
  806fb4:	e0bffe03 	ldbu	r2,-8(fp)
  806fb8:	1004d0fa 	srli	r2,r2,3
  806fbc:	e0bff985 	stb	r2,-26(fp)
    x_new                 = (INT8U)(newprio & 0x07);
  806fc0:	e0bffe03 	ldbu	r2,-8(fp)
  806fc4:	108001cc 	andi	r2,r2,7
  806fc8:	e0bff945 	stb	r2,-27(fp)
    bity_new              = (INT8U)(1 << y_new);
  806fcc:	e0fff983 	ldbu	r3,-26(fp)
  806fd0:	00800044 	movi	r2,1
  806fd4:	10c4983a 	sll	r2,r2,r3
  806fd8:	e0bff8c5 	stb	r2,-29(fp)
    bitx_new              = (INT8U)(1 << x_new);
  806fdc:	e0fff943 	ldbu	r3,-27(fp)
  806fe0:	00800044 	movi	r2,1
  806fe4:	10c4983a 	sll	r2,r2,r3
  806fe8:	e0bff885 	stb	r2,-30(fp)
    x_new                 = (INT8U)( newprio & 0x0F);
    bity_new              = (INT16U)(1 << y_new);
    bitx_new              = (INT16U)(1 << x_new);
#endif

    OSTCBPrioTbl[oldprio] = (OS_TCB *)0;                    /* Remove TCB from old priority            */
  806fec:	e0bffd03 	ldbu	r2,-12(fp)
  806ff0:	00c020b4 	movhi	r3,130
  806ff4:	18ebe104 	addi	r3,r3,-20604
  806ff8:	1085883a 	add	r2,r2,r2
  806ffc:	1085883a 	add	r2,r2,r2
  807000:	10c5883a 	add	r2,r2,r3
  807004:	10000015 	stw	zero,0(r2)
    OSTCBPrioTbl[newprio] =  ptcb;                          /* Place pointer to TCB @ new priority     */
  807008:	e0bffe03 	ldbu	r2,-8(fp)
  80700c:	00c020b4 	movhi	r3,130
  807010:	18ebe104 	addi	r3,r3,-20604
  807014:	1085883a 	add	r2,r2,r2
  807018:	1085883a 	add	r2,r2,r2
  80701c:	10c7883a 	add	r3,r2,r3
  807020:	e0bffa17 	ldw	r2,-24(fp)
  807024:	18800015 	stw	r2,0(r3)
    y_old                 =  ptcb->OSTCBY;
  807028:	e0bffa17 	ldw	r2,-24(fp)
  80702c:	10800d03 	ldbu	r2,52(r2)
  807030:	e0bff905 	stb	r2,-28(fp)
    bity_old              =  ptcb->OSTCBBitY;
  807034:	e0bffa17 	ldw	r2,-24(fp)
  807038:	10800d83 	ldbu	r2,54(r2)
  80703c:	e0bff845 	stb	r2,-31(fp)
    bitx_old              =  ptcb->OSTCBBitX;
  807040:	e0bffa17 	ldw	r2,-24(fp)
  807044:	10800d43 	ldbu	r2,53(r2)
  807048:	e0bff805 	stb	r2,-32(fp)
    if ((OSRdyTbl[y_old] &   bitx_old) != 0) {              /* If task is ready make it not            */
  80704c:	e0fff903 	ldbu	r3,-28(fp)
  807050:	00802074 	movhi	r2,129
  807054:	10875344 	addi	r2,r2,7501
  807058:	10c5883a 	add	r2,r2,r3
  80705c:	10c00003 	ldbu	r3,0(r2)
  807060:	e0bff803 	ldbu	r2,-32(fp)
  807064:	1884703a 	and	r2,r3,r2
  807068:	10803fcc 	andi	r2,r2,255
  80706c:	1005003a 	cmpeq	r2,r2,zero
  807070:	1000381e 	bne	r2,zero,807154 <OSTaskChangePrio+0x2e8>
         OSRdyTbl[y_old] &= ~bitx_old;
  807074:	e13ff903 	ldbu	r4,-28(fp)
  807078:	e0fff903 	ldbu	r3,-28(fp)
  80707c:	00802074 	movhi	r2,129
  807080:	10875344 	addi	r2,r2,7501
  807084:	10c5883a 	add	r2,r2,r3
  807088:	10800003 	ldbu	r2,0(r2)
  80708c:	1007883a 	mov	r3,r2
  807090:	e0bff803 	ldbu	r2,-32(fp)
  807094:	0084303a 	nor	r2,zero,r2
  807098:	1884703a 	and	r2,r3,r2
  80709c:	1007883a 	mov	r3,r2
  8070a0:	00802074 	movhi	r2,129
  8070a4:	10875344 	addi	r2,r2,7501
  8070a8:	1105883a 	add	r2,r2,r4
  8070ac:	10c00005 	stb	r3,0(r2)
         if (OSRdyTbl[y_old] == 0) {
  8070b0:	e0fff903 	ldbu	r3,-28(fp)
  8070b4:	00802074 	movhi	r2,129
  8070b8:	10875344 	addi	r2,r2,7501
  8070bc:	10c5883a 	add	r2,r2,r3
  8070c0:	10800003 	ldbu	r2,0(r2)
  8070c4:	10803fcc 	andi	r2,r2,255
  8070c8:	1004c03a 	cmpne	r2,r2,zero
  8070cc:	10000b1e 	bne	r2,zero,8070fc <OSTaskChangePrio+0x290>
             OSRdyGrp &= ~bity_old;
  8070d0:	e0bff843 	ldbu	r2,-31(fp)
  8070d4:	0084303a 	nor	r2,zero,r2
  8070d8:	1007883a 	mov	r3,r2
  8070dc:	00802074 	movhi	r2,129
  8070e0:	10875304 	addi	r2,r2,7500
  8070e4:	10800003 	ldbu	r2,0(r2)
  8070e8:	1884703a 	and	r2,r3,r2
  8070ec:	1007883a 	mov	r3,r2
  8070f0:	00802074 	movhi	r2,129
  8070f4:	10875304 	addi	r2,r2,7500
  8070f8:	10c00005 	stb	r3,0(r2)
         }
         OSRdyGrp        |= bity_new;                       /* Make new priority ready to run          */
  8070fc:	00802074 	movhi	r2,129
  807100:	10875304 	addi	r2,r2,7500
  807104:	10c00003 	ldbu	r3,0(r2)
  807108:	e0bff8c3 	ldbu	r2,-29(fp)
  80710c:	1884b03a 	or	r2,r3,r2
  807110:	1007883a 	mov	r3,r2
  807114:	00802074 	movhi	r2,129
  807118:	10875304 	addi	r2,r2,7500
  80711c:	10c00005 	stb	r3,0(r2)
         OSRdyTbl[y_new] |= bitx_new;
  807120:	e13ff983 	ldbu	r4,-26(fp)
  807124:	e0fff983 	ldbu	r3,-26(fp)
  807128:	00802074 	movhi	r2,129
  80712c:	10875344 	addi	r2,r2,7501
  807130:	10c5883a 	add	r2,r2,r3
  807134:	10c00003 	ldbu	r3,0(r2)
  807138:	e0bff883 	ldbu	r2,-30(fp)
  80713c:	1884b03a 	or	r2,r3,r2
  807140:	1007883a 	mov	r3,r2
  807144:	00802074 	movhi	r2,129
  807148:	10875344 	addi	r2,r2,7501
  80714c:	1105883a 	add	r2,r2,r4
  807150:	10c00005 	stb	r3,0(r2)
    }

#if (OS_EVENT_EN)
    pevent = ptcb->OSTCBEventPtr;
  807154:	e0bffa17 	ldw	r2,-24(fp)
  807158:	10800717 	ldw	r2,28(r2)
  80715c:	e0bffc15 	stw	r2,-16(fp)
    if (pevent != (OS_EVENT *)0) {
  807160:	e0bffc17 	ldw	r2,-16(fp)
  807164:	1005003a 	cmpeq	r2,r2,zero
  807168:	1000341e 	bne	r2,zero,80723c <OSTaskChangePrio+0x3d0>
        pevent->OSEventTbl[y_old] &= ~bitx_old;             /* Remove old task prio from wait list     */
  80716c:	e13ff903 	ldbu	r4,-28(fp)
  807170:	e0fff903 	ldbu	r3,-28(fp)
  807174:	e0bffc17 	ldw	r2,-16(fp)
  807178:	1885883a 	add	r2,r3,r2
  80717c:	10800204 	addi	r2,r2,8
  807180:	108000c3 	ldbu	r2,3(r2)
  807184:	1007883a 	mov	r3,r2
  807188:	e0bff803 	ldbu	r2,-32(fp)
  80718c:	0084303a 	nor	r2,zero,r2
  807190:	1884703a 	and	r2,r3,r2
  807194:	1007883a 	mov	r3,r2
  807198:	e0bffc17 	ldw	r2,-16(fp)
  80719c:	2085883a 	add	r2,r4,r2
  8071a0:	10800204 	addi	r2,r2,8
  8071a4:	10c000c5 	stb	r3,3(r2)
        if (pevent->OSEventTbl[y_old] == 0) {
  8071a8:	e0fff903 	ldbu	r3,-28(fp)
  8071ac:	e0bffc17 	ldw	r2,-16(fp)
  8071b0:	1885883a 	add	r2,r3,r2
  8071b4:	10800204 	addi	r2,r2,8
  8071b8:	108000c3 	ldbu	r2,3(r2)
  8071bc:	10803fcc 	andi	r2,r2,255
  8071c0:	1004c03a 	cmpne	r2,r2,zero
  8071c4:	1000091e 	bne	r2,zero,8071ec <OSTaskChangePrio+0x380>
            pevent->OSEventGrp    &= ~bity_old;
  8071c8:	e0bffc17 	ldw	r2,-16(fp)
  8071cc:	10800283 	ldbu	r2,10(r2)
  8071d0:	1007883a 	mov	r3,r2
  8071d4:	e0bff843 	ldbu	r2,-31(fp)
  8071d8:	0084303a 	nor	r2,zero,r2
  8071dc:	1884703a 	and	r2,r3,r2
  8071e0:	1007883a 	mov	r3,r2
  8071e4:	e0bffc17 	ldw	r2,-16(fp)
  8071e8:	10c00285 	stb	r3,10(r2)
        }
        pevent->OSEventGrp        |= bity_new;              /* Add    new task prio to   wait list     */
  8071ec:	e0bffc17 	ldw	r2,-16(fp)
  8071f0:	10c00283 	ldbu	r3,10(r2)
  8071f4:	e0bff8c3 	ldbu	r2,-29(fp)
  8071f8:	1884b03a 	or	r2,r3,r2
  8071fc:	1007883a 	mov	r3,r2
  807200:	e0bffc17 	ldw	r2,-16(fp)
  807204:	10c00285 	stb	r3,10(r2)
        pevent->OSEventTbl[y_new] |= bitx_new;
  807208:	e13ff983 	ldbu	r4,-26(fp)
  80720c:	e0fff983 	ldbu	r3,-26(fp)
  807210:	e0bffc17 	ldw	r2,-16(fp)
  807214:	1885883a 	add	r2,r3,r2
  807218:	10800204 	addi	r2,r2,8
  80721c:	10c000c3 	ldbu	r3,3(r2)
  807220:	e0bff883 	ldbu	r2,-30(fp)
  807224:	1884b03a 	or	r2,r3,r2
  807228:	1007883a 	mov	r3,r2
  80722c:	e0bffc17 	ldw	r2,-16(fp)
  807230:	2085883a 	add	r2,r4,r2
  807234:	10800204 	addi	r2,r2,8
  807238:	10c000c5 	stb	r3,3(r2)
    }
#if (OS_EVENT_MULTI_EN > 0)
    if (ptcb->OSTCBEventMultiPtr != (OS_EVENT **)0) {
  80723c:	e0bffa17 	ldw	r2,-24(fp)
  807240:	10800817 	ldw	r2,32(r2)
  807244:	1005003a 	cmpeq	r2,r2,zero
  807248:	1000441e 	bne	r2,zero,80735c <OSTaskChangePrio+0x4f0>
        pevents =  ptcb->OSTCBEventMultiPtr;
  80724c:	e0bffa17 	ldw	r2,-24(fp)
  807250:	10800817 	ldw	r2,32(r2)
  807254:	e0bffb15 	stw	r2,-20(fp)
        pevent  = *pevents;
  807258:	e0bffb17 	ldw	r2,-20(fp)
  80725c:	10800017 	ldw	r2,0(r2)
  807260:	e0bffc15 	stw	r2,-16(fp)
        while (pevent != (OS_EVENT *)0) {
  807264:	00003a06 	br	807350 <OSTaskChangePrio+0x4e4>
            pevent->OSEventTbl[y_old] &= ~bitx_old;         /* Remove old task prio from wait lists    */
  807268:	e13ff903 	ldbu	r4,-28(fp)
  80726c:	e0fff903 	ldbu	r3,-28(fp)
  807270:	e0bffc17 	ldw	r2,-16(fp)
  807274:	1885883a 	add	r2,r3,r2
  807278:	10800204 	addi	r2,r2,8
  80727c:	108000c3 	ldbu	r2,3(r2)
  807280:	1007883a 	mov	r3,r2
  807284:	e0bff803 	ldbu	r2,-32(fp)
  807288:	0084303a 	nor	r2,zero,r2
  80728c:	1884703a 	and	r2,r3,r2
  807290:	1007883a 	mov	r3,r2
  807294:	e0bffc17 	ldw	r2,-16(fp)
  807298:	2085883a 	add	r2,r4,r2
  80729c:	10800204 	addi	r2,r2,8
  8072a0:	10c000c5 	stb	r3,3(r2)
            if (pevent->OSEventTbl[y_old] == 0) {
  8072a4:	e0fff903 	ldbu	r3,-28(fp)
  8072a8:	e0bffc17 	ldw	r2,-16(fp)
  8072ac:	1885883a 	add	r2,r3,r2
  8072b0:	10800204 	addi	r2,r2,8
  8072b4:	108000c3 	ldbu	r2,3(r2)
  8072b8:	10803fcc 	andi	r2,r2,255
  8072bc:	1004c03a 	cmpne	r2,r2,zero
  8072c0:	1000091e 	bne	r2,zero,8072e8 <OSTaskChangePrio+0x47c>
                pevent->OSEventGrp    &= ~bity_old;
  8072c4:	e0bffc17 	ldw	r2,-16(fp)
  8072c8:	10800283 	ldbu	r2,10(r2)
  8072cc:	1007883a 	mov	r3,r2
  8072d0:	e0bff843 	ldbu	r2,-31(fp)
  8072d4:	0084303a 	nor	r2,zero,r2
  8072d8:	1884703a 	and	r2,r3,r2
  8072dc:	1007883a 	mov	r3,r2
  8072e0:	e0bffc17 	ldw	r2,-16(fp)
  8072e4:	10c00285 	stb	r3,10(r2)
            }
            pevent->OSEventGrp        |= bity_new;          /* Add    new task prio to   wait lists    */
  8072e8:	e0bffc17 	ldw	r2,-16(fp)
  8072ec:	10c00283 	ldbu	r3,10(r2)
  8072f0:	e0bff8c3 	ldbu	r2,-29(fp)
  8072f4:	1884b03a 	or	r2,r3,r2
  8072f8:	1007883a 	mov	r3,r2
  8072fc:	e0bffc17 	ldw	r2,-16(fp)
  807300:	10c00285 	stb	r3,10(r2)
            pevent->OSEventTbl[y_new] |= bitx_new;
  807304:	e13ff983 	ldbu	r4,-26(fp)
  807308:	e0fff983 	ldbu	r3,-26(fp)
  80730c:	e0bffc17 	ldw	r2,-16(fp)
  807310:	1885883a 	add	r2,r3,r2
  807314:	10800204 	addi	r2,r2,8
  807318:	10c000c3 	ldbu	r3,3(r2)
  80731c:	e0bff883 	ldbu	r2,-30(fp)
  807320:	1884b03a 	or	r2,r3,r2
  807324:	1007883a 	mov	r3,r2
  807328:	e0bffc17 	ldw	r2,-16(fp)
  80732c:	2085883a 	add	r2,r4,r2
  807330:	10800204 	addi	r2,r2,8
  807334:	10c000c5 	stb	r3,3(r2)
            pevents++;
  807338:	e0bffb17 	ldw	r2,-20(fp)
  80733c:	10800104 	addi	r2,r2,4
  807340:	e0bffb15 	stw	r2,-20(fp)
            pevent                     = *pevents;
  807344:	e0bffb17 	ldw	r2,-20(fp)
  807348:	10800017 	ldw	r2,0(r2)
  80734c:	e0bffc15 	stw	r2,-16(fp)
    }
#if (OS_EVENT_MULTI_EN > 0)
    if (ptcb->OSTCBEventMultiPtr != (OS_EVENT **)0) {
        pevents =  ptcb->OSTCBEventMultiPtr;
        pevent  = *pevents;
        while (pevent != (OS_EVENT *)0) {
  807350:	e0bffc17 	ldw	r2,-16(fp)
  807354:	1004c03a 	cmpne	r2,r2,zero
  807358:	103fc31e 	bne	r2,zero,807268 <OSTaskChangePrio+0x3fc>
        }
    }
#endif
#endif

    ptcb->OSTCBPrio = newprio;                              /* Set new task priority                   */
  80735c:	e0fffa17 	ldw	r3,-24(fp)
  807360:	e0bffe03 	ldbu	r2,-8(fp)
  807364:	18800c85 	stb	r2,50(r3)
    ptcb->OSTCBY    = y_new;
  807368:	e0fffa17 	ldw	r3,-24(fp)
  80736c:	e0bff983 	ldbu	r2,-26(fp)
  807370:	18800d05 	stb	r2,52(r3)
    ptcb->OSTCBX    = x_new;
  807374:	e0fffa17 	ldw	r3,-24(fp)
  807378:	e0bff943 	ldbu	r2,-27(fp)
  80737c:	18800cc5 	stb	r2,51(r3)
    ptcb->OSTCBBitY = bity_new;
  807380:	e0fffa17 	ldw	r3,-24(fp)
  807384:	e0bff8c3 	ldbu	r2,-29(fp)
  807388:	18800d85 	stb	r2,54(r3)
    ptcb->OSTCBBitX = bitx_new;
  80738c:	e0fffa17 	ldw	r3,-24(fp)
  807390:	e0bff883 	ldbu	r2,-30(fp)
  807394:	18800d45 	stb	r2,53(r3)
  807398:	e0bff717 	ldw	r2,-36(fp)
  80739c:	e0bff215 	stw	r2,-56(fp)
  8073a0:	e0bff217 	ldw	r2,-56(fp)
  8073a4:	1001703a 	wrctl	status,r2
    OS_EXIT_CRITICAL();
    if (OSRunning == OS_TRUE) {
  8073a8:	00802074 	movhi	r2,129
  8073ac:	10874744 	addi	r2,r2,7453
  8073b0:	10800003 	ldbu	r2,0(r2)
  8073b4:	10803fcc 	andi	r2,r2,255
  8073b8:	10800058 	cmpnei	r2,r2,1
  8073bc:	1000011e 	bne	r2,zero,8073c4 <OSTaskChangePrio+0x558>
        OS_Sched();                                         /* Find new highest priority task          */
  8073c0:	08025b40 	call	8025b4 <OS_Sched>
    }
    return (OS_ERR_NONE);
  8073c4:	e03fff15 	stw	zero,-4(fp)
  8073c8:	e0bfff17 	ldw	r2,-4(fp)
}
  8073cc:	e037883a 	mov	sp,fp
  8073d0:	dfc00117 	ldw	ra,4(sp)
  8073d4:	df000017 	ldw	fp,0(sp)
  8073d8:	dec00204 	addi	sp,sp,8
  8073dc:	f800283a 	ret

008073e0 <OSTaskCreate>:
*********************************************************************************************************
*/

#if OS_TASK_CREATE_EN > 0
INT8U  OSTaskCreate (void (*task)(void *p_arg), void *p_arg, OS_STK *ptos, INT8U prio)
{
  8073e0:	deffed04 	addi	sp,sp,-76
  8073e4:	dfc01215 	stw	ra,72(sp)
  8073e8:	df001115 	stw	fp,68(sp)
  8073ec:	df001104 	addi	fp,sp,68
  8073f0:	e13ffb15 	stw	r4,-20(fp)
  8073f4:	e17ffc15 	stw	r5,-16(fp)
  8073f8:	e1bffd15 	stw	r6,-12(fp)
  8073fc:	e1fffe05 	stb	r7,-8(fp)
    OS_STK    *psp;
    INT8U      err;
#if OS_CRITICAL_METHOD == 3                  /* Allocate storage for CPU status register               */
    OS_CPU_SR  cpu_sr = 0;
  807400:	e03ff815 	stw	zero,-32(fp)
#endif



#if OS_ARG_CHK_EN > 0
    if (prio > OS_LOWEST_PRIO) {             /* Make sure priority is within allowable range           */
  807404:	e0bffe03 	ldbu	r2,-8(fp)
  807408:	10800570 	cmpltui	r2,r2,21
  80740c:	1000031e 	bne	r2,zero,80741c <OSTaskCreate+0x3c>
        return (OS_ERR_PRIO_INVALID);
  807410:	00800a84 	movi	r2,42
  807414:	e0bfff15 	stw	r2,-4(fp)
  807418:	00006006 	br	80759c <OSTaskCreate+0x1bc>
static ALT_INLINE alt_irq_context ALT_ALWAYS_INLINE 
       alt_irq_disable_all (void)
{
  alt_irq_context context;

  NIOS2_READ_STATUS (context);
  80741c:	0005303a 	rdctl	r2,status
  807420:	e0bff715 	stw	r2,-36(fp)

  NIOS2_WRITE_STATUS (context & ~NIOS2_STATUS_PIE_MSK);
  807424:	e0fff717 	ldw	r3,-36(fp)
  807428:	00bfff84 	movi	r2,-2
  80742c:	1884703a 	and	r2,r3,r2
  807430:	1001703a 	wrctl	status,r2
  
  return context;
  807434:	e0bff717 	ldw	r2,-36(fp)
    }
#endif
    OS_ENTER_CRITICAL();
  807438:	e0bff815 	stw	r2,-32(fp)
    if (OSIntNesting > 0) {                  /* Make sure we don't create the task from within an ISR  */
  80743c:	00802074 	movhi	r2,129
  807440:	10875504 	addi	r2,r2,7508
  807444:	10800003 	ldbu	r2,0(r2)
  807448:	10803fcc 	andi	r2,r2,255
  80744c:	1005003a 	cmpeq	r2,r2,zero
  807450:	1000071e 	bne	r2,zero,807470 <OSTaskCreate+0x90>
  807454:	e0bff817 	ldw	r2,-32(fp)
  807458:	e0bff615 	stw	r2,-40(fp)
  status &= ~NIOS2_STATUS_PIE_MSK;
  status |= (context & NIOS2_STATUS_PIE_MSK);
  
  NIOS2_WRITE_STATUS (status);
#else
  NIOS2_WRITE_STATUS (context);
  80745c:	e0bff617 	ldw	r2,-40(fp)
  807460:	1001703a 	wrctl	status,r2
        OS_EXIT_CRITICAL();
        return (OS_ERR_TASK_CREATE_ISR);
  807464:	00800f04 	movi	r2,60
  807468:	e0bfff15 	stw	r2,-4(fp)
  80746c:	00004b06 	br	80759c <OSTaskCreate+0x1bc>
    }
    if (OSTCBPrioTbl[prio] == (OS_TCB *)0) { /* Make sure task doesn't already exist at this priority  */
  807470:	e0bffe03 	ldbu	r2,-8(fp)
  807474:	00c020b4 	movhi	r3,130
  807478:	18ebe104 	addi	r3,r3,-20604
  80747c:	1085883a 	add	r2,r2,r2
  807480:	1085883a 	add	r2,r2,r2
  807484:	10c5883a 	add	r2,r2,r3
  807488:	10800017 	ldw	r2,0(r2)
  80748c:	1004c03a 	cmpne	r2,r2,zero
  807490:	10003c1e 	bne	r2,zero,807584 <OSTaskCreate+0x1a4>
        OSTCBPrioTbl[prio] = OS_TCB_RESERVED;/* Reserve the priority to prevent others from doing ...  */
  807494:	e0bffe03 	ldbu	r2,-8(fp)
  807498:	00c020b4 	movhi	r3,130
  80749c:	18ebe104 	addi	r3,r3,-20604
  8074a0:	1085883a 	add	r2,r2,r2
  8074a4:	1085883a 	add	r2,r2,r2
  8074a8:	10c7883a 	add	r3,r2,r3
  8074ac:	00800044 	movi	r2,1
  8074b0:	18800015 	stw	r2,0(r3)
  8074b4:	e0bff817 	ldw	r2,-32(fp)
  8074b8:	e0bff515 	stw	r2,-44(fp)
  8074bc:	e0bff517 	ldw	r2,-44(fp)
  8074c0:	1001703a 	wrctl	status,r2
                                             /* ... the same thing until task is created.              */
        OS_EXIT_CRITICAL();
        psp = OSTaskStkInit(task, p_arg, ptos, 0);              /* Initialize the task's stack         */
  8074c4:	e13ffb17 	ldw	r4,-20(fp)
  8074c8:	e17ffc17 	ldw	r5,-16(fp)
  8074cc:	e1bffd17 	ldw	r6,-12(fp)
  8074d0:	000f883a 	mov	r7,zero
  8074d4:	080b2640 	call	80b264 <OSTaskStkInit>
  8074d8:	e0bffa15 	stw	r2,-24(fp)
        err = OS_TCBInit(prio, psp, (OS_STK *)0, 0, 0, (void *)0, 0);
  8074dc:	e13ffe03 	ldbu	r4,-8(fp)
  8074e0:	d8000015 	stw	zero,0(sp)
  8074e4:	d8000115 	stw	zero,4(sp)
  8074e8:	d8000215 	stw	zero,8(sp)
  8074ec:	e17ffa17 	ldw	r5,-24(fp)
  8074f0:	000d883a 	mov	r6,zero
  8074f4:	000f883a 	mov	r7,zero
  8074f8:	08029bc0 	call	8029bc <OS_TCBInit>
  8074fc:	e0bff905 	stb	r2,-28(fp)
        if (err == OS_ERR_NONE) {
  807500:	e0bff903 	ldbu	r2,-28(fp)
  807504:	1004c03a 	cmpne	r2,r2,zero
  807508:	1000081e 	bne	r2,zero,80752c <OSTaskCreate+0x14c>
            if (OSRunning == OS_TRUE) {      /* Find highest priority task if multitasking has started */
  80750c:	00802074 	movhi	r2,129
  807510:	10874744 	addi	r2,r2,7453
  807514:	10800003 	ldbu	r2,0(r2)
  807518:	10803fcc 	andi	r2,r2,255
  80751c:	10800058 	cmpnei	r2,r2,1
  807520:	1000151e 	bne	r2,zero,807578 <OSTaskCreate+0x198>
                OS_Sched();
  807524:	08025b40 	call	8025b4 <OS_Sched>
  807528:	00001306 	br	807578 <OSTaskCreate+0x198>
static ALT_INLINE alt_irq_context ALT_ALWAYS_INLINE 
       alt_irq_disable_all (void)
{
  alt_irq_context context;

  NIOS2_READ_STATUS (context);
  80752c:	0005303a 	rdctl	r2,status
  807530:	e0bff415 	stw	r2,-48(fp)

  NIOS2_WRITE_STATUS (context & ~NIOS2_STATUS_PIE_MSK);
  807534:	e0fff417 	ldw	r3,-48(fp)
  807538:	00bfff84 	movi	r2,-2
  80753c:	1884703a 	and	r2,r3,r2
  807540:	1001703a 	wrctl	status,r2
  
  return context;
  807544:	e0bff417 	ldw	r2,-48(fp)
            }
        } else {
            OS_ENTER_CRITICAL();
  807548:	e0bff815 	stw	r2,-32(fp)
            OSTCBPrioTbl[prio] = (OS_TCB *)0;/* Make this priority available to others                 */
  80754c:	e0bffe03 	ldbu	r2,-8(fp)
  807550:	00c020b4 	movhi	r3,130
  807554:	18ebe104 	addi	r3,r3,-20604
  807558:	1085883a 	add	r2,r2,r2
  80755c:	1085883a 	add	r2,r2,r2
  807560:	10c5883a 	add	r2,r2,r3
  807564:	10000015 	stw	zero,0(r2)
  807568:	e0bff817 	ldw	r2,-32(fp)
  80756c:	e0bff315 	stw	r2,-52(fp)
  status &= ~NIOS2_STATUS_PIE_MSK;
  status |= (context & NIOS2_STATUS_PIE_MSK);
  
  NIOS2_WRITE_STATUS (status);
#else
  NIOS2_WRITE_STATUS (context);
  807570:	e0bff317 	ldw	r2,-52(fp)
  807574:	1001703a 	wrctl	status,r2
            OS_EXIT_CRITICAL();
        }
        return (err);
  807578:	e0bff903 	ldbu	r2,-28(fp)
  80757c:	e0bfff15 	stw	r2,-4(fp)
  807580:	00000606 	br	80759c <OSTaskCreate+0x1bc>
  807584:	e0bff817 	ldw	r2,-32(fp)
  807588:	e0bff215 	stw	r2,-56(fp)
  80758c:	e0bff217 	ldw	r2,-56(fp)
  807590:	1001703a 	wrctl	status,r2
    }
    OS_EXIT_CRITICAL();
    return (OS_ERR_PRIO_EXIST);
  807594:	00800a04 	movi	r2,40
  807598:	e0bfff15 	stw	r2,-4(fp)
  80759c:	e0bfff17 	ldw	r2,-4(fp)
}
  8075a0:	e037883a 	mov	sp,fp
  8075a4:	dfc00117 	ldw	ra,4(sp)
  8075a8:	df000017 	ldw	fp,0(sp)
  8075ac:	dec00204 	addi	sp,sp,8
  8075b0:	f800283a 	ret

008075b4 <OSTaskCreateExt>:
                        INT16U   id,
                        OS_STK  *pbos,
                        INT32U   stk_size,
                        void    *pext,
                        INT16U   opt)
{
  8075b4:	deffeb04 	addi	sp,sp,-84
  8075b8:	dfc01415 	stw	ra,80(sp)
  8075bc:	df001315 	stw	fp,76(sp)
  8075c0:	df001304 	addi	fp,sp,76
  8075c4:	e13ff915 	stw	r4,-28(fp)
  8075c8:	e17ffa15 	stw	r5,-24(fp)
  8075cc:	e1bffb15 	stw	r6,-20(fp)
  8075d0:	e0800217 	ldw	r2,8(fp)
  8075d4:	e0c00617 	ldw	r3,24(fp)
  8075d8:	e1fffc05 	stb	r7,-16(fp)
  8075dc:	e0bffd0d 	sth	r2,-12(fp)
  8075e0:	e0fffe0d 	sth	r3,-8(fp)
    OS_STK    *psp;
    INT8U      err;
#if OS_CRITICAL_METHOD == 3                  /* Allocate storage for CPU status register               */
    OS_CPU_SR  cpu_sr = 0;
  8075e4:	e03ff615 	stw	zero,-40(fp)
#endif



#if OS_ARG_CHK_EN > 0
    if (prio > OS_LOWEST_PRIO) {             /* Make sure priority is within allowable range           */
  8075e8:	e0bffc03 	ldbu	r2,-16(fp)
  8075ec:	10800570 	cmpltui	r2,r2,21
  8075f0:	1000031e 	bne	r2,zero,807600 <OSTaskCreateExt+0x4c>
        return (OS_ERR_PRIO_INVALID);
  8075f4:	00800a84 	movi	r2,42
  8075f8:	e0bfff15 	stw	r2,-4(fp)
  8075fc:	00006706 	br	80779c <OSTaskCreateExt+0x1e8>
static ALT_INLINE alt_irq_context ALT_ALWAYS_INLINE 
       alt_irq_disable_all (void)
{
  alt_irq_context context;

  NIOS2_READ_STATUS (context);
  807600:	0005303a 	rdctl	r2,status
  807604:	e0bff515 	stw	r2,-44(fp)

  NIOS2_WRITE_STATUS (context & ~NIOS2_STATUS_PIE_MSK);
  807608:	e0fff517 	ldw	r3,-44(fp)
  80760c:	00bfff84 	movi	r2,-2
  807610:	1884703a 	and	r2,r3,r2
  807614:	1001703a 	wrctl	status,r2
  
  return context;
  807618:	e0bff517 	ldw	r2,-44(fp)
    }
#endif
    OS_ENTER_CRITICAL();
  80761c:	e0bff615 	stw	r2,-40(fp)
    if (OSIntNesting > 0) {                  /* Make sure we don't create the task from within an ISR  */
  807620:	00802074 	movhi	r2,129
  807624:	10875504 	addi	r2,r2,7508
  807628:	10800003 	ldbu	r2,0(r2)
  80762c:	10803fcc 	andi	r2,r2,255
  807630:	1005003a 	cmpeq	r2,r2,zero
  807634:	1000071e 	bne	r2,zero,807654 <OSTaskCreateExt+0xa0>
  807638:	e0bff617 	ldw	r2,-40(fp)
  80763c:	e0bff415 	stw	r2,-48(fp)
  status &= ~NIOS2_STATUS_PIE_MSK;
  status |= (context & NIOS2_STATUS_PIE_MSK);
  
  NIOS2_WRITE_STATUS (status);
#else
  NIOS2_WRITE_STATUS (context);
  807640:	e0bff417 	ldw	r2,-48(fp)
  807644:	1001703a 	wrctl	status,r2
        OS_EXIT_CRITICAL();
        return (OS_ERR_TASK_CREATE_ISR);
  807648:	00800f04 	movi	r2,60
  80764c:	e0bfff15 	stw	r2,-4(fp)
  807650:	00005206 	br	80779c <OSTaskCreateExt+0x1e8>
    }
    if (OSTCBPrioTbl[prio] == (OS_TCB *)0) { /* Make sure task doesn't already exist at this priority  */
  807654:	e0bffc03 	ldbu	r2,-16(fp)
  807658:	00c020b4 	movhi	r3,130
  80765c:	18ebe104 	addi	r3,r3,-20604
  807660:	1085883a 	add	r2,r2,r2
  807664:	1085883a 	add	r2,r2,r2
  807668:	10c5883a 	add	r2,r2,r3
  80766c:	10800017 	ldw	r2,0(r2)
  807670:	1004c03a 	cmpne	r2,r2,zero
  807674:	1000431e 	bne	r2,zero,807784 <OSTaskCreateExt+0x1d0>
        OSTCBPrioTbl[prio] = OS_TCB_RESERVED;/* Reserve the priority to prevent others from doing ...  */
  807678:	e0bffc03 	ldbu	r2,-16(fp)
  80767c:	00c020b4 	movhi	r3,130
  807680:	18ebe104 	addi	r3,r3,-20604
  807684:	1085883a 	add	r2,r2,r2
  807688:	1085883a 	add	r2,r2,r2
  80768c:	10c7883a 	add	r3,r2,r3
  807690:	00800044 	movi	r2,1
  807694:	18800015 	stw	r2,0(r3)
  807698:	e0bff617 	ldw	r2,-40(fp)
  80769c:	e0bff315 	stw	r2,-52(fp)
  8076a0:	e0bff317 	ldw	r2,-52(fp)
  8076a4:	1001703a 	wrctl	status,r2
                                             /* ... the same thing until task is created.              */
        OS_EXIT_CRITICAL();

#if (OS_TASK_STAT_STK_CHK_EN > 0)
        OS_TaskStkClr(pbos, stk_size, opt);                    /* Clear the task stack (if needed)     */
  8076a8:	e1bffe0b 	ldhu	r6,-8(fp)
  8076ac:	e1000317 	ldw	r4,12(fp)
  8076b0:	e1400417 	ldw	r5,16(fp)
  8076b4:	08088300 	call	808830 <OS_TaskStkClr>
#endif

        psp = OSTaskStkInit(task, p_arg, ptos, opt);           /* Initialize the task's stack          */
  8076b8:	e1fffe0b 	ldhu	r7,-8(fp)
  8076bc:	e13ff917 	ldw	r4,-28(fp)
  8076c0:	e17ffa17 	ldw	r5,-24(fp)
  8076c4:	e1bffb17 	ldw	r6,-20(fp)
  8076c8:	080b2640 	call	80b264 <OSTaskStkInit>
  8076cc:	e0bff815 	stw	r2,-32(fp)
        err = OS_TCBInit(prio, psp, pbos, id, stk_size, pext, opt);
  8076d0:	e13ffc03 	ldbu	r4,-16(fp)
  8076d4:	e1fffd0b 	ldhu	r7,-12(fp)
  8076d8:	e0fffe0b 	ldhu	r3,-8(fp)
  8076dc:	e0800417 	ldw	r2,16(fp)
  8076e0:	d8800015 	stw	r2,0(sp)
  8076e4:	e0800517 	ldw	r2,20(fp)
  8076e8:	d8800115 	stw	r2,4(sp)
  8076ec:	d8c00215 	stw	r3,8(sp)
  8076f0:	e17ff817 	ldw	r5,-32(fp)
  8076f4:	e1800317 	ldw	r6,12(fp)
  8076f8:	08029bc0 	call	8029bc <OS_TCBInit>
  8076fc:	e0bff705 	stb	r2,-36(fp)
        if (err == OS_ERR_NONE) {
  807700:	e0bff703 	ldbu	r2,-36(fp)
  807704:	1004c03a 	cmpne	r2,r2,zero
  807708:	1000081e 	bne	r2,zero,80772c <OSTaskCreateExt+0x178>
            if (OSRunning == OS_TRUE) {                        /* Find HPT if multitasking has started */
  80770c:	00802074 	movhi	r2,129
  807710:	10874744 	addi	r2,r2,7453
  807714:	10800003 	ldbu	r2,0(r2)
  807718:	10803fcc 	andi	r2,r2,255
  80771c:	10800058 	cmpnei	r2,r2,1
  807720:	1000151e 	bne	r2,zero,807778 <OSTaskCreateExt+0x1c4>
                OS_Sched();
  807724:	08025b40 	call	8025b4 <OS_Sched>
  807728:	00001306 	br	807778 <OSTaskCreateExt+0x1c4>
static ALT_INLINE alt_irq_context ALT_ALWAYS_INLINE 
       alt_irq_disable_all (void)
{
  alt_irq_context context;

  NIOS2_READ_STATUS (context);
  80772c:	0005303a 	rdctl	r2,status
  807730:	e0bff215 	stw	r2,-56(fp)

  NIOS2_WRITE_STATUS (context & ~NIOS2_STATUS_PIE_MSK);
  807734:	e0fff217 	ldw	r3,-56(fp)
  807738:	00bfff84 	movi	r2,-2
  80773c:	1884703a 	and	r2,r3,r2
  807740:	1001703a 	wrctl	status,r2
  
  return context;
  807744:	e0bff217 	ldw	r2,-56(fp)
            }
        } else {
            OS_ENTER_CRITICAL();
  807748:	e0bff615 	stw	r2,-40(fp)
            OSTCBPrioTbl[prio] = (OS_TCB *)0;                  /* Make this priority avail. to others  */
  80774c:	e0bffc03 	ldbu	r2,-16(fp)
  807750:	00c020b4 	movhi	r3,130
  807754:	18ebe104 	addi	r3,r3,-20604
  807758:	1085883a 	add	r2,r2,r2
  80775c:	1085883a 	add	r2,r2,r2
  807760:	10c5883a 	add	r2,r2,r3
  807764:	10000015 	stw	zero,0(r2)
  807768:	e0bff617 	ldw	r2,-40(fp)
  80776c:	e0bff115 	stw	r2,-60(fp)
  status &= ~NIOS2_STATUS_PIE_MSK;
  status |= (context & NIOS2_STATUS_PIE_MSK);
  
  NIOS2_WRITE_STATUS (status);
#else
  NIOS2_WRITE_STATUS (context);
  807770:	e0bff117 	ldw	r2,-60(fp)
  807774:	1001703a 	wrctl	status,r2
            OS_EXIT_CRITICAL();
        }
        return (err);
  807778:	e0bff703 	ldbu	r2,-36(fp)
  80777c:	e0bfff15 	stw	r2,-4(fp)
  807780:	00000606 	br	80779c <OSTaskCreateExt+0x1e8>
  807784:	e0bff617 	ldw	r2,-40(fp)
  807788:	e0bff015 	stw	r2,-64(fp)
  80778c:	e0bff017 	ldw	r2,-64(fp)
  807790:	1001703a 	wrctl	status,r2
    }
    OS_EXIT_CRITICAL();
    return (OS_ERR_PRIO_EXIST);
  807794:	00800a04 	movi	r2,40
  807798:	e0bfff15 	stw	r2,-4(fp)
  80779c:	e0bfff17 	ldw	r2,-4(fp)
}
  8077a0:	e037883a 	mov	sp,fp
  8077a4:	dfc00117 	ldw	ra,4(sp)
  8077a8:	df000017 	ldw	fp,0(sp)
  8077ac:	dec00204 	addi	sp,sp,8
  8077b0:	f800283a 	ret

008077b4 <OSTaskDel>:
*********************************************************************************************************
*/

#if OS_TASK_DEL_EN > 0
INT8U  OSTaskDel (INT8U prio)
{
  8077b4:	defff304 	addi	sp,sp,-52
  8077b8:	dfc00c15 	stw	ra,48(sp)
  8077bc:	df000b15 	stw	fp,44(sp)
  8077c0:	df000b04 	addi	fp,sp,44
  8077c4:	e13ffe05 	stb	r4,-8(fp)
#if (OS_FLAG_EN > 0) && (OS_MAX_FLAGS > 0)
    OS_FLAG_NODE *pnode;
#endif
    OS_TCB       *ptcb;
#if OS_CRITICAL_METHOD == 3                             /* Allocate storage for CPU status register    */
    OS_CPU_SR     cpu_sr = 0;
  8077c8:	e03ffb15 	stw	zero,-20(fp)
#endif



    if (OSIntNesting > 0) {                             /* See if trying to delete from ISR            */
  8077cc:	00802074 	movhi	r2,129
  8077d0:	10875504 	addi	r2,r2,7508
  8077d4:	10800003 	ldbu	r2,0(r2)
  8077d8:	10803fcc 	andi	r2,r2,255
  8077dc:	1005003a 	cmpeq	r2,r2,zero
  8077e0:	1000031e 	bne	r2,zero,8077f0 <OSTaskDel+0x3c>
        return (OS_ERR_TASK_DEL_ISR);
  8077e4:	00801004 	movi	r2,64
  8077e8:	e0bfff15 	stw	r2,-4(fp)
  8077ec:	0000ee06 	br	807ba8 <OSTaskDel+0x3f4>
    }
    if (prio == OS_TASK_IDLE_PRIO) {                    /* Not allowed to delete idle task             */
  8077f0:	e0bffe03 	ldbu	r2,-8(fp)
  8077f4:	10800518 	cmpnei	r2,r2,20
  8077f8:	1000031e 	bne	r2,zero,807808 <OSTaskDel+0x54>
        return (OS_ERR_TASK_DEL_IDLE);
  8077fc:	00800f84 	movi	r2,62
  807800:	e0bfff15 	stw	r2,-4(fp)
  807804:	0000e806 	br	807ba8 <OSTaskDel+0x3f4>
    }
#if OS_ARG_CHK_EN > 0
    if (prio >= OS_LOWEST_PRIO) {                       /* Task priority valid ?                       */
  807808:	e0bffe03 	ldbu	r2,-8(fp)
  80780c:	10800530 	cmpltui	r2,r2,20
  807810:	1000061e 	bne	r2,zero,80782c <OSTaskDel+0x78>
        if (prio != OS_PRIO_SELF) {
  807814:	e0bffe03 	ldbu	r2,-8(fp)
  807818:	10803fe0 	cmpeqi	r2,r2,255
  80781c:	1000031e 	bne	r2,zero,80782c <OSTaskDel+0x78>
            return (OS_ERR_PRIO_INVALID);
  807820:	00800a84 	movi	r2,42
  807824:	e0bfff15 	stw	r2,-4(fp)
  807828:	0000df06 	br	807ba8 <OSTaskDel+0x3f4>
static ALT_INLINE alt_irq_context ALT_ALWAYS_INLINE 
       alt_irq_disable_all (void)
{
  alt_irq_context context;

  NIOS2_READ_STATUS (context);
  80782c:	0005303a 	rdctl	r2,status
  807830:	e0bffa15 	stw	r2,-24(fp)

  NIOS2_WRITE_STATUS (context & ~NIOS2_STATUS_PIE_MSK);
  807834:	e0fffa17 	ldw	r3,-24(fp)
  807838:	00bfff84 	movi	r2,-2
  80783c:	1884703a 	and	r2,r3,r2
  807840:	1001703a 	wrctl	status,r2
  
  return context;
  807844:	e0bffa17 	ldw	r2,-24(fp)
        }
    }
#endif

/*$PAGE*/
    OS_ENTER_CRITICAL();
  807848:	e0bffb15 	stw	r2,-20(fp)
    if (prio == OS_PRIO_SELF) {                         /* See if requesting to delete self            */
  80784c:	e0bffe03 	ldbu	r2,-8(fp)
  807850:	10803fd8 	cmpnei	r2,r2,255
  807854:	1000051e 	bne	r2,zero,80786c <OSTaskDel+0xb8>
        prio = OSTCBCur->OSTCBPrio;                     /* Set priority to delete to current           */
  807858:	00802074 	movhi	r2,129
  80785c:	10875604 	addi	r2,r2,7512
  807860:	10800017 	ldw	r2,0(r2)
  807864:	10800c83 	ldbu	r2,50(r2)
  807868:	e0bffe05 	stb	r2,-8(fp)
    }
    ptcb = OSTCBPrioTbl[prio];
  80786c:	e0bffe03 	ldbu	r2,-8(fp)
  807870:	00c020b4 	movhi	r3,130
  807874:	18ebe104 	addi	r3,r3,-20604
  807878:	1085883a 	add	r2,r2,r2
  80787c:	1085883a 	add	r2,r2,r2
  807880:	10c5883a 	add	r2,r2,r3
  807884:	10800017 	ldw	r2,0(r2)
  807888:	e0bffc15 	stw	r2,-16(fp)
    if (ptcb == (OS_TCB *)0) {                          /* Task to delete must exist                   */
  80788c:	e0bffc17 	ldw	r2,-16(fp)
  807890:	1004c03a 	cmpne	r2,r2,zero
  807894:	1000071e 	bne	r2,zero,8078b4 <OSTaskDel+0x100>
  807898:	e0bffb17 	ldw	r2,-20(fp)
  80789c:	e0bff915 	stw	r2,-28(fp)
  status &= ~NIOS2_STATUS_PIE_MSK;
  status |= (context & NIOS2_STATUS_PIE_MSK);
  
  NIOS2_WRITE_STATUS (status);
#else
  NIOS2_WRITE_STATUS (context);
  8078a0:	e0bff917 	ldw	r2,-28(fp)
  8078a4:	1001703a 	wrctl	status,r2
        OS_EXIT_CRITICAL();
        return (OS_ERR_TASK_NOT_EXIST);
  8078a8:	008010c4 	movi	r2,67
  8078ac:	e0bfff15 	stw	r2,-4(fp)
  8078b0:	0000bd06 	br	807ba8 <OSTaskDel+0x3f4>
    }
    if (ptcb == OS_TCB_RESERVED) {                      /* Must not be assigned to Mutex               */
  8078b4:	e0bffc17 	ldw	r2,-16(fp)
  8078b8:	10800058 	cmpnei	r2,r2,1
  8078bc:	1000071e 	bne	r2,zero,8078dc <OSTaskDel+0x128>
  8078c0:	e0bffb17 	ldw	r2,-20(fp)
  8078c4:	e0bff815 	stw	r2,-32(fp)
  8078c8:	e0bff817 	ldw	r2,-32(fp)
  8078cc:	1001703a 	wrctl	status,r2
        OS_EXIT_CRITICAL();
        return (OS_ERR_TASK_DEL);
  8078d0:	00800f44 	movi	r2,61
  8078d4:	e0bfff15 	stw	r2,-4(fp)
  8078d8:	0000b306 	br	807ba8 <OSTaskDel+0x3f4>
    }

    OSRdyTbl[ptcb->OSTCBY] &= ~ptcb->OSTCBBitX;
  8078dc:	e0bffc17 	ldw	r2,-16(fp)
  8078e0:	10800d03 	ldbu	r2,52(r2)
  8078e4:	11003fcc 	andi	r4,r2,255
  8078e8:	e0bffc17 	ldw	r2,-16(fp)
  8078ec:	10800d03 	ldbu	r2,52(r2)
  8078f0:	10c03fcc 	andi	r3,r2,255
  8078f4:	00802074 	movhi	r2,129
  8078f8:	10875344 	addi	r2,r2,7501
  8078fc:	10c5883a 	add	r2,r2,r3
  807900:	10800003 	ldbu	r2,0(r2)
  807904:	1007883a 	mov	r3,r2
  807908:	e0bffc17 	ldw	r2,-16(fp)
  80790c:	10800d43 	ldbu	r2,53(r2)
  807910:	0084303a 	nor	r2,zero,r2
  807914:	1884703a 	and	r2,r3,r2
  807918:	1007883a 	mov	r3,r2
  80791c:	00802074 	movhi	r2,129
  807920:	10875344 	addi	r2,r2,7501
  807924:	1105883a 	add	r2,r2,r4
  807928:	10c00005 	stb	r3,0(r2)
    if (OSRdyTbl[ptcb->OSTCBY] == 0) {                  /* Make task not ready                         */
  80792c:	e0bffc17 	ldw	r2,-16(fp)
  807930:	10800d03 	ldbu	r2,52(r2)
  807934:	10c03fcc 	andi	r3,r2,255
  807938:	00802074 	movhi	r2,129
  80793c:	10875344 	addi	r2,r2,7501
  807940:	10c5883a 	add	r2,r2,r3
  807944:	10800003 	ldbu	r2,0(r2)
  807948:	10803fcc 	andi	r2,r2,255
  80794c:	1004c03a 	cmpne	r2,r2,zero
  807950:	10000c1e 	bne	r2,zero,807984 <OSTaskDel+0x1d0>
        OSRdyGrp           &= ~ptcb->OSTCBBitY;
  807954:	e0bffc17 	ldw	r2,-16(fp)
  807958:	10800d83 	ldbu	r2,54(r2)
  80795c:	0084303a 	nor	r2,zero,r2
  807960:	1007883a 	mov	r3,r2
  807964:	00802074 	movhi	r2,129
  807968:	10875304 	addi	r2,r2,7500
  80796c:	10800003 	ldbu	r2,0(r2)
  807970:	1884703a 	and	r2,r3,r2
  807974:	1007883a 	mov	r3,r2
  807978:	00802074 	movhi	r2,129
  80797c:	10875304 	addi	r2,r2,7500
  807980:	10c00005 	stb	r3,0(r2)
    }
    
#if (OS_EVENT_EN)
    if (ptcb->OSTCBEventPtr != (OS_EVENT *)0) {
  807984:	e0bffc17 	ldw	r2,-16(fp)
  807988:	10800717 	ldw	r2,28(r2)
  80798c:	1005003a 	cmpeq	r2,r2,zero
  807990:	1000041e 	bne	r2,zero,8079a4 <OSTaskDel+0x1f0>
        OS_EventTaskRemove(ptcb, ptcb->OSTCBEventPtr);  /* Remove this task from any event   wait list */
  807994:	e0bffc17 	ldw	r2,-16(fp)
  807998:	11400717 	ldw	r5,28(r2)
  80799c:	e13ffc17 	ldw	r4,-16(fp)
  8079a0:	0801f6c0 	call	801f6c <OS_EventTaskRemove>
    }
#if (OS_EVENT_MULTI_EN > 0)
    if (ptcb->OSTCBEventMultiPtr != (OS_EVENT **)0) {   /* Remove this task from any events' wait lists*/
  8079a4:	e0bffc17 	ldw	r2,-16(fp)
  8079a8:	10800817 	ldw	r2,32(r2)
  8079ac:	1005003a 	cmpeq	r2,r2,zero
  8079b0:	1000041e 	bne	r2,zero,8079c4 <OSTaskDel+0x210>
        OS_EventTaskRemoveMulti(ptcb, ptcb->OSTCBEventMultiPtr);
  8079b4:	e0bffc17 	ldw	r2,-16(fp)
  8079b8:	11400817 	ldw	r5,32(r2)
  8079bc:	e13ffc17 	ldw	r4,-16(fp)
  8079c0:	08020240 	call	802024 <OS_EventTaskRemoveMulti>
    }
#endif
#endif

#if (OS_FLAG_EN > 0) && (OS_MAX_FLAGS > 0)
    pnode = ptcb->OSTCBFlagNode;
  8079c4:	e0bffc17 	ldw	r2,-16(fp)
  8079c8:	10800a17 	ldw	r2,40(r2)
  8079cc:	e0bffd15 	stw	r2,-12(fp)
    if (pnode != (OS_FLAG_NODE *)0) {                   /* If task is waiting on event flag            */
  8079d0:	e0bffd17 	ldw	r2,-12(fp)
  8079d4:	1005003a 	cmpeq	r2,r2,zero
  8079d8:	1000021e 	bne	r2,zero,8079e4 <OSTaskDel+0x230>
        OS_FlagUnlink(pnode);                           /* Remove from wait list                       */
  8079dc:	e13ffd17 	ldw	r4,-12(fp)
  8079e0:	08046b80 	call	8046b8 <OS_FlagUnlink>
    }
#endif

    ptcb->OSTCBDly      = 0;                            /* Prevent OSTimeTick() from updating          */
  8079e4:	e0bffc17 	ldw	r2,-16(fp)
  8079e8:	10000b8d 	sth	zero,46(r2)
    ptcb->OSTCBStat     = OS_STAT_RDY;                  /* Prevent task from being resumed             */
  8079ec:	e0bffc17 	ldw	r2,-16(fp)
  8079f0:	10000c05 	stb	zero,48(r2)
    ptcb->OSTCBStatPend = OS_STAT_PEND_OK;
  8079f4:	e0bffc17 	ldw	r2,-16(fp)
  8079f8:	10000c45 	stb	zero,49(r2)
    if (OSLockNesting < 255u) {                         /* Make sure we don't context switch           */
  8079fc:	00802074 	movhi	r2,129
  807a00:	10874704 	addi	r2,r2,7452
  807a04:	10800003 	ldbu	r2,0(r2)
  807a08:	10803fcc 	andi	r2,r2,255
  807a0c:	10803fe0 	cmpeqi	r2,r2,255
  807a10:	1000081e 	bne	r2,zero,807a34 <OSTaskDel+0x280>
        OSLockNesting++;
  807a14:	00802074 	movhi	r2,129
  807a18:	10874704 	addi	r2,r2,7452
  807a1c:	10800003 	ldbu	r2,0(r2)
  807a20:	10800044 	addi	r2,r2,1
  807a24:	1007883a 	mov	r3,r2
  807a28:	00802074 	movhi	r2,129
  807a2c:	10874704 	addi	r2,r2,7452
  807a30:	10c00005 	stb	r3,0(r2)
  807a34:	e0bffb17 	ldw	r2,-20(fp)
  807a38:	e0bff715 	stw	r2,-36(fp)
  807a3c:	e0bff717 	ldw	r2,-36(fp)
  807a40:	1001703a 	wrctl	status,r2
    }
    OS_EXIT_CRITICAL();                                 /* Enabling INT. ignores next instruc.         */
    OS_Dummy();                                         /* ... Dummy ensures that INTs will be         */
  807a44:	0801b580 	call	801b58 <OS_Dummy>
static ALT_INLINE alt_irq_context ALT_ALWAYS_INLINE 
       alt_irq_disable_all (void)
{
  alt_irq_context context;

  NIOS2_READ_STATUS (context);
  807a48:	0005303a 	rdctl	r2,status
  807a4c:	e0bff615 	stw	r2,-40(fp)

  NIOS2_WRITE_STATUS (context & ~NIOS2_STATUS_PIE_MSK);
  807a50:	e0fff617 	ldw	r3,-40(fp)
  807a54:	00bfff84 	movi	r2,-2
  807a58:	1884703a 	and	r2,r3,r2
  807a5c:	1001703a 	wrctl	status,r2
  
  return context;
  807a60:	e0bff617 	ldw	r2,-40(fp)
    OS_ENTER_CRITICAL();                                /* ... disabled HERE!                          */
  807a64:	e0bffb15 	stw	r2,-20(fp)
    if (OSLockNesting > 0) {                            /* Remove context switch lock                  */
  807a68:	00802074 	movhi	r2,129
  807a6c:	10874704 	addi	r2,r2,7452
  807a70:	10800003 	ldbu	r2,0(r2)
  807a74:	10803fcc 	andi	r2,r2,255
  807a78:	1005003a 	cmpeq	r2,r2,zero
  807a7c:	1000081e 	bne	r2,zero,807aa0 <OSTaskDel+0x2ec>
        OSLockNesting--;
  807a80:	00802074 	movhi	r2,129
  807a84:	10874704 	addi	r2,r2,7452
  807a88:	10800003 	ldbu	r2,0(r2)
  807a8c:	10bfffc4 	addi	r2,r2,-1
  807a90:	1007883a 	mov	r3,r2
  807a94:	00802074 	movhi	r2,129
  807a98:	10874704 	addi	r2,r2,7452
  807a9c:	10c00005 	stb	r3,0(r2)
    }
    OSTaskDelHook(ptcb);                                /* Call user defined hook                      */
  807aa0:	e13ffc17 	ldw	r4,-16(fp)
  807aa4:	080b5940 	call	80b594 <OSTaskDelHook>
    OSTaskCtr--;                                        /* One less task being managed                 */
  807aa8:	00802074 	movhi	r2,129
  807aac:	10874f44 	addi	r2,r2,7485
  807ab0:	10800003 	ldbu	r2,0(r2)
  807ab4:	10bfffc4 	addi	r2,r2,-1
  807ab8:	1007883a 	mov	r3,r2
  807abc:	00802074 	movhi	r2,129
  807ac0:	10874f44 	addi	r2,r2,7485
  807ac4:	10c00005 	stb	r3,0(r2)
    OSTCBPrioTbl[prio] = (OS_TCB *)0;                   /* Clear old priority entry                    */
  807ac8:	e0bffe03 	ldbu	r2,-8(fp)
  807acc:	00c020b4 	movhi	r3,130
  807ad0:	18ebe104 	addi	r3,r3,-20604
  807ad4:	1085883a 	add	r2,r2,r2
  807ad8:	1085883a 	add	r2,r2,r2
  807adc:	10c5883a 	add	r2,r2,r3
  807ae0:	10000015 	stw	zero,0(r2)
    if (ptcb->OSTCBPrev == (OS_TCB *)0) {               /* Remove from TCB chain                       */
  807ae4:	e0bffc17 	ldw	r2,-16(fp)
  807ae8:	10800617 	ldw	r2,24(r2)
  807aec:	1004c03a 	cmpne	r2,r2,zero
  807af0:	1000091e 	bne	r2,zero,807b18 <OSTaskDel+0x364>
        ptcb->OSTCBNext->OSTCBPrev = (OS_TCB *)0;
  807af4:	e0bffc17 	ldw	r2,-16(fp)
  807af8:	10800517 	ldw	r2,20(r2)
  807afc:	10000615 	stw	zero,24(r2)
        OSTCBList                  = ptcb->OSTCBNext;
  807b00:	e0bffc17 	ldw	r2,-16(fp)
  807b04:	10c00517 	ldw	r3,20(r2)
  807b08:	00802074 	movhi	r2,129
  807b0c:	10874a04 	addi	r2,r2,7464
  807b10:	10c00015 	stw	r3,0(r2)
  807b14:	00000a06 	br	807b40 <OSTaskDel+0x38c>
    } else {
        ptcb->OSTCBPrev->OSTCBNext = ptcb->OSTCBNext;
  807b18:	e0bffc17 	ldw	r2,-16(fp)
  807b1c:	10c00617 	ldw	r3,24(r2)
  807b20:	e0bffc17 	ldw	r2,-16(fp)
  807b24:	10800517 	ldw	r2,20(r2)
  807b28:	18800515 	stw	r2,20(r3)
        ptcb->OSTCBNext->OSTCBPrev = ptcb->OSTCBPrev;
  807b2c:	e0bffc17 	ldw	r2,-16(fp)
  807b30:	10c00517 	ldw	r3,20(r2)
  807b34:	e0bffc17 	ldw	r2,-16(fp)
  807b38:	10800617 	ldw	r2,24(r2)
  807b3c:	18800615 	stw	r2,24(r3)
    }
    ptcb->OSTCBNext   = OSTCBFreeList;                  /* Return TCB to free TCB list                 */
  807b40:	00802074 	movhi	r2,129
  807b44:	10874e04 	addi	r2,r2,7480
  807b48:	10c00017 	ldw	r3,0(r2)
  807b4c:	e0bffc17 	ldw	r2,-16(fp)
  807b50:	10c00515 	stw	r3,20(r2)
    OSTCBFreeList     = ptcb;
  807b54:	00c02074 	movhi	r3,129
  807b58:	18c74e04 	addi	r3,r3,7480
  807b5c:	e0bffc17 	ldw	r2,-16(fp)
  807b60:	18800015 	stw	r2,0(r3)
#if OS_TASK_NAME_SIZE > 1
    ptcb->OSTCBTaskName[0] = '?';                       /* Unknown name                                */
  807b64:	e0fffc17 	ldw	r3,-16(fp)
  807b68:	00800fc4 	movi	r2,63
  807b6c:	18801305 	stb	r2,76(r3)
    ptcb->OSTCBTaskName[1] = OS_ASCII_NUL;
  807b70:	e0bffc17 	ldw	r2,-16(fp)
  807b74:	10001345 	stb	zero,77(r2)
  807b78:	e0bffb17 	ldw	r2,-20(fp)
  807b7c:	e0bff515 	stw	r2,-44(fp)
  status &= ~NIOS2_STATUS_PIE_MSK;
  status |= (context & NIOS2_STATUS_PIE_MSK);
  
  NIOS2_WRITE_STATUS (status);
#else
  NIOS2_WRITE_STATUS (context);
  807b80:	e0bff517 	ldw	r2,-44(fp)
  807b84:	1001703a 	wrctl	status,r2
#endif
    OS_EXIT_CRITICAL();
    if (OSRunning == OS_TRUE) {
  807b88:	00802074 	movhi	r2,129
  807b8c:	10874744 	addi	r2,r2,7453
  807b90:	10800003 	ldbu	r2,0(r2)
  807b94:	10803fcc 	andi	r2,r2,255
  807b98:	10800058 	cmpnei	r2,r2,1
  807b9c:	1000011e 	bne	r2,zero,807ba4 <OSTaskDel+0x3f0>
        OS_Sched();                                     /* Find new highest priority task              */
  807ba0:	08025b40 	call	8025b4 <OS_Sched>
    }
    return (OS_ERR_NONE);
  807ba4:	e03fff15 	stw	zero,-4(fp)
  807ba8:	e0bfff17 	ldw	r2,-4(fp)
}
  807bac:	e037883a 	mov	sp,fp
  807bb0:	dfc00117 	ldw	ra,4(sp)
  807bb4:	df000017 	ldw	fp,0(sp)
  807bb8:	dec00204 	addi	sp,sp,8
  807bbc:	f800283a 	ret

00807bc0 <OSTaskDelReq>:
*********************************************************************************************************
*/
/*$PAGE*/
#if OS_TASK_DEL_EN > 0
INT8U  OSTaskDelReq (INT8U prio)
{
  807bc0:	defff404 	addi	sp,sp,-48
  807bc4:	df000b15 	stw	fp,44(sp)
  807bc8:	df000b04 	addi	fp,sp,44
  807bcc:	e13ffe05 	stb	r4,-8(fp)
    INT8U      stat;
    OS_TCB    *ptcb;
#if OS_CRITICAL_METHOD == 3                      /* Allocate storage for CPU status register           */
    OS_CPU_SR  cpu_sr = 0;
  807bd0:	e03ffb15 	stw	zero,-20(fp)
#endif



    if (prio == OS_TASK_IDLE_PRIO) {                            /* Not allowed to delete idle task     */
  807bd4:	e0bffe03 	ldbu	r2,-8(fp)
  807bd8:	10800518 	cmpnei	r2,r2,20
  807bdc:	1000031e 	bne	r2,zero,807bec <OSTaskDelReq+0x2c>
        return (OS_ERR_TASK_DEL_IDLE);
  807be0:	00800f84 	movi	r2,62
  807be4:	e0bfff15 	stw	r2,-4(fp)
  807be8:	00004c06 	br	807d1c <OSTaskDelReq+0x15c>
    }
#if OS_ARG_CHK_EN > 0
    if (prio >= OS_LOWEST_PRIO) {                               /* Task priority valid ?               */
  807bec:	e0bffe03 	ldbu	r2,-8(fp)
  807bf0:	10800530 	cmpltui	r2,r2,20
  807bf4:	1000061e 	bne	r2,zero,807c10 <OSTaskDelReq+0x50>
        if (prio != OS_PRIO_SELF) {
  807bf8:	e0bffe03 	ldbu	r2,-8(fp)
  807bfc:	10803fe0 	cmpeqi	r2,r2,255
  807c00:	1000031e 	bne	r2,zero,807c10 <OSTaskDelReq+0x50>
            return (OS_ERR_PRIO_INVALID);
  807c04:	00800a84 	movi	r2,42
  807c08:	e0bfff15 	stw	r2,-4(fp)
  807c0c:	00004306 	br	807d1c <OSTaskDelReq+0x15c>
        }
    }
#endif
    if (prio == OS_PRIO_SELF) {                                 /* See if a task is requesting to ...  */
  807c10:	e0bffe03 	ldbu	r2,-8(fp)
  807c14:	10803fd8 	cmpnei	r2,r2,255
  807c18:	1000141e 	bne	r2,zero,807c6c <OSTaskDelReq+0xac>
static ALT_INLINE alt_irq_context ALT_ALWAYS_INLINE 
       alt_irq_disable_all (void)
{
  alt_irq_context context;

  NIOS2_READ_STATUS (context);
  807c1c:	0005303a 	rdctl	r2,status
  807c20:	e0bffa15 	stw	r2,-24(fp)

  NIOS2_WRITE_STATUS (context & ~NIOS2_STATUS_PIE_MSK);
  807c24:	e0fffa17 	ldw	r3,-24(fp)
  807c28:	00bfff84 	movi	r2,-2
  807c2c:	1884703a 	and	r2,r3,r2
  807c30:	1001703a 	wrctl	status,r2
  
  return context;
  807c34:	e0bffa17 	ldw	r2,-24(fp)
        OS_ENTER_CRITICAL();                                    /* ... this task to delete itself      */
  807c38:	e0bffb15 	stw	r2,-20(fp)
        stat = OSTCBCur->OSTCBDelReq;                           /* Return request status to caller     */
  807c3c:	00802074 	movhi	r2,129
  807c40:	10875604 	addi	r2,r2,7512
  807c44:	10800017 	ldw	r2,0(r2)
  807c48:	10800dc3 	ldbu	r2,55(r2)
  807c4c:	e0bffd05 	stb	r2,-12(fp)
  807c50:	e0bffb17 	ldw	r2,-20(fp)
  807c54:	e0bff915 	stw	r2,-28(fp)
  status &= ~NIOS2_STATUS_PIE_MSK;
  status |= (context & NIOS2_STATUS_PIE_MSK);
  
  NIOS2_WRITE_STATUS (status);
#else
  NIOS2_WRITE_STATUS (context);
  807c58:	e0bff917 	ldw	r2,-28(fp)
  807c5c:	1001703a 	wrctl	status,r2
        OS_EXIT_CRITICAL();
        return (stat);
  807c60:	e0bffd03 	ldbu	r2,-12(fp)
  807c64:	e0bfff15 	stw	r2,-4(fp)
  807c68:	00002c06 	br	807d1c <OSTaskDelReq+0x15c>
static ALT_INLINE alt_irq_context ALT_ALWAYS_INLINE 
       alt_irq_disable_all (void)
{
  alt_irq_context context;

  NIOS2_READ_STATUS (context);
  807c6c:	0005303a 	rdctl	r2,status
  807c70:	e0bff815 	stw	r2,-32(fp)

  NIOS2_WRITE_STATUS (context & ~NIOS2_STATUS_PIE_MSK);
  807c74:	e0fff817 	ldw	r3,-32(fp)
  807c78:	00bfff84 	movi	r2,-2
  807c7c:	1884703a 	and	r2,r3,r2
  807c80:	1001703a 	wrctl	status,r2
  
  return context;
  807c84:	e0bff817 	ldw	r2,-32(fp)
    }
    OS_ENTER_CRITICAL();
  807c88:	e0bffb15 	stw	r2,-20(fp)
    ptcb = OSTCBPrioTbl[prio];
  807c8c:	e0bffe03 	ldbu	r2,-8(fp)
  807c90:	00c020b4 	movhi	r3,130
  807c94:	18ebe104 	addi	r3,r3,-20604
  807c98:	1085883a 	add	r2,r2,r2
  807c9c:	1085883a 	add	r2,r2,r2
  807ca0:	10c5883a 	add	r2,r2,r3
  807ca4:	10800017 	ldw	r2,0(r2)
  807ca8:	e0bffc15 	stw	r2,-16(fp)
    if (ptcb == (OS_TCB *)0) {                                  /* Task to delete must exist           */
  807cac:	e0bffc17 	ldw	r2,-16(fp)
  807cb0:	1004c03a 	cmpne	r2,r2,zero
  807cb4:	1000071e 	bne	r2,zero,807cd4 <OSTaskDelReq+0x114>
  807cb8:	e0bffb17 	ldw	r2,-20(fp)
  807cbc:	e0bff715 	stw	r2,-36(fp)
  status &= ~NIOS2_STATUS_PIE_MSK;
  status |= (context & NIOS2_STATUS_PIE_MSK);
  
  NIOS2_WRITE_STATUS (status);
#else
  NIOS2_WRITE_STATUS (context);
  807cc0:	e0bff717 	ldw	r2,-36(fp)
  807cc4:	1001703a 	wrctl	status,r2
        OS_EXIT_CRITICAL();
        return (OS_ERR_TASK_NOT_EXIST);                         /* Task must already be deleted        */
  807cc8:	008010c4 	movi	r2,67
  807ccc:	e0bfff15 	stw	r2,-4(fp)
  807cd0:	00001206 	br	807d1c <OSTaskDelReq+0x15c>
    }
    if (ptcb == OS_TCB_RESERVED) {                              /* Must NOT be assigned to a Mutex     */
  807cd4:	e0bffc17 	ldw	r2,-16(fp)
  807cd8:	10800058 	cmpnei	r2,r2,1
  807cdc:	1000071e 	bne	r2,zero,807cfc <OSTaskDelReq+0x13c>
  807ce0:	e0bffb17 	ldw	r2,-20(fp)
  807ce4:	e0bff615 	stw	r2,-40(fp)
  807ce8:	e0bff617 	ldw	r2,-40(fp)
  807cec:	1001703a 	wrctl	status,r2
        OS_EXIT_CRITICAL();
        return (OS_ERR_TASK_DEL);
  807cf0:	00800f44 	movi	r2,61
  807cf4:	e0bfff15 	stw	r2,-4(fp)
  807cf8:	00000806 	br	807d1c <OSTaskDelReq+0x15c>
    }
    ptcb->OSTCBDelReq = OS_ERR_TASK_DEL_REQ;                    /* Set flag indicating task to be DEL. */
  807cfc:	e0fffc17 	ldw	r3,-16(fp)
  807d00:	00800fc4 	movi	r2,63
  807d04:	18800dc5 	stb	r2,55(r3)
  807d08:	e0bffb17 	ldw	r2,-20(fp)
  807d0c:	e0bff515 	stw	r2,-44(fp)
  807d10:	e0bff517 	ldw	r2,-44(fp)
  807d14:	1001703a 	wrctl	status,r2
    OS_EXIT_CRITICAL();
    return (OS_ERR_NONE);
  807d18:	e03fff15 	stw	zero,-4(fp)
  807d1c:	e0bfff17 	ldw	r2,-4(fp)
}
  807d20:	e037883a 	mov	sp,fp
  807d24:	df000017 	ldw	fp,0(sp)
  807d28:	dec00104 	addi	sp,sp,4
  807d2c:	f800283a 	ret

00807d30 <OSTaskNameGet>:
*********************************************************************************************************
*/

#if OS_TASK_NAME_SIZE > 1
INT8U  OSTaskNameGet (INT8U prio, INT8U *pname, INT8U *perr)
{
  807d30:	defff304 	addi	sp,sp,-52
  807d34:	dfc00c15 	stw	ra,48(sp)
  807d38:	df000b15 	stw	fp,44(sp)
  807d3c:	df000b04 	addi	fp,sp,44
  807d40:	e17ffd15 	stw	r5,-12(fp)
  807d44:	e1bffe15 	stw	r6,-8(fp)
  807d48:	e13ffc05 	stb	r4,-16(fp)
    OS_TCB    *ptcb;
    INT8U      len;
#if OS_CRITICAL_METHOD == 3                              /* Allocate storage for CPU status register   */
    OS_CPU_SR  cpu_sr = 0;
  807d4c:	e03ff915 	stw	zero,-28(fp)
#endif



#if OS_ARG_CHK_EN > 0
    if (perr == (INT8U *)0) {                            /* Validate 'perr'                            */
  807d50:	e0bffe17 	ldw	r2,-8(fp)
  807d54:	1004c03a 	cmpne	r2,r2,zero
  807d58:	1000021e 	bne	r2,zero,807d64 <OSTaskNameGet+0x34>
        return (0);
  807d5c:	e03fff15 	stw	zero,-4(fp)
  807d60:	00005b06 	br	807ed0 <OSTaskNameGet+0x1a0>
    }
    if (prio > OS_LOWEST_PRIO) {                         /* Task priority valid ?                      */
  807d64:	e0bffc03 	ldbu	r2,-16(fp)
  807d68:	10800570 	cmpltui	r2,r2,21
  807d6c:	1000081e 	bne	r2,zero,807d90 <OSTaskNameGet+0x60>
        if (prio != OS_PRIO_SELF) {
  807d70:	e0bffc03 	ldbu	r2,-16(fp)
  807d74:	10803fe0 	cmpeqi	r2,r2,255
  807d78:	1000051e 	bne	r2,zero,807d90 <OSTaskNameGet+0x60>
            *perr = OS_ERR_PRIO_INVALID;                 /* No                                         */
  807d7c:	e0fffe17 	ldw	r3,-8(fp)
  807d80:	00800a84 	movi	r2,42
  807d84:	18800005 	stb	r2,0(r3)
            return (0);
  807d88:	e03fff15 	stw	zero,-4(fp)
  807d8c:	00005006 	br	807ed0 <OSTaskNameGet+0x1a0>
        }
    }
    if (pname == (INT8U *)0) {                           /* Is 'pname' a NULL pointer?                 */
  807d90:	e0bffd17 	ldw	r2,-12(fp)
  807d94:	1004c03a 	cmpne	r2,r2,zero
  807d98:	1000051e 	bne	r2,zero,807db0 <OSTaskNameGet+0x80>
        *perr = OS_ERR_PNAME_NULL;                       /* Yes                                        */
  807d9c:	e0fffe17 	ldw	r3,-8(fp)
  807da0:	00800304 	movi	r2,12
  807da4:	18800005 	stb	r2,0(r3)
        return (0);
  807da8:	e03fff15 	stw	zero,-4(fp)
  807dac:	00004806 	br	807ed0 <OSTaskNameGet+0x1a0>
    }
#endif
    if (OSIntNesting > 0) {                              /* See if trying to call from an ISR          */
  807db0:	00802074 	movhi	r2,129
  807db4:	10875504 	addi	r2,r2,7508
  807db8:	10800003 	ldbu	r2,0(r2)
  807dbc:	10803fcc 	andi	r2,r2,255
  807dc0:	1005003a 	cmpeq	r2,r2,zero
  807dc4:	1000051e 	bne	r2,zero,807ddc <OSTaskNameGet+0xac>
        *perr = OS_ERR_NAME_GET_ISR;
  807dc8:	e0fffe17 	ldw	r3,-8(fp)
  807dcc:	00800444 	movi	r2,17
  807dd0:	18800005 	stb	r2,0(r3)
        return (0);
  807dd4:	e03fff15 	stw	zero,-4(fp)
  807dd8:	00003d06 	br	807ed0 <OSTaskNameGet+0x1a0>
static ALT_INLINE alt_irq_context ALT_ALWAYS_INLINE 
       alt_irq_disable_all (void)
{
  alt_irq_context context;

  NIOS2_READ_STATUS (context);
  807ddc:	0005303a 	rdctl	r2,status
  807de0:	e0bff815 	stw	r2,-32(fp)

  NIOS2_WRITE_STATUS (context & ~NIOS2_STATUS_PIE_MSK);
  807de4:	e0fff817 	ldw	r3,-32(fp)
  807de8:	00bfff84 	movi	r2,-2
  807dec:	1884703a 	and	r2,r3,r2
  807df0:	1001703a 	wrctl	status,r2
  
  return context;
  807df4:	e0bff817 	ldw	r2,-32(fp)
    }
    OS_ENTER_CRITICAL();
  807df8:	e0bff915 	stw	r2,-28(fp)
    if (prio == OS_PRIO_SELF) {                          /* See if caller desires it's own name        */
  807dfc:	e0bffc03 	ldbu	r2,-16(fp)
  807e00:	10803fd8 	cmpnei	r2,r2,255
  807e04:	1000051e 	bne	r2,zero,807e1c <OSTaskNameGet+0xec>
        prio = OSTCBCur->OSTCBPrio;
  807e08:	00802074 	movhi	r2,129
  807e0c:	10875604 	addi	r2,r2,7512
  807e10:	10800017 	ldw	r2,0(r2)
  807e14:	10800c83 	ldbu	r2,50(r2)
  807e18:	e0bffc05 	stb	r2,-16(fp)
    }
    ptcb = OSTCBPrioTbl[prio];
  807e1c:	e0bffc03 	ldbu	r2,-16(fp)
  807e20:	00c020b4 	movhi	r3,130
  807e24:	18ebe104 	addi	r3,r3,-20604
  807e28:	1085883a 	add	r2,r2,r2
  807e2c:	1085883a 	add	r2,r2,r2
  807e30:	10c5883a 	add	r2,r2,r3
  807e34:	10800017 	ldw	r2,0(r2)
  807e38:	e0bffb15 	stw	r2,-20(fp)
    if (ptcb == (OS_TCB *)0) {                           /* Does task exist?                           */
  807e3c:	e0bffb17 	ldw	r2,-20(fp)
  807e40:	1004c03a 	cmpne	r2,r2,zero
  807e44:	1000091e 	bne	r2,zero,807e6c <OSTaskNameGet+0x13c>
  807e48:	e0bff917 	ldw	r2,-28(fp)
  807e4c:	e0bff715 	stw	r2,-36(fp)
  status &= ~NIOS2_STATUS_PIE_MSK;
  status |= (context & NIOS2_STATUS_PIE_MSK);
  
  NIOS2_WRITE_STATUS (status);
#else
  NIOS2_WRITE_STATUS (context);
  807e50:	e0bff717 	ldw	r2,-36(fp)
  807e54:	1001703a 	wrctl	status,r2
        OS_EXIT_CRITICAL();                              /* No                                         */
        *perr = OS_ERR_TASK_NOT_EXIST;
  807e58:	e0fffe17 	ldw	r3,-8(fp)
  807e5c:	008010c4 	movi	r2,67
  807e60:	18800005 	stb	r2,0(r3)
        return (0);
  807e64:	e03fff15 	stw	zero,-4(fp)
  807e68:	00001906 	br	807ed0 <OSTaskNameGet+0x1a0>
    }
    if (ptcb == OS_TCB_RESERVED) {                       /* Task assigned to a Mutex?                  */
  807e6c:	e0bffb17 	ldw	r2,-20(fp)
  807e70:	10800058 	cmpnei	r2,r2,1
  807e74:	1000091e 	bne	r2,zero,807e9c <OSTaskNameGet+0x16c>
  807e78:	e0bff917 	ldw	r2,-28(fp)
  807e7c:	e0bff615 	stw	r2,-40(fp)
  807e80:	e0bff617 	ldw	r2,-40(fp)
  807e84:	1001703a 	wrctl	status,r2
        OS_EXIT_CRITICAL();                              /* Yes                                        */
        *perr = OS_ERR_TASK_NOT_EXIST;
  807e88:	e0fffe17 	ldw	r3,-8(fp)
  807e8c:	008010c4 	movi	r2,67
  807e90:	18800005 	stb	r2,0(r3)
        return (0);
  807e94:	e03fff15 	stw	zero,-4(fp)
  807e98:	00000d06 	br	807ed0 <OSTaskNameGet+0x1a0>
    }
    len   = OS_StrCopy(pname, ptcb->OSTCBTaskName);      /* Yes, copy name from TCB                    */
  807e9c:	e0bffb17 	ldw	r2,-20(fp)
  807ea0:	11401304 	addi	r5,r2,76
  807ea4:	e13ffd17 	ldw	r4,-12(fp)
  807ea8:	08026f80 	call	8026f8 <OS_StrCopy>
  807eac:	e0bffa05 	stb	r2,-24(fp)
  807eb0:	e0bff917 	ldw	r2,-28(fp)
  807eb4:	e0bff515 	stw	r2,-44(fp)
  807eb8:	e0bff517 	ldw	r2,-44(fp)
  807ebc:	1001703a 	wrctl	status,r2
    OS_EXIT_CRITICAL();
    *perr = OS_ERR_NONE;
  807ec0:	e0bffe17 	ldw	r2,-8(fp)
  807ec4:	10000005 	stb	zero,0(r2)
    return (len);
  807ec8:	e0bffa03 	ldbu	r2,-24(fp)
  807ecc:	e0bfff15 	stw	r2,-4(fp)
  807ed0:	e0bfff17 	ldw	r2,-4(fp)
}
  807ed4:	e037883a 	mov	sp,fp
  807ed8:	dfc00117 	ldw	ra,4(sp)
  807edc:	df000017 	ldw	fp,0(sp)
  807ee0:	dec00204 	addi	sp,sp,8
  807ee4:	f800283a 	ret

00807ee8 <OSTaskNameSet>:
* Returns    : None
*********************************************************************************************************
*/
#if OS_TASK_NAME_SIZE > 1
void  OSTaskNameSet (INT8U prio, INT8U *pname, INT8U *perr)
{
  807ee8:	defff304 	addi	sp,sp,-52
  807eec:	dfc00c15 	stw	ra,48(sp)
  807ef0:	df000b15 	stw	fp,44(sp)
  807ef4:	df000b04 	addi	fp,sp,44
  807ef8:	e17ffe15 	stw	r5,-8(fp)
  807efc:	e1bfff15 	stw	r6,-4(fp)
  807f00:	e13ffd05 	stb	r4,-12(fp)
    INT8U      len;
    OS_TCB    *ptcb;
#if OS_CRITICAL_METHOD == 3                          /* Allocate storage for CPU status register       */
    OS_CPU_SR  cpu_sr = 0;
  807f04:	e03ffa15 	stw	zero,-24(fp)
#endif



#if OS_ARG_CHK_EN > 0
    if (perr == (INT8U *)0) {                        /* Validate 'perr'                                */
  807f08:	e0bfff17 	ldw	r2,-4(fp)
  807f0c:	1005003a 	cmpeq	r2,r2,zero
  807f10:	1000611e 	bne	r2,zero,808098 <OSTaskNameSet+0x1b0>
        return;
    }
    if (prio > OS_LOWEST_PRIO) {                     /* Task priority valid ?                          */
  807f14:	e0bffd03 	ldbu	r2,-12(fp)
  807f18:	10800570 	cmpltui	r2,r2,21
  807f1c:	1000071e 	bne	r2,zero,807f3c <OSTaskNameSet+0x54>
        if (prio != OS_PRIO_SELF) {
  807f20:	e0bffd03 	ldbu	r2,-12(fp)
  807f24:	10803fe0 	cmpeqi	r2,r2,255
  807f28:	1000041e 	bne	r2,zero,807f3c <OSTaskNameSet+0x54>
            *perr = OS_ERR_PRIO_INVALID;             /* No                                             */
  807f2c:	e0ffff17 	ldw	r3,-4(fp)
  807f30:	00800a84 	movi	r2,42
  807f34:	18800005 	stb	r2,0(r3)
            return;
  807f38:	00005706 	br	808098 <OSTaskNameSet+0x1b0>
        }
    }
    if (pname == (INT8U *)0) {                       /* Is 'pname' a NULL pointer?                     */
  807f3c:	e0bffe17 	ldw	r2,-8(fp)
  807f40:	1004c03a 	cmpne	r2,r2,zero
  807f44:	1000041e 	bne	r2,zero,807f58 <OSTaskNameSet+0x70>
        *perr = OS_ERR_PNAME_NULL;                   /* Yes                                            */
  807f48:	e0ffff17 	ldw	r3,-4(fp)
  807f4c:	00800304 	movi	r2,12
  807f50:	18800005 	stb	r2,0(r3)
        return;
  807f54:	00005006 	br	808098 <OSTaskNameSet+0x1b0>
    }
#endif
    if (OSIntNesting > 0) {                          /* See if trying to call from an ISR              */
  807f58:	00802074 	movhi	r2,129
  807f5c:	10875504 	addi	r2,r2,7508
  807f60:	10800003 	ldbu	r2,0(r2)
  807f64:	10803fcc 	andi	r2,r2,255
  807f68:	1005003a 	cmpeq	r2,r2,zero
  807f6c:	1000041e 	bne	r2,zero,807f80 <OSTaskNameSet+0x98>
        *perr = OS_ERR_NAME_SET_ISR;
  807f70:	e0ffff17 	ldw	r3,-4(fp)
  807f74:	00800484 	movi	r2,18
  807f78:	18800005 	stb	r2,0(r3)
        return;
  807f7c:	00004606 	br	808098 <OSTaskNameSet+0x1b0>
static ALT_INLINE alt_irq_context ALT_ALWAYS_INLINE 
       alt_irq_disable_all (void)
{
  alt_irq_context context;

  NIOS2_READ_STATUS (context);
  807f80:	0005303a 	rdctl	r2,status
  807f84:	e0bff915 	stw	r2,-28(fp)

  NIOS2_WRITE_STATUS (context & ~NIOS2_STATUS_PIE_MSK);
  807f88:	e0fff917 	ldw	r3,-28(fp)
  807f8c:	00bfff84 	movi	r2,-2
  807f90:	1884703a 	and	r2,r3,r2
  807f94:	1001703a 	wrctl	status,r2
  
  return context;
  807f98:	e0bff917 	ldw	r2,-28(fp)
    }
    OS_ENTER_CRITICAL();
  807f9c:	e0bffa15 	stw	r2,-24(fp)
    if (prio == OS_PRIO_SELF) {                      /* See if caller desires to set it's own name     */
  807fa0:	e0bffd03 	ldbu	r2,-12(fp)
  807fa4:	10803fd8 	cmpnei	r2,r2,255
  807fa8:	1000051e 	bne	r2,zero,807fc0 <OSTaskNameSet+0xd8>
        prio = OSTCBCur->OSTCBPrio;
  807fac:	00802074 	movhi	r2,129
  807fb0:	10875604 	addi	r2,r2,7512
  807fb4:	10800017 	ldw	r2,0(r2)
  807fb8:	10800c83 	ldbu	r2,50(r2)
  807fbc:	e0bffd05 	stb	r2,-12(fp)
    }
    ptcb = OSTCBPrioTbl[prio];
  807fc0:	e0bffd03 	ldbu	r2,-12(fp)
  807fc4:	00c020b4 	movhi	r3,130
  807fc8:	18ebe104 	addi	r3,r3,-20604
  807fcc:	1085883a 	add	r2,r2,r2
  807fd0:	1085883a 	add	r2,r2,r2
  807fd4:	10c5883a 	add	r2,r2,r3
  807fd8:	10800017 	ldw	r2,0(r2)
  807fdc:	e0bffb15 	stw	r2,-20(fp)
    if (ptcb == (OS_TCB *)0) {                       /* Does task exist?                               */
  807fe0:	e0bffb17 	ldw	r2,-20(fp)
  807fe4:	1004c03a 	cmpne	r2,r2,zero
  807fe8:	1000081e 	bne	r2,zero,80800c <OSTaskNameSet+0x124>
  807fec:	e0bffa17 	ldw	r2,-24(fp)
  807ff0:	e0bff815 	stw	r2,-32(fp)
  status &= ~NIOS2_STATUS_PIE_MSK;
  status |= (context & NIOS2_STATUS_PIE_MSK);
  
  NIOS2_WRITE_STATUS (status);
#else
  NIOS2_WRITE_STATUS (context);
  807ff4:	e0bff817 	ldw	r2,-32(fp)
  807ff8:	1001703a 	wrctl	status,r2
        OS_EXIT_CRITICAL();                          /* No                                             */
        *perr = OS_ERR_TASK_NOT_EXIST;
  807ffc:	e0ffff17 	ldw	r3,-4(fp)
  808000:	008010c4 	movi	r2,67
  808004:	18800005 	stb	r2,0(r3)
        return;
  808008:	00002306 	br	808098 <OSTaskNameSet+0x1b0>
    }
    if (ptcb == OS_TCB_RESERVED) {                   /* Task assigned to a Mutex?                      */
  80800c:	e0bffb17 	ldw	r2,-20(fp)
  808010:	10800058 	cmpnei	r2,r2,1
  808014:	1000081e 	bne	r2,zero,808038 <OSTaskNameSet+0x150>
  808018:	e0bffa17 	ldw	r2,-24(fp)
  80801c:	e0bff715 	stw	r2,-36(fp)
  808020:	e0bff717 	ldw	r2,-36(fp)
  808024:	1001703a 	wrctl	status,r2
        OS_EXIT_CRITICAL();                          /* Yes                                            */
        *perr = OS_ERR_TASK_NOT_EXIST;
  808028:	e0ffff17 	ldw	r3,-4(fp)
  80802c:	008010c4 	movi	r2,67
  808030:	18800005 	stb	r2,0(r3)
        return;
  808034:	00001806 	br	808098 <OSTaskNameSet+0x1b0>
    }
    len = OS_StrLen(pname);                          /* Yes, Can we fit the string in the TCB?         */
  808038:	e13ffe17 	ldw	r4,-8(fp)
  80803c:	08027780 	call	802778 <OS_StrLen>
  808040:	e0bffc05 	stb	r2,-16(fp)
    if (len > (OS_TASK_NAME_SIZE - 1)) {             /*      No                                        */
  808044:	e0bffc03 	ldbu	r2,-16(fp)
  808048:	10800830 	cmpltui	r2,r2,32
  80804c:	1000081e 	bne	r2,zero,808070 <OSTaskNameSet+0x188>
  808050:	e0bffa17 	ldw	r2,-24(fp)
  808054:	e0bff615 	stw	r2,-40(fp)
  808058:	e0bff617 	ldw	r2,-40(fp)
  80805c:	1001703a 	wrctl	status,r2
        OS_EXIT_CRITICAL();
        *perr = OS_ERR_TASK_NAME_TOO_LONG;
  808060:	e0ffff17 	ldw	r3,-4(fp)
  808064:	00801044 	movi	r2,65
  808068:	18800005 	stb	r2,0(r3)
        return;
  80806c:	00000a06 	br	808098 <OSTaskNameSet+0x1b0>
    }
    (void)OS_StrCopy(ptcb->OSTCBTaskName, pname);    /*      Yes, copy to TCB                          */
  808070:	e0bffb17 	ldw	r2,-20(fp)
  808074:	11001304 	addi	r4,r2,76
  808078:	e17ffe17 	ldw	r5,-8(fp)
  80807c:	08026f80 	call	8026f8 <OS_StrCopy>
  808080:	e0bffa17 	ldw	r2,-24(fp)
  808084:	e0bff515 	stw	r2,-44(fp)
  808088:	e0bff517 	ldw	r2,-44(fp)
  80808c:	1001703a 	wrctl	status,r2
    OS_EXIT_CRITICAL();
    *perr = OS_ERR_NONE;
  808090:	e0bfff17 	ldw	r2,-4(fp)
  808094:	10000005 	stb	zero,0(r2)
}
  808098:	e037883a 	mov	sp,fp
  80809c:	dfc00117 	ldw	ra,4(sp)
  8080a0:	df000017 	ldw	fp,0(sp)
  8080a4:	dec00204 	addi	sp,sp,8
  8080a8:	f800283a 	ret

008080ac <OSTaskResume>:
*********************************************************************************************************
*/

#if OS_TASK_SUSPEND_EN > 0
INT8U  OSTaskResume (INT8U prio)
{
  8080ac:	defff304 	addi	sp,sp,-52
  8080b0:	dfc00c15 	stw	ra,48(sp)
  8080b4:	df000b15 	stw	fp,44(sp)
  8080b8:	df000b04 	addi	fp,sp,44
  8080bc:	e13ffe05 	stb	r4,-8(fp)
    OS_TCB    *ptcb;
#if OS_CRITICAL_METHOD == 3                                   /* Storage for CPU status register       */
    OS_CPU_SR  cpu_sr = 0;
  8080c0:	e03ffc15 	stw	zero,-16(fp)
#endif



#if OS_ARG_CHK_EN > 0
    if (prio >= OS_LOWEST_PRIO) {                             /* Make sure task priority is valid      */
  8080c4:	e0bffe03 	ldbu	r2,-8(fp)
  8080c8:	10800530 	cmpltui	r2,r2,20
  8080cc:	1000031e 	bne	r2,zero,8080dc <OSTaskResume+0x30>
        return (OS_ERR_PRIO_INVALID);
  8080d0:	00800a84 	movi	r2,42
  8080d4:	e0bfff15 	stw	r2,-4(fp)
  8080d8:	00007406 	br	8082ac <OSTaskResume+0x200>
static ALT_INLINE alt_irq_context ALT_ALWAYS_INLINE 
       alt_irq_disable_all (void)
{
  alt_irq_context context;

  NIOS2_READ_STATUS (context);
  8080dc:	0005303a 	rdctl	r2,status
  8080e0:	e0bffb15 	stw	r2,-20(fp)

  NIOS2_WRITE_STATUS (context & ~NIOS2_STATUS_PIE_MSK);
  8080e4:	e0fffb17 	ldw	r3,-20(fp)
  8080e8:	00bfff84 	movi	r2,-2
  8080ec:	1884703a 	and	r2,r3,r2
  8080f0:	1001703a 	wrctl	status,r2
  
  return context;
  8080f4:	e0bffb17 	ldw	r2,-20(fp)
    }
#endif
    OS_ENTER_CRITICAL();
  8080f8:	e0bffc15 	stw	r2,-16(fp)
    ptcb = OSTCBPrioTbl[prio];
  8080fc:	e0bffe03 	ldbu	r2,-8(fp)
  808100:	00c020b4 	movhi	r3,130
  808104:	18ebe104 	addi	r3,r3,-20604
  808108:	1085883a 	add	r2,r2,r2
  80810c:	1085883a 	add	r2,r2,r2
  808110:	10c5883a 	add	r2,r2,r3
  808114:	10800017 	ldw	r2,0(r2)
  808118:	e0bffd15 	stw	r2,-12(fp)
    if (ptcb == (OS_TCB *)0) {                                /* Task to suspend must exist            */
  80811c:	e0bffd17 	ldw	r2,-12(fp)
  808120:	1004c03a 	cmpne	r2,r2,zero
  808124:	1000071e 	bne	r2,zero,808144 <OSTaskResume+0x98>
  808128:	e0bffc17 	ldw	r2,-16(fp)
  80812c:	e0bffa15 	stw	r2,-24(fp)
  status &= ~NIOS2_STATUS_PIE_MSK;
  status |= (context & NIOS2_STATUS_PIE_MSK);
  
  NIOS2_WRITE_STATUS (status);
#else
  NIOS2_WRITE_STATUS (context);
  808130:	e0bffa17 	ldw	r2,-24(fp)
  808134:	1001703a 	wrctl	status,r2
        OS_EXIT_CRITICAL();
        return (OS_ERR_TASK_RESUME_PRIO);
  808138:	00801184 	movi	r2,70
  80813c:	e0bfff15 	stw	r2,-4(fp)
  808140:	00005a06 	br	8082ac <OSTaskResume+0x200>
    }
    if (ptcb == OS_TCB_RESERVED) {                            /* See if assigned to Mutex              */
  808144:	e0bffd17 	ldw	r2,-12(fp)
  808148:	10800058 	cmpnei	r2,r2,1
  80814c:	1000071e 	bne	r2,zero,80816c <OSTaskResume+0xc0>
  808150:	e0bffc17 	ldw	r2,-16(fp)
  808154:	e0bff915 	stw	r2,-28(fp)
  808158:	e0bff917 	ldw	r2,-28(fp)
  80815c:	1001703a 	wrctl	status,r2
        OS_EXIT_CRITICAL();
        return (OS_ERR_TASK_NOT_EXIST);
  808160:	008010c4 	movi	r2,67
  808164:	e0bfff15 	stw	r2,-4(fp)
  808168:	00005006 	br	8082ac <OSTaskResume+0x200>
    }
    if ((ptcb->OSTCBStat & OS_STAT_SUSPEND) != OS_STAT_RDY) { /* Task must be suspended                */
  80816c:	e0bffd17 	ldw	r2,-12(fp)
  808170:	10800c03 	ldbu	r2,48(r2)
  808174:	10803fcc 	andi	r2,r2,255
  808178:	1080020c 	andi	r2,r2,8
  80817c:	1005003a 	cmpeq	r2,r2,zero
  808180:	1000441e 	bne	r2,zero,808294 <OSTaskResume+0x1e8>
        ptcb->OSTCBStat &= ~(INT8U)OS_STAT_SUSPEND;           /* Remove suspension                     */
  808184:	e0bffd17 	ldw	r2,-12(fp)
  808188:	10c00c03 	ldbu	r3,48(r2)
  80818c:	00bffdc4 	movi	r2,-9
  808190:	1884703a 	and	r2,r3,r2
  808194:	1007883a 	mov	r3,r2
  808198:	e0bffd17 	ldw	r2,-12(fp)
  80819c:	10c00c05 	stb	r3,48(r2)
        if (ptcb->OSTCBStat == OS_STAT_RDY) {                 /* See if task is now ready              */
  8081a0:	e0bffd17 	ldw	r2,-12(fp)
  8081a4:	10800c03 	ldbu	r2,48(r2)
  8081a8:	10803fcc 	andi	r2,r2,255
  8081ac:	1004c03a 	cmpne	r2,r2,zero
  8081b0:	1000321e 	bne	r2,zero,80827c <OSTaskResume+0x1d0>
            if (ptcb->OSTCBDly == 0) {
  8081b4:	e0bffd17 	ldw	r2,-12(fp)
  8081b8:	10800b8b 	ldhu	r2,46(r2)
  8081bc:	10bfffcc 	andi	r2,r2,65535
  8081c0:	1004c03a 	cmpne	r2,r2,zero
  8081c4:	1000281e 	bne	r2,zero,808268 <OSTaskResume+0x1bc>
                OSRdyGrp               |= ptcb->OSTCBBitY;    /* Yes, Make task ready to run           */
  8081c8:	e0bffd17 	ldw	r2,-12(fp)
  8081cc:	10c00d83 	ldbu	r3,54(r2)
  8081d0:	00802074 	movhi	r2,129
  8081d4:	10875304 	addi	r2,r2,7500
  8081d8:	10800003 	ldbu	r2,0(r2)
  8081dc:	1884b03a 	or	r2,r3,r2
  8081e0:	1007883a 	mov	r3,r2
  8081e4:	00802074 	movhi	r2,129
  8081e8:	10875304 	addi	r2,r2,7500
  8081ec:	10c00005 	stb	r3,0(r2)
                OSRdyTbl[ptcb->OSTCBY] |= ptcb->OSTCBBitX;
  8081f0:	e0bffd17 	ldw	r2,-12(fp)
  8081f4:	10800d03 	ldbu	r2,52(r2)
  8081f8:	11003fcc 	andi	r4,r2,255
  8081fc:	e0bffd17 	ldw	r2,-12(fp)
  808200:	10800d03 	ldbu	r2,52(r2)
  808204:	10c03fcc 	andi	r3,r2,255
  808208:	00802074 	movhi	r2,129
  80820c:	10875344 	addi	r2,r2,7501
  808210:	10c5883a 	add	r2,r2,r3
  808214:	10c00003 	ldbu	r3,0(r2)
  808218:	e0bffd17 	ldw	r2,-12(fp)
  80821c:	10800d43 	ldbu	r2,53(r2)
  808220:	1884b03a 	or	r2,r3,r2
  808224:	1007883a 	mov	r3,r2
  808228:	00802074 	movhi	r2,129
  80822c:	10875344 	addi	r2,r2,7501
  808230:	1105883a 	add	r2,r2,r4
  808234:	10c00005 	stb	r3,0(r2)
  808238:	e0bffc17 	ldw	r2,-16(fp)
  80823c:	e0bff815 	stw	r2,-32(fp)
  808240:	e0bff817 	ldw	r2,-32(fp)
  808244:	1001703a 	wrctl	status,r2
                OS_EXIT_CRITICAL();
                if (OSRunning == OS_TRUE) {
  808248:	00802074 	movhi	r2,129
  80824c:	10874744 	addi	r2,r2,7453
  808250:	10800003 	ldbu	r2,0(r2)
  808254:	10803fcc 	andi	r2,r2,255
  808258:	10800058 	cmpnei	r2,r2,1
  80825c:	10000b1e 	bne	r2,zero,80828c <OSTaskResume+0x1e0>
                    OS_Sched();                               /* Find new highest priority task        */
  808260:	08025b40 	call	8025b4 <OS_Sched>
  808264:	00000906 	br	80828c <OSTaskResume+0x1e0>
  808268:	e0bffc17 	ldw	r2,-16(fp)
  80826c:	e0bff715 	stw	r2,-36(fp)
  808270:	e0bff717 	ldw	r2,-36(fp)
  808274:	1001703a 	wrctl	status,r2
  808278:	00000406 	br	80828c <OSTaskResume+0x1e0>
  80827c:	e0bffc17 	ldw	r2,-16(fp)
  808280:	e0bff615 	stw	r2,-40(fp)
  808284:	e0bff617 	ldw	r2,-40(fp)
  808288:	1001703a 	wrctl	status,r2
                OS_EXIT_CRITICAL();
            }
        } else {                                              /* Must be pending on event              */
            OS_EXIT_CRITICAL();
        }
        return (OS_ERR_NONE);
  80828c:	e03fff15 	stw	zero,-4(fp)
  808290:	00000606 	br	8082ac <OSTaskResume+0x200>
  808294:	e0bffc17 	ldw	r2,-16(fp)
  808298:	e0bff515 	stw	r2,-44(fp)
  80829c:	e0bff517 	ldw	r2,-44(fp)
  8082a0:	1001703a 	wrctl	status,r2
    }
    OS_EXIT_CRITICAL();
    return (OS_ERR_TASK_NOT_SUSPENDED);
  8082a4:	00801104 	movi	r2,68
  8082a8:	e0bfff15 	stw	r2,-4(fp)
  8082ac:	e0bfff17 	ldw	r2,-4(fp)
}
  8082b0:	e037883a 	mov	sp,fp
  8082b4:	dfc00117 	ldw	ra,4(sp)
  8082b8:	df000017 	ldw	fp,0(sp)
  8082bc:	dec00204 	addi	sp,sp,8
  8082c0:	f800283a 	ret

008082c4 <OSTaskStkChk>:
*              OS_ERR_PDATA_NULL      if 'p_stk_data' is a NULL pointer
*********************************************************************************************************
*/
#if (OS_TASK_STAT_STK_CHK_EN > 0) && (OS_TASK_CREATE_EXT_EN > 0)
INT8U  OSTaskStkChk (INT8U prio, OS_STK_DATA *p_stk_data)
{
  8082c4:	defff204 	addi	sp,sp,-56
  8082c8:	df000d15 	stw	fp,52(sp)
  8082cc:	df000d04 	addi	fp,sp,52
  8082d0:	e17ffe15 	stw	r5,-8(fp)
  8082d4:	e13ffd05 	stb	r4,-12(fp)
    OS_TCB    *ptcb;
    OS_STK    *pchk;
    INT32U     nfree;
    INT32U     size;
#if OS_CRITICAL_METHOD == 3                            /* Allocate storage for CPU status register     */
    OS_CPU_SR  cpu_sr = 0;
  8082d8:	e03ff815 	stw	zero,-32(fp)
#endif



#if OS_ARG_CHK_EN > 0
    if (prio > OS_LOWEST_PRIO) {                       /* Make sure task priority is valid             */
  8082dc:	e0bffd03 	ldbu	r2,-12(fp)
  8082e0:	10800570 	cmpltui	r2,r2,21
  8082e4:	1000061e 	bne	r2,zero,808300 <OSTaskStkChk+0x3c>
        if (prio != OS_PRIO_SELF) {
  8082e8:	e0bffd03 	ldbu	r2,-12(fp)
  8082ec:	10803fe0 	cmpeqi	r2,r2,255
  8082f0:	1000031e 	bne	r2,zero,808300 <OSTaskStkChk+0x3c>
            return (OS_ERR_PRIO_INVALID);
  8082f4:	00800a84 	movi	r2,42
  8082f8:	e0bfff15 	stw	r2,-4(fp)
  8082fc:	00006b06 	br	8084ac <OSTaskStkChk+0x1e8>
        }
    }
    if (p_stk_data == (OS_STK_DATA *)0) {              /* Validate 'p_stk_data'                        */
  808300:	e0bffe17 	ldw	r2,-8(fp)
  808304:	1004c03a 	cmpne	r2,r2,zero
  808308:	1000031e 	bne	r2,zero,808318 <OSTaskStkChk+0x54>
        return (OS_ERR_PDATA_NULL);
  80830c:	00800244 	movi	r2,9
  808310:	e0bfff15 	stw	r2,-4(fp)
  808314:	00006506 	br	8084ac <OSTaskStkChk+0x1e8>
    }
#endif
    p_stk_data->OSFree = 0;                            /* Assume failure, set to 0 size                */
  808318:	e0bffe17 	ldw	r2,-8(fp)
  80831c:	10000015 	stw	zero,0(r2)
    p_stk_data->OSUsed = 0;
  808320:	e0bffe17 	ldw	r2,-8(fp)
  808324:	10000115 	stw	zero,4(r2)
static ALT_INLINE alt_irq_context ALT_ALWAYS_INLINE 
       alt_irq_disable_all (void)
{
  alt_irq_context context;

  NIOS2_READ_STATUS (context);
  808328:	0005303a 	rdctl	r2,status
  80832c:	e0bff715 	stw	r2,-36(fp)

  NIOS2_WRITE_STATUS (context & ~NIOS2_STATUS_PIE_MSK);
  808330:	e0fff717 	ldw	r3,-36(fp)
  808334:	00bfff84 	movi	r2,-2
  808338:	1884703a 	and	r2,r3,r2
  80833c:	1001703a 	wrctl	status,r2
  
  return context;
  808340:	e0bff717 	ldw	r2,-36(fp)
    OS_ENTER_CRITICAL();
  808344:	e0bff815 	stw	r2,-32(fp)
    if (prio == OS_PRIO_SELF) {                        /* See if check for SELF                        */
  808348:	e0bffd03 	ldbu	r2,-12(fp)
  80834c:	10803fd8 	cmpnei	r2,r2,255
  808350:	1000051e 	bne	r2,zero,808368 <OSTaskStkChk+0xa4>
        prio = OSTCBCur->OSTCBPrio;
  808354:	00802074 	movhi	r2,129
  808358:	10875604 	addi	r2,r2,7512
  80835c:	10800017 	ldw	r2,0(r2)
  808360:	10800c83 	ldbu	r2,50(r2)
  808364:	e0bffd05 	stb	r2,-12(fp)
    }
    ptcb = OSTCBPrioTbl[prio];
  808368:	e0bffd03 	ldbu	r2,-12(fp)
  80836c:	00c020b4 	movhi	r3,130
  808370:	18ebe104 	addi	r3,r3,-20604
  808374:	1085883a 	add	r2,r2,r2
  808378:	1085883a 	add	r2,r2,r2
  80837c:	10c5883a 	add	r2,r2,r3
  808380:	10800017 	ldw	r2,0(r2)
  808384:	e0bffc15 	stw	r2,-16(fp)
    if (ptcb == (OS_TCB *)0) {                         /* Make sure task exist                         */
  808388:	e0bffc17 	ldw	r2,-16(fp)
  80838c:	1004c03a 	cmpne	r2,r2,zero
  808390:	1000071e 	bne	r2,zero,8083b0 <OSTaskStkChk+0xec>
  808394:	e0bff817 	ldw	r2,-32(fp)
  808398:	e0bff615 	stw	r2,-40(fp)
  status &= ~NIOS2_STATUS_PIE_MSK;
  status |= (context & NIOS2_STATUS_PIE_MSK);
  
  NIOS2_WRITE_STATUS (status);
#else
  NIOS2_WRITE_STATUS (context);
  80839c:	e0bff617 	ldw	r2,-40(fp)
  8083a0:	1001703a 	wrctl	status,r2
        OS_EXIT_CRITICAL();
        return (OS_ERR_TASK_NOT_EXIST);
  8083a4:	008010c4 	movi	r2,67
  8083a8:	e0bfff15 	stw	r2,-4(fp)
  8083ac:	00003f06 	br	8084ac <OSTaskStkChk+0x1e8>
    }
    if (ptcb == OS_TCB_RESERVED) {
  8083b0:	e0bffc17 	ldw	r2,-16(fp)
  8083b4:	10800058 	cmpnei	r2,r2,1
  8083b8:	1000071e 	bne	r2,zero,8083d8 <OSTaskStkChk+0x114>
  8083bc:	e0bff817 	ldw	r2,-32(fp)
  8083c0:	e0bff515 	stw	r2,-44(fp)
  8083c4:	e0bff517 	ldw	r2,-44(fp)
  8083c8:	1001703a 	wrctl	status,r2
        OS_EXIT_CRITICAL();
        return (OS_ERR_TASK_NOT_EXIST);
  8083cc:	008010c4 	movi	r2,67
  8083d0:	e0bfff15 	stw	r2,-4(fp)
  8083d4:	00003506 	br	8084ac <OSTaskStkChk+0x1e8>
    }
    if ((ptcb->OSTCBOpt & OS_TASK_OPT_STK_CHK) == 0) { /* Make sure stack checking option is set       */
  8083d8:	e0bffc17 	ldw	r2,-16(fp)
  8083dc:	1080040b 	ldhu	r2,16(r2)
  8083e0:	10bfffcc 	andi	r2,r2,65535
  8083e4:	1080004c 	andi	r2,r2,1
  8083e8:	1004c03a 	cmpne	r2,r2,zero
  8083ec:	1000071e 	bne	r2,zero,80840c <OSTaskStkChk+0x148>
  8083f0:	e0bff817 	ldw	r2,-32(fp)
  8083f4:	e0bff415 	stw	r2,-48(fp)
  8083f8:	e0bff417 	ldw	r2,-48(fp)
  8083fc:	1001703a 	wrctl	status,r2
        OS_EXIT_CRITICAL();
        return (OS_ERR_TASK_OPT);
  808400:	00801144 	movi	r2,69
  808404:	e0bfff15 	stw	r2,-4(fp)
  808408:	00002806 	br	8084ac <OSTaskStkChk+0x1e8>
    }
    nfree = 0;
  80840c:	e03ffa15 	stw	zero,-24(fp)
    size  = ptcb->OSTCBStkSize;
  808410:	e0bffc17 	ldw	r2,-16(fp)
  808414:	10800317 	ldw	r2,12(r2)
  808418:	e0bff915 	stw	r2,-28(fp)
    pchk  = ptcb->OSTCBStkBottom;
  80841c:	e0bffc17 	ldw	r2,-16(fp)
  808420:	10800217 	ldw	r2,8(r2)
  808424:	e0bffb15 	stw	r2,-20(fp)
  808428:	e0bff817 	ldw	r2,-32(fp)
  80842c:	e0bff315 	stw	r2,-52(fp)
  808430:	e0bff317 	ldw	r2,-52(fp)
  808434:	1001703a 	wrctl	status,r2
    OS_EXIT_CRITICAL();
#if OS_STK_GROWTH == 1
    while (*pchk++ == (OS_STK)0) {                    /* Compute the number of zero entries on the stk */
  808438:	00000306 	br	808448 <OSTaskStkChk+0x184>
        nfree++;
  80843c:	e0bffa17 	ldw	r2,-24(fp)
  808440:	10800044 	addi	r2,r2,1
  808444:	e0bffa15 	stw	r2,-24(fp)
    nfree = 0;
    size  = ptcb->OSTCBStkSize;
    pchk  = ptcb->OSTCBStkBottom;
    OS_EXIT_CRITICAL();
#if OS_STK_GROWTH == 1
    while (*pchk++ == (OS_STK)0) {                    /* Compute the number of zero entries on the stk */
  808448:	e0bffb17 	ldw	r2,-20(fp)
  80844c:	10800017 	ldw	r2,0(r2)
  808450:	1005003a 	cmpeq	r2,r2,zero
  808454:	1007883a 	mov	r3,r2
  808458:	e0bffb17 	ldw	r2,-20(fp)
  80845c:	10800104 	addi	r2,r2,4
  808460:	e0bffb15 	stw	r2,-20(fp)
  808464:	18803fcc 	andi	r2,r3,255
  808468:	1004c03a 	cmpne	r2,r2,zero
  80846c:	103ff31e 	bne	r2,zero,80843c <OSTaskStkChk+0x178>
#else
    while (*pchk-- == (OS_STK)0) {
        nfree++;
    }
#endif
    p_stk_data->OSFree = nfree * sizeof(OS_STK);          /* Compute number of free bytes on the stack */
  808470:	e0bffa17 	ldw	r2,-24(fp)
  808474:	1085883a 	add	r2,r2,r2
  808478:	1085883a 	add	r2,r2,r2
  80847c:	1007883a 	mov	r3,r2
  808480:	e0bffe17 	ldw	r2,-8(fp)
  808484:	10c00015 	stw	r3,0(r2)
    p_stk_data->OSUsed = (size - nfree) * sizeof(OS_STK); /* Compute number of bytes used on the stack */
  808488:	e0fff917 	ldw	r3,-28(fp)
  80848c:	e0bffa17 	ldw	r2,-24(fp)
  808490:	1885c83a 	sub	r2,r3,r2
  808494:	1085883a 	add	r2,r2,r2
  808498:	1085883a 	add	r2,r2,r2
  80849c:	1007883a 	mov	r3,r2
  8084a0:	e0bffe17 	ldw	r2,-8(fp)
  8084a4:	10c00115 	stw	r3,4(r2)
    return (OS_ERR_NONE);
  8084a8:	e03fff15 	stw	zero,-4(fp)
  8084ac:	e0bfff17 	ldw	r2,-4(fp)
}
  8084b0:	e037883a 	mov	sp,fp
  8084b4:	df000017 	ldw	fp,0(sp)
  8084b8:	dec00104 	addi	sp,sp,4
  8084bc:	f800283a 	ret

008084c0 <OSTaskSuspend>:
*********************************************************************************************************
*/

#if OS_TASK_SUSPEND_EN > 0
INT8U  OSTaskSuspend (INT8U prio)
{
  8084c0:	defff404 	addi	sp,sp,-48
  8084c4:	dfc00b15 	stw	ra,44(sp)
  8084c8:	df000a15 	stw	fp,40(sp)
  8084cc:	df000a04 	addi	fp,sp,40
  8084d0:	e13ffe05 	stb	r4,-8(fp)
    BOOLEAN    self;
    OS_TCB    *ptcb;
    INT8U      y;
#if OS_CRITICAL_METHOD == 3                      /* Allocate storage for CPU status register           */
    OS_CPU_SR  cpu_sr = 0;
  8084d4:	e03ffa15 	stw	zero,-24(fp)
#endif



#if OS_ARG_CHK_EN > 0
    if (prio == OS_TASK_IDLE_PRIO) {                            /* Not allowed to suspend idle task    */
  8084d8:	e0bffe03 	ldbu	r2,-8(fp)
  8084dc:	10800518 	cmpnei	r2,r2,20
  8084e0:	1000031e 	bne	r2,zero,8084f0 <OSTaskSuspend+0x30>
        return (OS_ERR_TASK_SUSPEND_IDLE);
  8084e4:	008011c4 	movi	r2,71
  8084e8:	e0bfff15 	stw	r2,-4(fp)
  8084ec:	00007906 	br	8086d4 <OSTaskSuspend+0x214>
    }
    if (prio >= OS_LOWEST_PRIO) {                               /* Task priority valid ?               */
  8084f0:	e0bffe03 	ldbu	r2,-8(fp)
  8084f4:	10800530 	cmpltui	r2,r2,20
  8084f8:	1000061e 	bne	r2,zero,808514 <OSTaskSuspend+0x54>
        if (prio != OS_PRIO_SELF) {
  8084fc:	e0bffe03 	ldbu	r2,-8(fp)
  808500:	10803fe0 	cmpeqi	r2,r2,255
  808504:	1000031e 	bne	r2,zero,808514 <OSTaskSuspend+0x54>
            return (OS_ERR_PRIO_INVALID);
  808508:	00800a84 	movi	r2,42
  80850c:	e0bfff15 	stw	r2,-4(fp)
  808510:	00007006 	br	8086d4 <OSTaskSuspend+0x214>
static ALT_INLINE alt_irq_context ALT_ALWAYS_INLINE 
       alt_irq_disable_all (void)
{
  alt_irq_context context;

  NIOS2_READ_STATUS (context);
  808514:	0005303a 	rdctl	r2,status
  808518:	e0bff915 	stw	r2,-28(fp)

  NIOS2_WRITE_STATUS (context & ~NIOS2_STATUS_PIE_MSK);
  80851c:	e0fff917 	ldw	r3,-28(fp)
  808520:	00bfff84 	movi	r2,-2
  808524:	1884703a 	and	r2,r3,r2
  808528:	1001703a 	wrctl	status,r2
  
  return context;
  80852c:	e0bff917 	ldw	r2,-28(fp)
        }
    }
#endif
    OS_ENTER_CRITICAL();
  808530:	e0bffa15 	stw	r2,-24(fp)
    if (prio == OS_PRIO_SELF) {                                 /* See if suspend SELF                 */
  808534:	e0bffe03 	ldbu	r2,-8(fp)
  808538:	10803fd8 	cmpnei	r2,r2,255
  80853c:	1000081e 	bne	r2,zero,808560 <OSTaskSuspend+0xa0>
        prio = OSTCBCur->OSTCBPrio;
  808540:	00802074 	movhi	r2,129
  808544:	10875604 	addi	r2,r2,7512
  808548:	10800017 	ldw	r2,0(r2)
  80854c:	10800c83 	ldbu	r2,50(r2)
  808550:	e0bffe05 	stb	r2,-8(fp)
        self = OS_TRUE;
  808554:	00800044 	movi	r2,1
  808558:	e0bffd05 	stb	r2,-12(fp)
  80855c:	00000b06 	br	80858c <OSTaskSuspend+0xcc>
    } else if (prio == OSTCBCur->OSTCBPrio) {                   /* See if suspending self              */
  808560:	00802074 	movhi	r2,129
  808564:	10875604 	addi	r2,r2,7512
  808568:	10800017 	ldw	r2,0(r2)
  80856c:	10800c83 	ldbu	r2,50(r2)
  808570:	10c03fcc 	andi	r3,r2,255
  808574:	e0bffe03 	ldbu	r2,-8(fp)
  808578:	1880031e 	bne	r3,r2,808588 <OSTaskSuspend+0xc8>
        self = OS_TRUE;
  80857c:	00800044 	movi	r2,1
  808580:	e0bffd05 	stb	r2,-12(fp)
  808584:	00000106 	br	80858c <OSTaskSuspend+0xcc>
    } else {
        self = OS_FALSE;                                        /* No suspending another task          */
  808588:	e03ffd05 	stb	zero,-12(fp)
    }
    ptcb = OSTCBPrioTbl[prio];
  80858c:	e0bffe03 	ldbu	r2,-8(fp)
  808590:	00c020b4 	movhi	r3,130
  808594:	18ebe104 	addi	r3,r3,-20604
  808598:	1085883a 	add	r2,r2,r2
  80859c:	1085883a 	add	r2,r2,r2
  8085a0:	10c5883a 	add	r2,r2,r3
  8085a4:	10800017 	ldw	r2,0(r2)
  8085a8:	e0bffc15 	stw	r2,-16(fp)
    if (ptcb == (OS_TCB *)0) {                                  /* Task to suspend must exist          */
  8085ac:	e0bffc17 	ldw	r2,-16(fp)
  8085b0:	1004c03a 	cmpne	r2,r2,zero
  8085b4:	1000071e 	bne	r2,zero,8085d4 <OSTaskSuspend+0x114>
  8085b8:	e0bffa17 	ldw	r2,-24(fp)
  8085bc:	e0bff815 	stw	r2,-32(fp)
  status &= ~NIOS2_STATUS_PIE_MSK;
  status |= (context & NIOS2_STATUS_PIE_MSK);
  
  NIOS2_WRITE_STATUS (status);
#else
  NIOS2_WRITE_STATUS (context);
  8085c0:	e0bff817 	ldw	r2,-32(fp)
  8085c4:	1001703a 	wrctl	status,r2
        OS_EXIT_CRITICAL();
        return (OS_ERR_TASK_SUSPEND_PRIO);
  8085c8:	00801204 	movi	r2,72
  8085cc:	e0bfff15 	stw	r2,-4(fp)
  8085d0:	00004006 	br	8086d4 <OSTaskSuspend+0x214>
    }
    if (ptcb == OS_TCB_RESERVED) {                              /* See if assigned to Mutex            */
  8085d4:	e0bffc17 	ldw	r2,-16(fp)
  8085d8:	10800058 	cmpnei	r2,r2,1
  8085dc:	1000071e 	bne	r2,zero,8085fc <OSTaskSuspend+0x13c>
  8085e0:	e0bffa17 	ldw	r2,-24(fp)
  8085e4:	e0bff715 	stw	r2,-36(fp)
  8085e8:	e0bff717 	ldw	r2,-36(fp)
  8085ec:	1001703a 	wrctl	status,r2
        OS_EXIT_CRITICAL();
        return (OS_ERR_TASK_NOT_EXIST);
  8085f0:	008010c4 	movi	r2,67
  8085f4:	e0bfff15 	stw	r2,-4(fp)
  8085f8:	00003606 	br	8086d4 <OSTaskSuspend+0x214>
    }
    y            = ptcb->OSTCBY;
  8085fc:	e0bffc17 	ldw	r2,-16(fp)
  808600:	10800d03 	ldbu	r2,52(r2)
  808604:	e0bffb05 	stb	r2,-20(fp)
    OSRdyTbl[y] &= ~ptcb->OSTCBBitX;                            /* Make task not ready                 */
  808608:	e13ffb03 	ldbu	r4,-20(fp)
  80860c:	e0fffb03 	ldbu	r3,-20(fp)
  808610:	00802074 	movhi	r2,129
  808614:	10875344 	addi	r2,r2,7501
  808618:	10c5883a 	add	r2,r2,r3
  80861c:	10800003 	ldbu	r2,0(r2)
  808620:	1007883a 	mov	r3,r2
  808624:	e0bffc17 	ldw	r2,-16(fp)
  808628:	10800d43 	ldbu	r2,53(r2)
  80862c:	0084303a 	nor	r2,zero,r2
  808630:	1884703a 	and	r2,r3,r2
  808634:	1007883a 	mov	r3,r2
  808638:	00802074 	movhi	r2,129
  80863c:	10875344 	addi	r2,r2,7501
  808640:	1105883a 	add	r2,r2,r4
  808644:	10c00005 	stb	r3,0(r2)
    if (OSRdyTbl[y] == 0) {
  808648:	e0fffb03 	ldbu	r3,-20(fp)
  80864c:	00802074 	movhi	r2,129
  808650:	10875344 	addi	r2,r2,7501
  808654:	10c5883a 	add	r2,r2,r3
  808658:	10800003 	ldbu	r2,0(r2)
  80865c:	10803fcc 	andi	r2,r2,255
  808660:	1004c03a 	cmpne	r2,r2,zero
  808664:	10000c1e 	bne	r2,zero,808698 <OSTaskSuspend+0x1d8>
        OSRdyGrp &= ~ptcb->OSTCBBitY;
  808668:	e0bffc17 	ldw	r2,-16(fp)
  80866c:	10800d83 	ldbu	r2,54(r2)
  808670:	0084303a 	nor	r2,zero,r2
  808674:	1007883a 	mov	r3,r2
  808678:	00802074 	movhi	r2,129
  80867c:	10875304 	addi	r2,r2,7500
  808680:	10800003 	ldbu	r2,0(r2)
  808684:	1884703a 	and	r2,r3,r2
  808688:	1007883a 	mov	r3,r2
  80868c:	00802074 	movhi	r2,129
  808690:	10875304 	addi	r2,r2,7500
  808694:	10c00005 	stb	r3,0(r2)
    }
    ptcb->OSTCBStat |= OS_STAT_SUSPEND;                         /* Status of task is 'SUSPENDED'       */
  808698:	e0bffc17 	ldw	r2,-16(fp)
  80869c:	10800c03 	ldbu	r2,48(r2)
  8086a0:	10800214 	ori	r2,r2,8
  8086a4:	1007883a 	mov	r3,r2
  8086a8:	e0bffc17 	ldw	r2,-16(fp)
  8086ac:	10c00c05 	stb	r3,48(r2)
  8086b0:	e0bffa17 	ldw	r2,-24(fp)
  8086b4:	e0bff615 	stw	r2,-40(fp)
  8086b8:	e0bff617 	ldw	r2,-40(fp)
  8086bc:	1001703a 	wrctl	status,r2
    OS_EXIT_CRITICAL();
    if (self == OS_TRUE) {                                      /* Context switch only if SELF         */
  8086c0:	e0bffd03 	ldbu	r2,-12(fp)
  8086c4:	10800058 	cmpnei	r2,r2,1
  8086c8:	1000011e 	bne	r2,zero,8086d0 <OSTaskSuspend+0x210>
        OS_Sched();                                             /* Find new highest priority task      */
  8086cc:	08025b40 	call	8025b4 <OS_Sched>
    }
    return (OS_ERR_NONE);
  8086d0:	e03fff15 	stw	zero,-4(fp)
  8086d4:	e0bfff17 	ldw	r2,-4(fp)
}
  8086d8:	e037883a 	mov	sp,fp
  8086dc:	dfc00117 	ldw	ra,4(sp)
  8086e0:	df000017 	ldw	fp,0(sp)
  8086e4:	dec00204 	addi	sp,sp,8
  8086e8:	f800283a 	ret

008086ec <OSTaskQuery>:
*********************************************************************************************************
*/

#if OS_TASK_QUERY_EN > 0
INT8U  OSTaskQuery (INT8U prio, OS_TCB *p_task_data)
{
  8086ec:	defff504 	addi	sp,sp,-44
  8086f0:	dfc00a15 	stw	ra,40(sp)
  8086f4:	df000915 	stw	fp,36(sp)
  8086f8:	df000904 	addi	fp,sp,36
  8086fc:	e17ffe15 	stw	r5,-8(fp)
  808700:	e13ffd05 	stb	r4,-12(fp)
    OS_TCB    *ptcb;
#if OS_CRITICAL_METHOD == 3                      /* Allocate storage for CPU status register           */
    OS_CPU_SR  cpu_sr = 0;
  808704:	e03ffb15 	stw	zero,-20(fp)
#endif



#if OS_ARG_CHK_EN > 0
    if (prio > OS_LOWEST_PRIO) {                 /* Task priority valid ?                              */
  808708:	e0bffd03 	ldbu	r2,-12(fp)
  80870c:	10800570 	cmpltui	r2,r2,21
  808710:	1000061e 	bne	r2,zero,80872c <OSTaskQuery+0x40>
        if (prio != OS_PRIO_SELF) {
  808714:	e0bffd03 	ldbu	r2,-12(fp)
  808718:	10803fe0 	cmpeqi	r2,r2,255
  80871c:	1000031e 	bne	r2,zero,80872c <OSTaskQuery+0x40>
            return (OS_ERR_PRIO_INVALID);
  808720:	00800a84 	movi	r2,42
  808724:	e0bfff15 	stw	r2,-4(fp)
  808728:	00003b06 	br	808818 <OSTaskQuery+0x12c>
        }
    }
    if (p_task_data == (OS_TCB *)0) {            /* Validate 'p_task_data'                             */
  80872c:	e0bffe17 	ldw	r2,-8(fp)
  808730:	1004c03a 	cmpne	r2,r2,zero
  808734:	1000031e 	bne	r2,zero,808744 <OSTaskQuery+0x58>
        return (OS_ERR_PDATA_NULL);
  808738:	00800244 	movi	r2,9
  80873c:	e0bfff15 	stw	r2,-4(fp)
  808740:	00003506 	br	808818 <OSTaskQuery+0x12c>
static ALT_INLINE alt_irq_context ALT_ALWAYS_INLINE 
       alt_irq_disable_all (void)
{
  alt_irq_context context;

  NIOS2_READ_STATUS (context);
  808744:	0005303a 	rdctl	r2,status
  808748:	e0bffa15 	stw	r2,-24(fp)

  NIOS2_WRITE_STATUS (context & ~NIOS2_STATUS_PIE_MSK);
  80874c:	e0fffa17 	ldw	r3,-24(fp)
  808750:	00bfff84 	movi	r2,-2
  808754:	1884703a 	and	r2,r3,r2
  808758:	1001703a 	wrctl	status,r2
  
  return context;
  80875c:	e0bffa17 	ldw	r2,-24(fp)
    }
#endif
    OS_ENTER_CRITICAL();
  808760:	e0bffb15 	stw	r2,-20(fp)
    if (prio == OS_PRIO_SELF) {                  /* See if suspend SELF                                */
  808764:	e0bffd03 	ldbu	r2,-12(fp)
  808768:	10803fd8 	cmpnei	r2,r2,255
  80876c:	1000051e 	bne	r2,zero,808784 <OSTaskQuery+0x98>
        prio = OSTCBCur->OSTCBPrio;
  808770:	00802074 	movhi	r2,129
  808774:	10875604 	addi	r2,r2,7512
  808778:	10800017 	ldw	r2,0(r2)
  80877c:	10800c83 	ldbu	r2,50(r2)
  808780:	e0bffd05 	stb	r2,-12(fp)
    }
    ptcb = OSTCBPrioTbl[prio];
  808784:	e0bffd03 	ldbu	r2,-12(fp)
  808788:	00c020b4 	movhi	r3,130
  80878c:	18ebe104 	addi	r3,r3,-20604
  808790:	1085883a 	add	r2,r2,r2
  808794:	1085883a 	add	r2,r2,r2
  808798:	10c5883a 	add	r2,r2,r3
  80879c:	10800017 	ldw	r2,0(r2)
  8087a0:	e0bffc15 	stw	r2,-16(fp)
    if (ptcb == (OS_TCB *)0) {                   /* Task to query must exist                           */
  8087a4:	e0bffc17 	ldw	r2,-16(fp)
  8087a8:	1004c03a 	cmpne	r2,r2,zero
  8087ac:	1000071e 	bne	r2,zero,8087cc <OSTaskQuery+0xe0>
  8087b0:	e0bffb17 	ldw	r2,-20(fp)
  8087b4:	e0bff915 	stw	r2,-28(fp)
  status &= ~NIOS2_STATUS_PIE_MSK;
  status |= (context & NIOS2_STATUS_PIE_MSK);
  
  NIOS2_WRITE_STATUS (status);
#else
  NIOS2_WRITE_STATUS (context);
  8087b8:	e0bff917 	ldw	r2,-28(fp)
  8087bc:	1001703a 	wrctl	status,r2
        OS_EXIT_CRITICAL();
        return (OS_ERR_PRIO);
  8087c0:	00800a44 	movi	r2,41
  8087c4:	e0bfff15 	stw	r2,-4(fp)
  8087c8:	00001306 	br	808818 <OSTaskQuery+0x12c>
    }
    if (ptcb == OS_TCB_RESERVED) {               /* Task to query must not be assigned to a Mutex      */
  8087cc:	e0bffc17 	ldw	r2,-16(fp)
  8087d0:	10800058 	cmpnei	r2,r2,1
  8087d4:	1000071e 	bne	r2,zero,8087f4 <OSTaskQuery+0x108>
  8087d8:	e0bffb17 	ldw	r2,-20(fp)
  8087dc:	e0bff815 	stw	r2,-32(fp)
  8087e0:	e0bff817 	ldw	r2,-32(fp)
  8087e4:	1001703a 	wrctl	status,r2
        OS_EXIT_CRITICAL();
        return (OS_ERR_TASK_NOT_EXIST);
  8087e8:	008010c4 	movi	r2,67
  8087ec:	e0bfff15 	stw	r2,-4(fp)
  8087f0:	00000906 	br	808818 <OSTaskQuery+0x12c>
    }
                                                 /* Copy TCB into user storage area                    */
    OS_MemCopy((INT8U *)p_task_data, (INT8U *)ptcb, sizeof(OS_TCB));
  8087f4:	e13ffe17 	ldw	r4,-8(fp)
  8087f8:	e17ffc17 	ldw	r5,-16(fp)
  8087fc:	01801b04 	movi	r6,108
  808800:	08025480 	call	802548 <OS_MemCopy>
  808804:	e0bffb17 	ldw	r2,-20(fp)
  808808:	e0bff715 	stw	r2,-36(fp)
  80880c:	e0bff717 	ldw	r2,-36(fp)
  808810:	1001703a 	wrctl	status,r2
    OS_EXIT_CRITICAL();
    return (OS_ERR_NONE);
  808814:	e03fff15 	stw	zero,-4(fp)
  808818:	e0bfff17 	ldw	r2,-4(fp)
}
  80881c:	e037883a 	mov	sp,fp
  808820:	dfc00117 	ldw	ra,4(sp)
  808824:	df000017 	ldw	fp,0(sp)
  808828:	dec00204 	addi	sp,sp,8
  80882c:	f800283a 	ret

00808830 <OS_TaskStkClr>:
* Returns    : none
*********************************************************************************************************
*/
#if (OS_TASK_STAT_STK_CHK_EN > 0) && (OS_TASK_CREATE_EXT_EN > 0)
void  OS_TaskStkClr (OS_STK *pbos, INT32U size, INT16U opt)
{
  808830:	defffc04 	addi	sp,sp,-16
  808834:	df000315 	stw	fp,12(sp)
  808838:	df000304 	addi	fp,sp,12
  80883c:	e13ffd15 	stw	r4,-12(fp)
  808840:	e17ffe15 	stw	r5,-8(fp)
  808844:	e1bfff0d 	sth	r6,-4(fp)
    if ((opt & OS_TASK_OPT_STK_CHK) != 0x0000) {       /* See if stack checking has been enabled       */
  808848:	e0bfff0b 	ldhu	r2,-4(fp)
  80884c:	1080004c 	andi	r2,r2,1
  808850:	10803fcc 	andi	r2,r2,255
  808854:	1005003a 	cmpeq	r2,r2,zero
  808858:	1000101e 	bne	r2,zero,80889c <OS_TaskStkClr+0x6c>
        if ((opt & OS_TASK_OPT_STK_CLR) != 0x0000) {   /* See if stack needs to be cleared             */
  80885c:	e0bfff0b 	ldhu	r2,-4(fp)
  808860:	1080008c 	andi	r2,r2,2
  808864:	1005003a 	cmpeq	r2,r2,zero
  808868:	10000c1e 	bne	r2,zero,80889c <OS_TaskStkClr+0x6c>
#if OS_STK_GROWTH == 1
            while (size > 0) {                         /* Stack grows from HIGH to LOW memory          */
  80886c:	00000806 	br	808890 <OS_TaskStkClr+0x60>
                size--;
  808870:	e0bffe17 	ldw	r2,-8(fp)
  808874:	10bfffc4 	addi	r2,r2,-1
  808878:	e0bffe15 	stw	r2,-8(fp)
                *pbos++ = (OS_STK)0;                   /* Clear from bottom of stack and up!           */
  80887c:	e0bffd17 	ldw	r2,-12(fp)
  808880:	10000015 	stw	zero,0(r2)
  808884:	e0bffd17 	ldw	r2,-12(fp)
  808888:	10800104 	addi	r2,r2,4
  80888c:	e0bffd15 	stw	r2,-12(fp)
void  OS_TaskStkClr (OS_STK *pbos, INT32U size, INT16U opt)
{
    if ((opt & OS_TASK_OPT_STK_CHK) != 0x0000) {       /* See if stack checking has been enabled       */
        if ((opt & OS_TASK_OPT_STK_CLR) != 0x0000) {   /* See if stack needs to be cleared             */
#if OS_STK_GROWTH == 1
            while (size > 0) {                         /* Stack grows from HIGH to LOW memory          */
  808890:	e0bffe17 	ldw	r2,-8(fp)
  808894:	1004c03a 	cmpne	r2,r2,zero
  808898:	103ff51e 	bne	r2,zero,808870 <OS_TaskStkClr+0x40>
                *pbos-- = (OS_STK)0;                   /* Clear from bottom of stack and down          */
            }
#endif
        }
    }
}
  80889c:	e037883a 	mov	sp,fp
  8088a0:	df000017 	ldw	fp,0(sp)
  8088a4:	dec00104 	addi	sp,sp,4
  8088a8:	f800283a 	ret

008088ac <OSTimeDly>:
* Returns    : none
*********************************************************************************************************
*/

void  OSTimeDly (INT16U ticks)
{
  8088ac:	defff904 	addi	sp,sp,-28
  8088b0:	dfc00615 	stw	ra,24(sp)
  8088b4:	df000515 	stw	fp,20(sp)
  8088b8:	df000504 	addi	fp,sp,20
  8088bc:	e13fff0d 	sth	r4,-4(fp)
    INT8U      y;
#if OS_CRITICAL_METHOD == 3                      /* Allocate storage for CPU status register           */
    OS_CPU_SR  cpu_sr = 0;
  8088c0:	e03ffd15 	stw	zero,-12(fp)
#endif



    if (OSIntNesting > 0) {                      /* See if trying to call from an ISR                  */
  8088c4:	00802074 	movhi	r2,129
  8088c8:	10875504 	addi	r2,r2,7508
  8088cc:	10800003 	ldbu	r2,0(r2)
  8088d0:	10803fcc 	andi	r2,r2,255
  8088d4:	1004c03a 	cmpne	r2,r2,zero
  8088d8:	1000421e 	bne	r2,zero,8089e4 <OSTimeDly+0x138>
        return;
    }
    if (ticks > 0) {                             /* 0 means no delay!                                  */
  8088dc:	e0bfff0b 	ldhu	r2,-4(fp)
  8088e0:	1005003a 	cmpeq	r2,r2,zero
  8088e4:	10003f1e 	bne	r2,zero,8089e4 <OSTimeDly+0x138>
static ALT_INLINE alt_irq_context ALT_ALWAYS_INLINE 
       alt_irq_disable_all (void)
{
  alt_irq_context context;

  NIOS2_READ_STATUS (context);
  8088e8:	0005303a 	rdctl	r2,status
  8088ec:	e0bffc15 	stw	r2,-16(fp)

  NIOS2_WRITE_STATUS (context & ~NIOS2_STATUS_PIE_MSK);
  8088f0:	e0fffc17 	ldw	r3,-16(fp)
  8088f4:	00bfff84 	movi	r2,-2
  8088f8:	1884703a 	and	r2,r3,r2
  8088fc:	1001703a 	wrctl	status,r2
  
  return context;
  808900:	e0bffc17 	ldw	r2,-16(fp)
        OS_ENTER_CRITICAL();
  808904:	e0bffd15 	stw	r2,-12(fp)
        y            =  OSTCBCur->OSTCBY;        /* Delay current task                                 */
  808908:	00802074 	movhi	r2,129
  80890c:	10875604 	addi	r2,r2,7512
  808910:	10800017 	ldw	r2,0(r2)
  808914:	10800d03 	ldbu	r2,52(r2)
  808918:	e0bffe05 	stb	r2,-8(fp)
        OSRdyTbl[y] &= ~OSTCBCur->OSTCBBitX;
  80891c:	e13ffe03 	ldbu	r4,-8(fp)
  808920:	e0fffe03 	ldbu	r3,-8(fp)
  808924:	00802074 	movhi	r2,129
  808928:	10875344 	addi	r2,r2,7501
  80892c:	10c5883a 	add	r2,r2,r3
  808930:	10800003 	ldbu	r2,0(r2)
  808934:	1007883a 	mov	r3,r2
  808938:	00802074 	movhi	r2,129
  80893c:	10875604 	addi	r2,r2,7512
  808940:	10800017 	ldw	r2,0(r2)
  808944:	10800d43 	ldbu	r2,53(r2)
  808948:	0084303a 	nor	r2,zero,r2
  80894c:	1884703a 	and	r2,r3,r2
  808950:	1007883a 	mov	r3,r2
  808954:	00802074 	movhi	r2,129
  808958:	10875344 	addi	r2,r2,7501
  80895c:	1105883a 	add	r2,r2,r4
  808960:	10c00005 	stb	r3,0(r2)
        if (OSRdyTbl[y] == 0) {
  808964:	e0fffe03 	ldbu	r3,-8(fp)
  808968:	00802074 	movhi	r2,129
  80896c:	10875344 	addi	r2,r2,7501
  808970:	10c5883a 	add	r2,r2,r3
  808974:	10800003 	ldbu	r2,0(r2)
  808978:	10803fcc 	andi	r2,r2,255
  80897c:	1004c03a 	cmpne	r2,r2,zero
  808980:	10000e1e 	bne	r2,zero,8089bc <OSTimeDly+0x110>
            OSRdyGrp &= ~OSTCBCur->OSTCBBitY;
  808984:	00802074 	movhi	r2,129
  808988:	10875604 	addi	r2,r2,7512
  80898c:	10800017 	ldw	r2,0(r2)
  808990:	10800d83 	ldbu	r2,54(r2)
  808994:	0084303a 	nor	r2,zero,r2
  808998:	1007883a 	mov	r3,r2
  80899c:	00802074 	movhi	r2,129
  8089a0:	10875304 	addi	r2,r2,7500
  8089a4:	10800003 	ldbu	r2,0(r2)
  8089a8:	1884703a 	and	r2,r3,r2
  8089ac:	1007883a 	mov	r3,r2
  8089b0:	00802074 	movhi	r2,129
  8089b4:	10875304 	addi	r2,r2,7500
  8089b8:	10c00005 	stb	r3,0(r2)
        }
        OSTCBCur->OSTCBDly = ticks;              /* Load ticks in TCB                                  */
  8089bc:	00802074 	movhi	r2,129
  8089c0:	10875604 	addi	r2,r2,7512
  8089c4:	10c00017 	ldw	r3,0(r2)
  8089c8:	e0bfff0b 	ldhu	r2,-4(fp)
  8089cc:	18800b8d 	sth	r2,46(r3)
  8089d0:	e0bffd17 	ldw	r2,-12(fp)
  8089d4:	e0bffb15 	stw	r2,-20(fp)
  status &= ~NIOS2_STATUS_PIE_MSK;
  status |= (context & NIOS2_STATUS_PIE_MSK);
  
  NIOS2_WRITE_STATUS (status);
#else
  NIOS2_WRITE_STATUS (context);
  8089d8:	e0bffb17 	ldw	r2,-20(fp)
  8089dc:	1001703a 	wrctl	status,r2
        OS_EXIT_CRITICAL();
        OS_Sched();                              /* Find next task to run!                             */
  8089e0:	08025b40 	call	8025b4 <OS_Sched>
    }
}
  8089e4:	e037883a 	mov	sp,fp
  8089e8:	dfc00117 	ldw	ra,4(sp)
  8089ec:	df000017 	ldw	fp,0(sp)
  8089f0:	dec00204 	addi	sp,sp,8
  8089f4:	f800283a 	ret

008089f8 <OSTimeDlyHMSM>:
*********************************************************************************************************
*/

#if OS_TIME_DLY_HMSM_EN > 0
INT8U  OSTimeDlyHMSM (INT8U hours, INT8U minutes, INT8U seconds, INT16U ms)
{
  8089f8:	defff604 	addi	sp,sp,-40
  8089fc:	dfc00915 	stw	ra,36(sp)
  808a00:	df000815 	stw	fp,32(sp)
  808a04:	dc000715 	stw	r16,28(sp)
  808a08:	df000704 	addi	fp,sp,28
  808a0c:	e13ffb05 	stb	r4,-20(fp)
  808a10:	e17ffc05 	stb	r5,-16(fp)
  808a14:	e1bffd05 	stb	r6,-12(fp)
  808a18:	e1fffe0d 	sth	r7,-8(fp)
    INT32U ticks;
    INT16U loops;


    if (OSIntNesting > 0) {                      /* See if trying to call from an ISR                  */
  808a1c:	00802074 	movhi	r2,129
  808a20:	10875504 	addi	r2,r2,7508
  808a24:	10800003 	ldbu	r2,0(r2)
  808a28:	10803fcc 	andi	r2,r2,255
  808a2c:	1005003a 	cmpeq	r2,r2,zero
  808a30:	1000031e 	bne	r2,zero,808a40 <OSTimeDlyHMSM+0x48>
        return (OS_ERR_TIME_DLY_ISR);
  808a34:	00801544 	movi	r2,85
  808a38:	e0bfff15 	stw	r2,-4(fp)
  808a3c:	00004b06 	br	808b6c <OSTimeDlyHMSM+0x174>
    }
#if OS_ARG_CHK_EN > 0
    if (hours == 0) {
  808a40:	e0bffb03 	ldbu	r2,-20(fp)
  808a44:	1004c03a 	cmpne	r2,r2,zero
  808a48:	10000c1e 	bne	r2,zero,808a7c <OSTimeDlyHMSM+0x84>
        if (minutes == 0) {
  808a4c:	e0bffc03 	ldbu	r2,-16(fp)
  808a50:	1004c03a 	cmpne	r2,r2,zero
  808a54:	1000091e 	bne	r2,zero,808a7c <OSTimeDlyHMSM+0x84>
            if (seconds == 0) {
  808a58:	e0bffd03 	ldbu	r2,-12(fp)
  808a5c:	1004c03a 	cmpne	r2,r2,zero
  808a60:	1000061e 	bne	r2,zero,808a7c <OSTimeDlyHMSM+0x84>
                if (ms == 0) {
  808a64:	e0bffe0b 	ldhu	r2,-8(fp)
  808a68:	1004c03a 	cmpne	r2,r2,zero
  808a6c:	1000031e 	bne	r2,zero,808a7c <OSTimeDlyHMSM+0x84>
                    return (OS_ERR_TIME_ZERO_DLY);
  808a70:	00801504 	movi	r2,84
  808a74:	e0bfff15 	stw	r2,-4(fp)
  808a78:	00003c06 	br	808b6c <OSTimeDlyHMSM+0x174>
                }
            }
        }
    }
    if (minutes > 59) {
  808a7c:	e0bffc03 	ldbu	r2,-16(fp)
  808a80:	10800f30 	cmpltui	r2,r2,60
  808a84:	1000031e 	bne	r2,zero,808a94 <OSTimeDlyHMSM+0x9c>
        return (OS_ERR_TIME_INVALID_MINUTES);    /* Validate arguments to be within range              */
  808a88:	00801444 	movi	r2,81
  808a8c:	e0bfff15 	stw	r2,-4(fp)
  808a90:	00003606 	br	808b6c <OSTimeDlyHMSM+0x174>
    }
    if (seconds > 59) {
  808a94:	e0bffd03 	ldbu	r2,-12(fp)
  808a98:	10800f30 	cmpltui	r2,r2,60
  808a9c:	1000031e 	bne	r2,zero,808aac <OSTimeDlyHMSM+0xb4>
        return (OS_ERR_TIME_INVALID_SECONDS);
  808aa0:	00801484 	movi	r2,82
  808aa4:	e0bfff15 	stw	r2,-4(fp)
  808aa8:	00003006 	br	808b6c <OSTimeDlyHMSM+0x174>
    }
    if (ms > 999) {
  808aac:	e0bffe0b 	ldhu	r2,-8(fp)
  808ab0:	1080fa30 	cmpltui	r2,r2,1000
  808ab4:	1000031e 	bne	r2,zero,808ac4 <OSTimeDlyHMSM+0xcc>
        return (OS_ERR_TIME_INVALID_MS);
  808ab8:	008014c4 	movi	r2,83
  808abc:	e0bfff15 	stw	r2,-4(fp)
  808ac0:	00002a06 	br	808b6c <OSTimeDlyHMSM+0x174>
    }
#endif
                                                 /* Compute the total number of clock ticks required.. */
                                                 /* .. (rounded to the nearest tick)                   */
    ticks = ((INT32U)hours * 3600L + (INT32U)minutes * 60L + (INT32U)seconds) * OS_TICKS_PER_SEC
  808ac4:	e13ffb03 	ldbu	r4,-20(fp)
  808ac8:	01438404 	movi	r5,3600
  808acc:	080dd080 	call	80dd08 <__mulsi3>
  808ad0:	1021883a 	mov	r16,r2
  808ad4:	e13ffc03 	ldbu	r4,-16(fp)
  808ad8:	01400f04 	movi	r5,60
  808adc:	080dd080 	call	80dd08 <__mulsi3>
  808ae0:	8087883a 	add	r3,r16,r2
  808ae4:	e0bffd03 	ldbu	r2,-12(fp)
  808ae8:	1889883a 	add	r4,r3,r2
  808aec:	0140fa04 	movi	r5,1000
  808af0:	080dd080 	call	80dd08 <__mulsi3>
  808af4:	1021883a 	mov	r16,r2
  808af8:	e13ffe0b 	ldhu	r4,-8(fp)
  808afc:	0140fa04 	movi	r5,1000
  808b00:	080dd080 	call	80dd08 <__mulsi3>
  808b04:	1009883a 	mov	r4,r2
  808b08:	0140fa04 	movi	r5,1000
  808b0c:	080dcf80 	call	80dcf8 <__udivsi3>
  808b10:	8085883a 	add	r2,r16,r2
  808b14:	e0bffa15 	stw	r2,-24(fp)
          + OS_TICKS_PER_SEC * ((INT32U)ms + 500L / OS_TICKS_PER_SEC) / 1000L;
    loops = (INT16U)(ticks >> 16);               /* Compute the integral number of 65536 tick delays   */
  808b18:	e0bffa17 	ldw	r2,-24(fp)
  808b1c:	1004d43a 	srli	r2,r2,16
  808b20:	e0bff90d 	sth	r2,-28(fp)
    ticks = ticks & 0xFFFFL;                     /* Obtain  the fractional number of ticks             */
  808b24:	e0bffa17 	ldw	r2,-24(fp)
  808b28:	10bfffcc 	andi	r2,r2,65535
  808b2c:	e0bffa15 	stw	r2,-24(fp)
    OSTimeDly((INT16U)ticks);
  808b30:	e0bffa17 	ldw	r2,-24(fp)
  808b34:	113fffcc 	andi	r4,r2,65535
  808b38:	08088ac0 	call	8088ac <OSTimeDly>
    while (loops > 0) {
  808b3c:	00000706 	br	808b5c <OSTimeDlyHMSM+0x164>
        OSTimeDly((INT16U)32768u);
  808b40:	01200014 	movui	r4,32768
  808b44:	08088ac0 	call	8088ac <OSTimeDly>
        OSTimeDly((INT16U)32768u);
  808b48:	01200014 	movui	r4,32768
  808b4c:	08088ac0 	call	8088ac <OSTimeDly>
        loops--;
  808b50:	e0bff90b 	ldhu	r2,-28(fp)
  808b54:	10bfffc4 	addi	r2,r2,-1
  808b58:	e0bff90d 	sth	r2,-28(fp)
    ticks = ((INT32U)hours * 3600L + (INT32U)minutes * 60L + (INT32U)seconds) * OS_TICKS_PER_SEC
          + OS_TICKS_PER_SEC * ((INT32U)ms + 500L / OS_TICKS_PER_SEC) / 1000L;
    loops = (INT16U)(ticks >> 16);               /* Compute the integral number of 65536 tick delays   */
    ticks = ticks & 0xFFFFL;                     /* Obtain  the fractional number of ticks             */
    OSTimeDly((INT16U)ticks);
    while (loops > 0) {
  808b5c:	e0bff90b 	ldhu	r2,-28(fp)
  808b60:	1004c03a 	cmpne	r2,r2,zero
  808b64:	103ff61e 	bne	r2,zero,808b40 <OSTimeDlyHMSM+0x148>
        OSTimeDly((INT16U)32768u);
        OSTimeDly((INT16U)32768u);
        loops--;
    }
    return (OS_ERR_NONE);
  808b68:	e03fff15 	stw	zero,-4(fp)
  808b6c:	e0bfff17 	ldw	r2,-4(fp)
}
  808b70:	e037883a 	mov	sp,fp
  808b74:	dfc00217 	ldw	ra,8(sp)
  808b78:	df000117 	ldw	fp,4(sp)
  808b7c:	dc000017 	ldw	r16,0(sp)
  808b80:	dec00304 	addi	sp,sp,12
  808b84:	f800283a 	ret

00808b88 <OSTimeDlyResume>:
*********************************************************************************************************
*/

#if OS_TIME_DLY_RESUME_EN > 0
INT8U  OSTimeDlyResume (INT8U prio)
{
  808b88:	defff404 	addi	sp,sp,-48
  808b8c:	dfc00b15 	stw	ra,44(sp)
  808b90:	df000a15 	stw	fp,40(sp)
  808b94:	df000a04 	addi	fp,sp,40
  808b98:	e13ffe05 	stb	r4,-8(fp)
    OS_TCB    *ptcb;
#if OS_CRITICAL_METHOD == 3                                    /* Storage for CPU status register      */
    OS_CPU_SR  cpu_sr = 0;
  808b9c:	e03ffc15 	stw	zero,-16(fp)
#endif



    if (prio >= OS_LOWEST_PRIO) {
  808ba0:	e0bffe03 	ldbu	r2,-8(fp)
  808ba4:	10800530 	cmpltui	r2,r2,20
  808ba8:	1000031e 	bne	r2,zero,808bb8 <OSTimeDlyResume+0x30>
        return (OS_ERR_PRIO_INVALID);
  808bac:	00800a84 	movi	r2,42
  808bb0:	e0bfff15 	stw	r2,-4(fp)
  808bb4:	00007206 	br	808d80 <OSTimeDlyResume+0x1f8>
static ALT_INLINE alt_irq_context ALT_ALWAYS_INLINE 
       alt_irq_disable_all (void)
{
  alt_irq_context context;

  NIOS2_READ_STATUS (context);
  808bb8:	0005303a 	rdctl	r2,status
  808bbc:	e0bffb15 	stw	r2,-20(fp)

  NIOS2_WRITE_STATUS (context & ~NIOS2_STATUS_PIE_MSK);
  808bc0:	e0fffb17 	ldw	r3,-20(fp)
  808bc4:	00bfff84 	movi	r2,-2
  808bc8:	1884703a 	and	r2,r3,r2
  808bcc:	1001703a 	wrctl	status,r2
  
  return context;
  808bd0:	e0bffb17 	ldw	r2,-20(fp)
    }
    OS_ENTER_CRITICAL();
  808bd4:	e0bffc15 	stw	r2,-16(fp)
    ptcb = OSTCBPrioTbl[prio];                                 /* Make sure that task exist            */
  808bd8:	e0bffe03 	ldbu	r2,-8(fp)
  808bdc:	00c020b4 	movhi	r3,130
  808be0:	18ebe104 	addi	r3,r3,-20604
  808be4:	1085883a 	add	r2,r2,r2
  808be8:	1085883a 	add	r2,r2,r2
  808bec:	10c5883a 	add	r2,r2,r3
  808bf0:	10800017 	ldw	r2,0(r2)
  808bf4:	e0bffd15 	stw	r2,-12(fp)
    if (ptcb == (OS_TCB *)0) {
  808bf8:	e0bffd17 	ldw	r2,-12(fp)
  808bfc:	1004c03a 	cmpne	r2,r2,zero
  808c00:	1000071e 	bne	r2,zero,808c20 <OSTimeDlyResume+0x98>
  808c04:	e0bffc17 	ldw	r2,-16(fp)
  808c08:	e0bffa15 	stw	r2,-24(fp)
  status &= ~NIOS2_STATUS_PIE_MSK;
  status |= (context & NIOS2_STATUS_PIE_MSK);
  
  NIOS2_WRITE_STATUS (status);
#else
  NIOS2_WRITE_STATUS (context);
  808c0c:	e0bffa17 	ldw	r2,-24(fp)
  808c10:	1001703a 	wrctl	status,r2
        OS_EXIT_CRITICAL();
        return (OS_ERR_TASK_NOT_EXIST);                        /* The task does not exist              */
  808c14:	008010c4 	movi	r2,67
  808c18:	e0bfff15 	stw	r2,-4(fp)
  808c1c:	00005806 	br	808d80 <OSTimeDlyResume+0x1f8>
    }
    if (ptcb == OS_TCB_RESERVED) {
  808c20:	e0bffd17 	ldw	r2,-12(fp)
  808c24:	10800058 	cmpnei	r2,r2,1
  808c28:	1000071e 	bne	r2,zero,808c48 <OSTimeDlyResume+0xc0>
  808c2c:	e0bffc17 	ldw	r2,-16(fp)
  808c30:	e0bff915 	stw	r2,-28(fp)
  808c34:	e0bff917 	ldw	r2,-28(fp)
  808c38:	1001703a 	wrctl	status,r2
        OS_EXIT_CRITICAL();
        return (OS_ERR_TASK_NOT_EXIST);                        /* The task does not exist              */
  808c3c:	008010c4 	movi	r2,67
  808c40:	e0bfff15 	stw	r2,-4(fp)
  808c44:	00004e06 	br	808d80 <OSTimeDlyResume+0x1f8>
    }
    if (ptcb->OSTCBDly == 0) {                                 /* See if task is delayed               */
  808c48:	e0bffd17 	ldw	r2,-12(fp)
  808c4c:	10800b8b 	ldhu	r2,46(r2)
  808c50:	10bfffcc 	andi	r2,r2,65535
  808c54:	1004c03a 	cmpne	r2,r2,zero
  808c58:	1000071e 	bne	r2,zero,808c78 <OSTimeDlyResume+0xf0>
  808c5c:	e0bffc17 	ldw	r2,-16(fp)
  808c60:	e0bff815 	stw	r2,-32(fp)
  808c64:	e0bff817 	ldw	r2,-32(fp)
  808c68:	1001703a 	wrctl	status,r2
        OS_EXIT_CRITICAL();
        return (OS_ERR_TIME_NOT_DLY);                          /* Indicate that task was not delayed   */
  808c6c:	00801404 	movi	r2,80
  808c70:	e0bfff15 	stw	r2,-4(fp)
  808c74:	00004206 	br	808d80 <OSTimeDlyResume+0x1f8>
    }

    ptcb->OSTCBDly = 0;                                        /* Clear the time delay                 */
  808c78:	e0bffd17 	ldw	r2,-12(fp)
  808c7c:	10000b8d 	sth	zero,46(r2)
    if ((ptcb->OSTCBStat & OS_STAT_PEND_ANY) != OS_STAT_RDY) {
  808c80:	e0bffd17 	ldw	r2,-12(fp)
  808c84:	10800c03 	ldbu	r2,48(r2)
  808c88:	10803fcc 	andi	r2,r2,255
  808c8c:	10800dcc 	andi	r2,r2,55
  808c90:	1005003a 	cmpeq	r2,r2,zero
  808c94:	10000b1e 	bne	r2,zero,808cc4 <OSTimeDlyResume+0x13c>
        ptcb->OSTCBStat     &= ~OS_STAT_PEND_ANY;              /* Yes, Clear status flag               */
  808c98:	e0bffd17 	ldw	r2,-12(fp)
  808c9c:	10c00c03 	ldbu	r3,48(r2)
  808ca0:	00bff204 	movi	r2,-56
  808ca4:	1884703a 	and	r2,r3,r2
  808ca8:	1007883a 	mov	r3,r2
  808cac:	e0bffd17 	ldw	r2,-12(fp)
  808cb0:	10c00c05 	stb	r3,48(r2)
        ptcb->OSTCBStatPend  =  OS_STAT_PEND_TO;               /* Indicate PEND timeout                */
  808cb4:	e0fffd17 	ldw	r3,-12(fp)
  808cb8:	00800044 	movi	r2,1
  808cbc:	18800c45 	stb	r2,49(r3)
  808cc0:	00000206 	br	808ccc <OSTimeDlyResume+0x144>
    } else {
        ptcb->OSTCBStatPend  =  OS_STAT_PEND_OK;
  808cc4:	e0bffd17 	ldw	r2,-12(fp)
  808cc8:	10000c45 	stb	zero,49(r2)
    }
    if ((ptcb->OSTCBStat & OS_STAT_SUSPEND) == OS_STAT_RDY) {  /* Is task suspended?                   */
  808ccc:	e0bffd17 	ldw	r2,-12(fp)
  808cd0:	10800c03 	ldbu	r2,48(r2)
  808cd4:	10803fcc 	andi	r2,r2,255
  808cd8:	1080020c 	andi	r2,r2,8
  808cdc:	1004c03a 	cmpne	r2,r2,zero
  808ce0:	1000221e 	bne	r2,zero,808d6c <OSTimeDlyResume+0x1e4>
        OSRdyGrp               |= ptcb->OSTCBBitY;             /* No,  Make ready                      */
  808ce4:	e0bffd17 	ldw	r2,-12(fp)
  808ce8:	10c00d83 	ldbu	r3,54(r2)
  808cec:	00802074 	movhi	r2,129
  808cf0:	10875304 	addi	r2,r2,7500
  808cf4:	10800003 	ldbu	r2,0(r2)
  808cf8:	1884b03a 	or	r2,r3,r2
  808cfc:	1007883a 	mov	r3,r2
  808d00:	00802074 	movhi	r2,129
  808d04:	10875304 	addi	r2,r2,7500
  808d08:	10c00005 	stb	r3,0(r2)
        OSRdyTbl[ptcb->OSTCBY] |= ptcb->OSTCBBitX;
  808d0c:	e0bffd17 	ldw	r2,-12(fp)
  808d10:	10800d03 	ldbu	r2,52(r2)
  808d14:	11003fcc 	andi	r4,r2,255
  808d18:	e0bffd17 	ldw	r2,-12(fp)
  808d1c:	10800d03 	ldbu	r2,52(r2)
  808d20:	10c03fcc 	andi	r3,r2,255
  808d24:	00802074 	movhi	r2,129
  808d28:	10875344 	addi	r2,r2,7501
  808d2c:	10c5883a 	add	r2,r2,r3
  808d30:	10c00003 	ldbu	r3,0(r2)
  808d34:	e0bffd17 	ldw	r2,-12(fp)
  808d38:	10800d43 	ldbu	r2,53(r2)
  808d3c:	1884b03a 	or	r2,r3,r2
  808d40:	1007883a 	mov	r3,r2
  808d44:	00802074 	movhi	r2,129
  808d48:	10875344 	addi	r2,r2,7501
  808d4c:	1105883a 	add	r2,r2,r4
  808d50:	10c00005 	stb	r3,0(r2)
  808d54:	e0bffc17 	ldw	r2,-16(fp)
  808d58:	e0bff715 	stw	r2,-36(fp)
  808d5c:	e0bff717 	ldw	r2,-36(fp)
  808d60:	1001703a 	wrctl	status,r2
        OS_EXIT_CRITICAL();
        OS_Sched();                                            /* See if this is new highest priority  */
  808d64:	08025b40 	call	8025b4 <OS_Sched>
  808d68:	00000406 	br	808d7c <OSTimeDlyResume+0x1f4>
  808d6c:	e0bffc17 	ldw	r2,-16(fp)
  808d70:	e0bff615 	stw	r2,-40(fp)
  808d74:	e0bff617 	ldw	r2,-40(fp)
  808d78:	1001703a 	wrctl	status,r2
    } else {
        OS_EXIT_CRITICAL();                                    /* Task may be suspended                */
    }
    return (OS_ERR_NONE);
  808d7c:	e03fff15 	stw	zero,-4(fp)
  808d80:	e0bfff17 	ldw	r2,-4(fp)
}
  808d84:	e037883a 	mov	sp,fp
  808d88:	dfc00117 	ldw	ra,4(sp)
  808d8c:	df000017 	ldw	fp,0(sp)
  808d90:	dec00204 	addi	sp,sp,8
  808d94:	f800283a 	ret

00808d98 <OSTimeGet>:
*********************************************************************************************************
*/

#if OS_TIME_GET_SET_EN > 0
INT32U  OSTimeGet (void)
{
  808d98:	defffb04 	addi	sp,sp,-20
  808d9c:	df000415 	stw	fp,16(sp)
  808da0:	df000404 	addi	fp,sp,16
    INT32U     ticks;
#if OS_CRITICAL_METHOD == 3                      /* Allocate storage for CPU status register           */
    OS_CPU_SR  cpu_sr = 0;
  808da4:	e03ffe15 	stw	zero,-8(fp)
static ALT_INLINE alt_irq_context ALT_ALWAYS_INLINE 
       alt_irq_disable_all (void)
{
  alt_irq_context context;

  NIOS2_READ_STATUS (context);
  808da8:	0005303a 	rdctl	r2,status
  808dac:	e0bffd15 	stw	r2,-12(fp)

  NIOS2_WRITE_STATUS (context & ~NIOS2_STATUS_PIE_MSK);
  808db0:	e0fffd17 	ldw	r3,-12(fp)
  808db4:	00bfff84 	movi	r2,-2
  808db8:	1884703a 	and	r2,r3,r2
  808dbc:	1001703a 	wrctl	status,r2
  
  return context;
  808dc0:	e0bffd17 	ldw	r2,-12(fp)
#endif



    OS_ENTER_CRITICAL();
  808dc4:	e0bffe15 	stw	r2,-8(fp)
    ticks = OSTime;
  808dc8:	00802074 	movhi	r2,129
  808dcc:	10875704 	addi	r2,r2,7516
  808dd0:	10800017 	ldw	r2,0(r2)
  808dd4:	e0bfff15 	stw	r2,-4(fp)
  808dd8:	e0bffe17 	ldw	r2,-8(fp)
  808ddc:	e0bffc15 	stw	r2,-16(fp)
  status &= ~NIOS2_STATUS_PIE_MSK;
  status |= (context & NIOS2_STATUS_PIE_MSK);
  
  NIOS2_WRITE_STATUS (status);
#else
  NIOS2_WRITE_STATUS (context);
  808de0:	e0bffc17 	ldw	r2,-16(fp)
  808de4:	1001703a 	wrctl	status,r2
    OS_EXIT_CRITICAL();
    return (ticks);
  808de8:	e0bfff17 	ldw	r2,-4(fp)
}
  808dec:	e037883a 	mov	sp,fp
  808df0:	df000017 	ldw	fp,0(sp)
  808df4:	dec00104 	addi	sp,sp,4
  808df8:	f800283a 	ret

00808dfc <OSTimeSet>:
*********************************************************************************************************
*/

#if OS_TIME_GET_SET_EN > 0
void  OSTimeSet (INT32U ticks)
{
  808dfc:	defffb04 	addi	sp,sp,-20
  808e00:	df000415 	stw	fp,16(sp)
  808e04:	df000404 	addi	fp,sp,16
  808e08:	e13fff15 	stw	r4,-4(fp)
#if OS_CRITICAL_METHOD == 3                      /* Allocate storage for CPU status register           */
    OS_CPU_SR  cpu_sr = 0;
  808e0c:	e03ffe15 	stw	zero,-8(fp)
static ALT_INLINE alt_irq_context ALT_ALWAYS_INLINE 
       alt_irq_disable_all (void)
{
  alt_irq_context context;

  NIOS2_READ_STATUS (context);
  808e10:	0005303a 	rdctl	r2,status
  808e14:	e0bffd15 	stw	r2,-12(fp)

  NIOS2_WRITE_STATUS (context & ~NIOS2_STATUS_PIE_MSK);
  808e18:	e0fffd17 	ldw	r3,-12(fp)
  808e1c:	00bfff84 	movi	r2,-2
  808e20:	1884703a 	and	r2,r3,r2
  808e24:	1001703a 	wrctl	status,r2
  
  return context;
  808e28:	e0bffd17 	ldw	r2,-12(fp)
#endif



    OS_ENTER_CRITICAL();
  808e2c:	e0bffe15 	stw	r2,-8(fp)
    OSTime = ticks;
  808e30:	00c02074 	movhi	r3,129
  808e34:	18c75704 	addi	r3,r3,7516
  808e38:	e0bfff17 	ldw	r2,-4(fp)
  808e3c:	18800015 	stw	r2,0(r3)
  808e40:	e0bffe17 	ldw	r2,-8(fp)
  808e44:	e0bffc15 	stw	r2,-16(fp)
  status &= ~NIOS2_STATUS_PIE_MSK;
  status |= (context & NIOS2_STATUS_PIE_MSK);
  
  NIOS2_WRITE_STATUS (status);
#else
  NIOS2_WRITE_STATUS (context);
  808e48:	e0bffc17 	ldw	r2,-16(fp)
  808e4c:	1001703a 	wrctl	status,r2
    OS_EXIT_CRITICAL();
}
  808e50:	e037883a 	mov	sp,fp
  808e54:	df000017 	ldw	fp,0(sp)
  808e58:	dec00104 	addi	sp,sp,4
  808e5c:	f800283a 	ret

00808e60 <alt_irq_init>:
 * The "base" parameter is ignored and only
 * present for backwards-compatibility.
 */

void alt_irq_init ( const void* base )
{
  808e60:	defffd04 	addi	sp,sp,-12
  808e64:	dfc00215 	stw	ra,8(sp)
  808e68:	df000115 	stw	fp,4(sp)
  808e6c:	df000104 	addi	fp,sp,4
  808e70:	e13fff15 	stw	r4,-4(fp)
    ALTERA_NIOS2_QSYS_IRQ_INIT ( NIOS2_QSYS_0, nios2_qsys_0);
  808e74:	080b1740 	call	80b174 <altera_nios2_qsys_irq_init>
 * alt_irq_cpu_enable_interrupts() enables the CPU to start taking interrupts.
 */
static ALT_INLINE void ALT_ALWAYS_INLINE 
       alt_irq_cpu_enable_interrupts ()
{
    NIOS2_WRITE_STATUS(NIOS2_STATUS_PIE_MSK
  808e78:	00800044 	movi	r2,1
  808e7c:	1001703a 	wrctl	status,r2
    alt_irq_cpu_enable_interrupts();
}
  808e80:	e037883a 	mov	sp,fp
  808e84:	dfc00117 	ldw	ra,4(sp)
  808e88:	df000017 	ldw	fp,0(sp)
  808e8c:	dec00204 	addi	sp,sp,8
  808e90:	f800283a 	ret

00808e94 <alt_sys_init>:
 * Initialize the non-interrupt controller devices.
 * Called after alt_irq_init().
 */

void alt_sys_init( void )
{
  808e94:	defffe04 	addi	sp,sp,-8
  808e98:	dfc00115 	stw	ra,4(sp)
  808e9c:	df000015 	stw	fp,0(sp)
  808ea0:	d839883a 	mov	fp,sp
    ALTERA_AVALON_TIMER_INIT ( TIMER_0, timer_0);
  808ea4:	01004474 	movhi	r4,273
  808ea8:	21240804 	addi	r4,r4,-28640
  808eac:	000b883a 	mov	r5,zero
  808eb0:	000d883a 	mov	r6,zero
  808eb4:	01c0fa04 	movi	r7,1000
  808eb8:	0809d0c0 	call	809d0c <alt_avalon_timer_sc_init>
    ALTERA_AVALON_JTAG_UART_INIT ( JTAG_UART_0, jtag_uart_0);
  808ebc:	01002074 	movhi	r4,129
  808ec0:	2139ca04 	addi	r4,r4,-6360
  808ec4:	000b883a 	mov	r5,zero
  808ec8:	01800044 	movi	r6,1
  808ecc:	08090880 	call	809088 <altera_avalon_jtag_uart_init>
  808ed0:	01002074 	movhi	r4,129
  808ed4:	2139c004 	addi	r4,r4,-6400
  808ed8:	0808f080 	call	808f08 <alt_dev_reg>
    ALTERA_AVALON_SYSID_QSYS_INIT ( SYSID_QSYS_0, sysid_qsys_0);
    ALTERA_UP_AVALON_CHARACTER_LCD_INIT ( CHARACTER_LCD_0, character_lcd_0);
  808edc:	01002074 	movhi	r4,129
  808ee0:	213ddb04 	addi	r4,r4,-2196
  808ee4:	0809e4c0 	call	809e4c <alt_up_character_lcd_init>
  808ee8:	01002074 	movhi	r4,129
  808eec:	213ddb04 	addi	r4,r4,-2196
  808ef0:	0808f080 	call	808f08 <alt_dev_reg>
}
  808ef4:	e037883a 	mov	sp,fp
  808ef8:	dfc00117 	ldw	ra,4(sp)
  808efc:	df000017 	ldw	fp,0(sp)
  808f00:	dec00204 	addi	sp,sp,8
  808f04:	f800283a 	ret

00808f08 <alt_dev_reg>:
 */

extern int alt_fs_reg  (alt_dev* dev); 

static ALT_INLINE int alt_dev_reg (alt_dev* dev)
{
  808f08:	defffd04 	addi	sp,sp,-12
  808f0c:	dfc00215 	stw	ra,8(sp)
  808f10:	df000115 	stw	fp,4(sp)
  808f14:	df000104 	addi	fp,sp,4
  808f18:	e13fff15 	stw	r4,-4(fp)
  extern alt_llist alt_dev_list;

  return alt_dev_llist_insert ((alt_dev_llist*) dev, &alt_dev_list);
  808f1c:	e13fff17 	ldw	r4,-4(fp)
  808f20:	01402074 	movhi	r5,129
  808f24:	29407304 	addi	r5,r5,460
  808f28:	080a5c80 	call	80a5c8 <alt_dev_llist_insert>
}
  808f2c:	e037883a 	mov	sp,fp
  808f30:	dfc00117 	ldw	ra,4(sp)
  808f34:	df000017 	ldw	fp,0(sp)
  808f38:	dec00204 	addi	sp,sp,8
  808f3c:	f800283a 	ret

00808f40 <altera_avalon_jtag_uart_read_fd>:
 *
 */

int 
altera_avalon_jtag_uart_read_fd(alt_fd* fd, char* buffer, int space)
{
  808f40:	defffa04 	addi	sp,sp,-24
  808f44:	dfc00515 	stw	ra,20(sp)
  808f48:	df000415 	stw	fp,16(sp)
  808f4c:	df000404 	addi	fp,sp,16
  808f50:	e13ffd15 	stw	r4,-12(fp)
  808f54:	e17ffe15 	stw	r5,-8(fp)
  808f58:	e1bfff15 	stw	r6,-4(fp)
    altera_avalon_jtag_uart_dev* dev = (altera_avalon_jtag_uart_dev*) fd->dev; 
  808f5c:	e0bffd17 	ldw	r2,-12(fp)
  808f60:	10800017 	ldw	r2,0(r2)
  808f64:	e0bffc15 	stw	r2,-16(fp)

    return altera_avalon_jtag_uart_read(&dev->state, buffer, space,
  808f68:	e0bffc17 	ldw	r2,-16(fp)
  808f6c:	11000a04 	addi	r4,r2,40
  808f70:	e0bffd17 	ldw	r2,-12(fp)
  808f74:	11c00217 	ldw	r7,8(r2)
  808f78:	e17ffe17 	ldw	r5,-8(fp)
  808f7c:	e1bfff17 	ldw	r6,-4(fp)
  808f80:	08097000 	call	809700 <altera_avalon_jtag_uart_read>
      fd->fd_flags);
}
  808f84:	e037883a 	mov	sp,fp
  808f88:	dfc00117 	ldw	ra,4(sp)
  808f8c:	df000017 	ldw	fp,0(sp)
  808f90:	dec00204 	addi	sp,sp,8
  808f94:	f800283a 	ret

00808f98 <altera_avalon_jtag_uart_write_fd>:

int 
altera_avalon_jtag_uart_write_fd(alt_fd* fd, const char* buffer, int space)
{
  808f98:	defffa04 	addi	sp,sp,-24
  808f9c:	dfc00515 	stw	ra,20(sp)
  808fa0:	df000415 	stw	fp,16(sp)
  808fa4:	df000404 	addi	fp,sp,16
  808fa8:	e13ffd15 	stw	r4,-12(fp)
  808fac:	e17ffe15 	stw	r5,-8(fp)
  808fb0:	e1bfff15 	stw	r6,-4(fp)
    altera_avalon_jtag_uart_dev* dev = (altera_avalon_jtag_uart_dev*) fd->dev; 
  808fb4:	e0bffd17 	ldw	r2,-12(fp)
  808fb8:	10800017 	ldw	r2,0(r2)
  808fbc:	e0bffc15 	stw	r2,-16(fp)

    return altera_avalon_jtag_uart_write(&dev->state, buffer, space,
  808fc0:	e0bffc17 	ldw	r2,-16(fp)
  808fc4:	11000a04 	addi	r4,r2,40
  808fc8:	e0bffd17 	ldw	r2,-12(fp)
  808fcc:	11c00217 	ldw	r7,8(r2)
  808fd0:	e17ffe17 	ldw	r5,-8(fp)
  808fd4:	e1bfff17 	ldw	r6,-4(fp)
  808fd8:	08099c00 	call	8099c0 <altera_avalon_jtag_uart_write>
      fd->fd_flags);
}
  808fdc:	e037883a 	mov	sp,fp
  808fe0:	dfc00117 	ldw	ra,4(sp)
  808fe4:	df000017 	ldw	fp,0(sp)
  808fe8:	dec00204 	addi	sp,sp,8
  808fec:	f800283a 	ret

00808ff0 <altera_avalon_jtag_uart_close_fd>:

#ifndef ALTERA_AVALON_JTAG_UART_SMALL

int 
altera_avalon_jtag_uart_close_fd(alt_fd* fd)
{
  808ff0:	defffc04 	addi	sp,sp,-16
  808ff4:	dfc00315 	stw	ra,12(sp)
  808ff8:	df000215 	stw	fp,8(sp)
  808ffc:	df000204 	addi	fp,sp,8
  809000:	e13fff15 	stw	r4,-4(fp)
    altera_avalon_jtag_uart_dev* dev = (altera_avalon_jtag_uart_dev*) fd->dev; 
  809004:	e0bfff17 	ldw	r2,-4(fp)
  809008:	10800017 	ldw	r2,0(r2)
  80900c:	e0bffe15 	stw	r2,-8(fp)

    return altera_avalon_jtag_uart_close(&dev->state, fd->fd_flags);
  809010:	e0bffe17 	ldw	r2,-8(fp)
  809014:	11000a04 	addi	r4,r2,40
  809018:	e0bfff17 	ldw	r2,-4(fp)
  80901c:	11400217 	ldw	r5,8(r2)
  809020:	08095980 	call	809598 <altera_avalon_jtag_uart_close>
}
  809024:	e037883a 	mov	sp,fp
  809028:	dfc00117 	ldw	ra,4(sp)
  80902c:	df000017 	ldw	fp,0(sp)
  809030:	dec00204 	addi	sp,sp,8
  809034:	f800283a 	ret

00809038 <altera_avalon_jtag_uart_ioctl_fd>:

int 
altera_avalon_jtag_uart_ioctl_fd(alt_fd* fd, int req, void* arg)
{
  809038:	defffa04 	addi	sp,sp,-24
  80903c:	dfc00515 	stw	ra,20(sp)
  809040:	df000415 	stw	fp,16(sp)
  809044:	df000404 	addi	fp,sp,16
  809048:	e13ffd15 	stw	r4,-12(fp)
  80904c:	e17ffe15 	stw	r5,-8(fp)
  809050:	e1bfff15 	stw	r6,-4(fp)
    altera_avalon_jtag_uart_dev* dev = (altera_avalon_jtag_uart_dev*) fd->dev;
  809054:	e0bffd17 	ldw	r2,-12(fp)
  809058:	10800017 	ldw	r2,0(r2)
  80905c:	e0bffc15 	stw	r2,-16(fp)

    return altera_avalon_jtag_uart_ioctl(&dev->state, req, arg);
  809060:	e0bffc17 	ldw	r2,-16(fp)
  809064:	11000a04 	addi	r4,r2,40
  809068:	e17ffe17 	ldw	r5,-8(fp)
  80906c:	e1bfff17 	ldw	r6,-4(fp)
  809070:	080960c0 	call	80960c <altera_avalon_jtag_uart_ioctl>
}
  809074:	e037883a 	mov	sp,fp
  809078:	dfc00117 	ldw	ra,4(sp)
  80907c:	df000017 	ldw	fp,0(sp)
  809080:	dec00204 	addi	sp,sp,8
  809084:	f800283a 	ret

00809088 <altera_avalon_jtag_uart_init>:
 * Return 1 on sucessful IRQ register and 0 on failure.
 */

void altera_avalon_jtag_uart_init(altera_avalon_jtag_uart_state* sp, 
                                  int irq_controller_id, int irq)
{
  809088:	defff404 	addi	sp,sp,-48
  80908c:	dfc00b15 	stw	ra,44(sp)
  809090:	df000a15 	stw	fp,40(sp)
  809094:	df000a04 	addi	fp,sp,40
  809098:	e13ffd15 	stw	r4,-12(fp)
  80909c:	e17ffe15 	stw	r5,-8(fp)
  8090a0:	e1bfff15 	stw	r6,-4(fp)
  ALT_FLAG_CREATE(&sp->events, 0);
  8090a4:	e0bffd17 	ldw	r2,-12(fp)
  8090a8:	10800c04 	addi	r2,r2,48
  8090ac:	e0bffb15 	stw	r2,-20(fp)
  8090b0:	e03ffc0d 	sth	zero,-16(fp)

static ALT_INLINE int ALT_ALWAYS_INLINE alt_flag_create (OS_FLAG_GRP** pgroup, 
               OS_FLAGS flags)
{
  INT8U err;
  *pgroup = OSFlagCreate (flags, &err);
  8090b4:	e13ffc0b 	ldhu	r4,-16(fp)
  8090b8:	e17ffc84 	addi	r5,fp,-14
  8090bc:	080315c0 	call	80315c <OSFlagCreate>
  8090c0:	1007883a 	mov	r3,r2
  8090c4:	e0bffb17 	ldw	r2,-20(fp)
  8090c8:	10c00015 	stw	r3,0(r2)
  ALT_SEM_CREATE(&sp->read_lock, 1);
  8090cc:	e0bffd17 	ldw	r2,-12(fp)
  8090d0:	10800a04 	addi	r2,r2,40
  8090d4:	e0bff915 	stw	r2,-28(fp)
  8090d8:	00800044 	movi	r2,1
  8090dc:	e0bffa0d 	sth	r2,-24(fp)
  8090e0:	e13ffa0b 	ldhu	r4,-24(fp)
  8090e4:	08063640 	call	806364 <OSSemCreate>
  8090e8:	1007883a 	mov	r3,r2
  8090ec:	e0bff917 	ldw	r2,-28(fp)
  8090f0:	10c00015 	stw	r3,0(r2)
  ALT_SEM_CREATE(&sp->write_lock, 1);
  8090f4:	e0bffd17 	ldw	r2,-12(fp)
  8090f8:	10800b04 	addi	r2,r2,44
  8090fc:	e0bff715 	stw	r2,-36(fp)
  809100:	00800044 	movi	r2,1
  809104:	e0bff80d 	sth	r2,-32(fp)
  809108:	e13ff80b 	ldhu	r4,-32(fp)
  80910c:	08063640 	call	806364 <OSSemCreate>
  809110:	1007883a 	mov	r3,r2
  809114:	e0bff717 	ldw	r2,-36(fp)
  809118:	10c00015 	stw	r3,0(r2)

  /* enable read interrupts at the device */
  sp->irq_enable = ALTERA_AVALON_JTAG_UART_CONTROL_RE_MSK;
  80911c:	e0fffd17 	ldw	r3,-12(fp)
  809120:	00800044 	movi	r2,1
  809124:	18800815 	stw	r2,32(r3)

  IOWR_ALTERA_AVALON_JTAG_UART_CONTROL(sp->base, sp->irq_enable); 
  809128:	e0bffd17 	ldw	r2,-12(fp)
  80912c:	10800017 	ldw	r2,0(r2)
  809130:	11000104 	addi	r4,r2,4
  809134:	e0bffd17 	ldw	r2,-12(fp)
  809138:	10800817 	ldw	r2,32(r2)
  80913c:	1007883a 	mov	r3,r2
  809140:	2005883a 	mov	r2,r4
  809144:	10c00035 	stwio	r3,0(r2)
  
  /* register the interrupt handler */
#ifdef ALT_ENHANCED_INTERRUPT_API_PRESENT
  alt_ic_isr_register(irq_controller_id, irq, altera_avalon_jtag_uart_irq, 
  809148:	e13ffe17 	ldw	r4,-8(fp)
  80914c:	e17fff17 	ldw	r5,-4(fp)
  809150:	d8000015 	stw	zero,0(sp)
  809154:	01802074 	movhi	r6,129
  809158:	31a47004 	addi	r6,r6,-28224
  80915c:	e1fffd17 	ldw	r7,-12(fp)
  809160:	080a8540 	call	80a854 <alt_ic_isr_register>
#else
  alt_irq_register(irq, sp, altera_avalon_jtag_uart_irq);
#endif  

  /* Register an alarm to go off every second to check for presence of host */
  sp->host_inactive = 0;
  809164:	e0bffd17 	ldw	r2,-12(fp)
  809168:	10000915 	stw	zero,36(r2)

  if (alt_alarm_start(&sp->alarm, alt_ticks_per_second(), 
  80916c:	e0bffd17 	ldw	r2,-12(fp)
  809170:	11000204 	addi	r4,r2,8
 * Obtain the system clock rate in ticks/s. 
 */

static ALT_INLINE alt_u32 ALT_ALWAYS_INLINE alt_ticks_per_second (void)
{
  return _alt_tick_rate;
  809174:	00802074 	movhi	r2,129
  809178:	10875d04 	addi	r2,r2,7540
  80917c:	10800017 	ldw	r2,0(r2)
  809180:	100b883a 	mov	r5,r2
  809184:	01802074 	movhi	r6,129
  809188:	31a52104 	addi	r6,r6,-27516
  80918c:	e1fffd17 	ldw	r7,-12(fp)
  809190:	080a2cc0 	call	80a2cc <alt_alarm_start>
  809194:	1004403a 	cmpge	r2,r2,zero
  809198:	1000041e 	bne	r2,zero,8091ac <altera_avalon_jtag_uart_init+0x124>
    &altera_avalon_jtag_uart_timeout, sp) < 0)
  {
    /* If we can't set the alarm then record "don't know if host present" 
     * and behave as though the host is present.
     */
    sp->timeout = INT_MAX;
  80919c:	e0fffd17 	ldw	r3,-12(fp)
  8091a0:	00a00034 	movhi	r2,32768
  8091a4:	10bfffc4 	addi	r2,r2,-1
  8091a8:	18800115 	stw	r2,4(r3)
  }

  /* ALT_LOG - see altera_hal/HAL/inc/sys/alt_log_printf.h */ 
  ALT_LOG_JTAG_UART_ALARM_REGISTER(sp, sp->base);
}
  8091ac:	e037883a 	mov	sp,fp
  8091b0:	dfc00117 	ldw	ra,4(sp)
  8091b4:	df000017 	ldw	fp,0(sp)
  8091b8:	dec00204 	addi	sp,sp,8
  8091bc:	f800283a 	ret

008091c0 <altera_avalon_jtag_uart_irq>:
#ifdef ALT_ENHANCED_INTERRUPT_API_PRESENT
static void altera_avalon_jtag_uart_irq(void* context)
#else
static void altera_avalon_jtag_uart_irq(void* context, alt_u32 id)
#endif
{
  8091c0:	defff204 	addi	sp,sp,-56
  8091c4:	dfc00d15 	stw	ra,52(sp)
  8091c8:	df000c15 	stw	fp,48(sp)
  8091cc:	df000c04 	addi	fp,sp,48
  8091d0:	e13fff15 	stw	r4,-4(fp)
  altera_avalon_jtag_uart_state* sp = (altera_avalon_jtag_uart_state*) context;
  8091d4:	e0bfff17 	ldw	r2,-4(fp)
  8091d8:	e0bffd15 	stw	r2,-12(fp)
  unsigned int base = sp->base;
  8091dc:	e0bffd17 	ldw	r2,-12(fp)
  8091e0:	10800017 	ldw	r2,0(r2)
  8091e4:	e0bffc15 	stw	r2,-16(fp)
  8091e8:	00000006 	br	8091ec <altera_avalon_jtag_uart_irq+0x2c>
  /* ALT_LOG - see altera_hal/HAL/inc/sys/alt_log_printf.h */ 
  ALT_LOG_JTAG_UART_ISR_FUNCTION(base, sp);

  for ( ; ; )
  {
    unsigned int control = IORD_ALTERA_AVALON_JTAG_UART_CONTROL(base);
  8091ec:	e0bffc17 	ldw	r2,-16(fp)
  8091f0:	10800104 	addi	r2,r2,4
  8091f4:	10800037 	ldwio	r2,0(r2)
  8091f8:	e0bffb15 	stw	r2,-20(fp)

    /* Return once nothing more to do */
    if ((control & (ALTERA_AVALON_JTAG_UART_CONTROL_RI_MSK | ALTERA_AVALON_JTAG_UART_CONTROL_WI_MSK)) == 0)
  8091fc:	e0bffb17 	ldw	r2,-20(fp)
  809200:	1080c00c 	andi	r2,r2,768
  809204:	1005003a 	cmpeq	r2,r2,zero
  809208:	1000991e 	bne	r2,zero,809470 <altera_avalon_jtag_uart_irq+0x2b0>
      break;

    if (control & ALTERA_AVALON_JTAG_UART_CONTROL_RI_MSK)
  80920c:	e0bffb17 	ldw	r2,-20(fp)
  809210:	1080400c 	andi	r2,r2,256
  809214:	1005003a 	cmpeq	r2,r2,zero
  809218:	1000481e 	bne	r2,zero,80933c <altera_avalon_jtag_uart_irq+0x17c>
    {
      /* process a read irq.  Start by assuming that there is data in the
       * receive FIFO (otherwise why would we have been interrupted?)
       */
      unsigned int data = 1 << ALTERA_AVALON_JTAG_UART_DATA_RAVAIL_OFST;
  80921c:	00800074 	movhi	r2,1
  809220:	e0bffa15 	stw	r2,-24(fp)
  809224:	00000006 	br	809228 <altera_avalon_jtag_uart_irq+0x68>
      for ( ; ; )
      {
        /* Check whether there is space in the buffer.  If not then we must not
         * read any characters from the buffer as they will be lost.
         */
        unsigned int next = (sp->rx_in + 1) % ALTERA_AVALON_JTAG_UART_BUF_LEN;
  809228:	e0bffd17 	ldw	r2,-12(fp)
  80922c:	10800d17 	ldw	r2,52(r2)
  809230:	10800044 	addi	r2,r2,1
  809234:	1081ffcc 	andi	r2,r2,2047
  809238:	e0bff915 	stw	r2,-28(fp)
        if (next == sp->rx_out)
  80923c:	e0bffd17 	ldw	r2,-12(fp)
  809240:	10c00e17 	ldw	r3,56(r2)
  809244:	e0bff917 	ldw	r2,-28(fp)
  809248:	18802826 	beq	r3,r2,8092ec <altera_avalon_jtag_uart_irq+0x12c>
          break;

        /* Try to remove a character from the FIFO and find out whether there
         * are any more characters remaining.
         */
        data = IORD_ALTERA_AVALON_JTAG_UART_DATA(base);
  80924c:	e0bffc17 	ldw	r2,-16(fp)
  809250:	10800037 	ldwio	r2,0(r2)
  809254:	e0bffa15 	stw	r2,-24(fp)
        
        if ((data & ALTERA_AVALON_JTAG_UART_DATA_RVALID_MSK) == 0)
  809258:	e0bffa17 	ldw	r2,-24(fp)
  80925c:	10a0000c 	andi	r2,r2,32768
  809260:	1005003a 	cmpeq	r2,r2,zero
  809264:	1000211e 	bne	r2,zero,8092ec <altera_avalon_jtag_uart_irq+0x12c>
          break;

        sp->rx_buf[sp->rx_in] = (data & ALTERA_AVALON_JTAG_UART_DATA_DATA_MSK) >> ALTERA_AVALON_JTAG_UART_DATA_DATA_OFST;
  809268:	e0bffd17 	ldw	r2,-12(fp)
  80926c:	10c00d17 	ldw	r3,52(r2)
  809270:	e0bffa17 	ldw	r2,-24(fp)
  809274:	1009883a 	mov	r4,r2
  809278:	e0bffd17 	ldw	r2,-12(fp)
  80927c:	1885883a 	add	r2,r3,r2
  809280:	10801104 	addi	r2,r2,68
  809284:	11000005 	stb	r4,0(r2)
        sp->rx_in = (sp->rx_in + 1) % ALTERA_AVALON_JTAG_UART_BUF_LEN;
  809288:	e0bffd17 	ldw	r2,-12(fp)
  80928c:	10800d17 	ldw	r2,52(r2)
  809290:	10800044 	addi	r2,r2,1
  809294:	10c1ffcc 	andi	r3,r2,2047
  809298:	e0bffd17 	ldw	r2,-12(fp)
  80929c:	10c00d15 	stw	r3,52(r2)

        /* Post an event to notify jtag_uart_read that a character has been read */
        ALT_FLAG_POST (sp->events, ALT_JTAG_UART_READ_RDY, OS_FLAG_SET);
  8092a0:	e0bffd17 	ldw	r2,-12(fp)
  8092a4:	10800c17 	ldw	r2,48(r2)
  8092a8:	e0bff615 	stw	r2,-40(fp)
  8092ac:	00800044 	movi	r2,1
  8092b0:	e0bff70d 	sth	r2,-36(fp)
  8092b4:	00800044 	movi	r2,1
  8092b8:	e0bff785 	stb	r2,-34(fp)
                   OS_FLAGS     flags, 
                   INT8U        opt)
{
  INT8U err;

  if (OSRunning)
  8092bc:	00802074 	movhi	r2,129
  8092c0:	10874744 	addi	r2,r2,7453
  8092c4:	10800003 	ldbu	r2,0(r2)
  8092c8:	10803fcc 	andi	r2,r2,255
  8092cc:	1005003a 	cmpeq	r2,r2,zero
  8092d0:	103fd51e 	bne	r2,zero,809228 <altera_avalon_jtag_uart_irq+0x68>
  {
    OSFlagPost (group, flags, opt, &err);
  8092d4:	e17ff70b 	ldhu	r5,-36(fp)
  8092d8:	e1bff783 	ldbu	r6,-34(fp)
  8092dc:	e1fffe04 	addi	r7,fp,-8
  8092e0:	e13ff617 	ldw	r4,-40(fp)
  8092e4:	0803e840 	call	803e84 <OSFlagPost>
    return err;
  8092e8:	003fcf06 	br	809228 <altera_avalon_jtag_uart_irq+0x68>
      }

      if (data & ALTERA_AVALON_JTAG_UART_DATA_RAVAIL_MSK)
  8092ec:	e0bffa17 	ldw	r2,-24(fp)
  8092f0:	10bfffec 	andhi	r2,r2,65535
  8092f4:	1005003a 	cmpeq	r2,r2,zero
  8092f8:	1000101e 	bne	r2,zero,80933c <altera_avalon_jtag_uart_irq+0x17c>
      {
        /* If there is still data available here then the buffer is full 
         * so turn off receive interrupts until some space becomes available.
         */
        sp->irq_enable &= ~ALTERA_AVALON_JTAG_UART_CONTROL_RE_MSK;
  8092fc:	e0bffd17 	ldw	r2,-12(fp)
  809300:	10c00817 	ldw	r3,32(r2)
  809304:	00bfff84 	movi	r2,-2
  809308:	1886703a 	and	r3,r3,r2
  80930c:	e0bffd17 	ldw	r2,-12(fp)
  809310:	10c00815 	stw	r3,32(r2)
        IOWR_ALTERA_AVALON_JTAG_UART_CONTROL(base, sp->irq_enable);
  809314:	e0bffc17 	ldw	r2,-16(fp)
  809318:	11000104 	addi	r4,r2,4
  80931c:	e0bffd17 	ldw	r2,-12(fp)
  809320:	10800817 	ldw	r2,32(r2)
  809324:	1007883a 	mov	r3,r2
  809328:	2005883a 	mov	r2,r4
  80932c:	10c00035 	stwio	r3,0(r2)
        
        /* Dummy read to ensure IRQ is cleared prior to ISR completion */
        IORD_ALTERA_AVALON_JTAG_UART_CONTROL(base);
  809330:	e0bffc17 	ldw	r2,-16(fp)
  809334:	10800104 	addi	r2,r2,4
  809338:	10800037 	ldwio	r2,0(r2)
      }
    }

    if (control & ALTERA_AVALON_JTAG_UART_CONTROL_WI_MSK)
  80933c:	e0bffb17 	ldw	r2,-20(fp)
  809340:	1080800c 	andi	r2,r2,512
  809344:	1005003a 	cmpeq	r2,r2,zero
  809348:	103fa81e 	bne	r2,zero,8091ec <altera_avalon_jtag_uart_irq+0x2c>
    {
      /* process a write irq */
      unsigned int space = (control & ALTERA_AVALON_JTAG_UART_CONTROL_WSPACE_MSK) >> ALTERA_AVALON_JTAG_UART_CONTROL_WSPACE_OFST;
  80934c:	e0bffb17 	ldw	r2,-20(fp)
  809350:	10bfffec 	andhi	r2,r2,65535
  809354:	1004d43a 	srli	r2,r2,16
  809358:	e0bff815 	stw	r2,-32(fp)

      while (space > 0 && sp->tx_out != sp->tx_in)
  80935c:	00002706 	br	8093fc <altera_avalon_jtag_uart_irq+0x23c>
      {
        IOWR_ALTERA_AVALON_JTAG_UART_DATA(base, sp->tx_buf[sp->tx_out]);
  809360:	e13ffc17 	ldw	r4,-16(fp)
  809364:	e0bffd17 	ldw	r2,-12(fp)
  809368:	10c01017 	ldw	r3,64(r2)
  80936c:	e0bffd17 	ldw	r2,-12(fp)
  809370:	1885883a 	add	r2,r3,r2
  809374:	10821104 	addi	r2,r2,2116
  809378:	10800003 	ldbu	r2,0(r2)
  80937c:	10c03fcc 	andi	r3,r2,255
  809380:	18c0201c 	xori	r3,r3,128
  809384:	18ffe004 	addi	r3,r3,-128
  809388:	2005883a 	mov	r2,r4
  80938c:	10c00035 	stwio	r3,0(r2)

        sp->tx_out = (sp->tx_out + 1) % ALTERA_AVALON_JTAG_UART_BUF_LEN;
  809390:	e0bffd17 	ldw	r2,-12(fp)
  809394:	10801017 	ldw	r2,64(r2)
  809398:	10800044 	addi	r2,r2,1
  80939c:	10c1ffcc 	andi	r3,r2,2047
  8093a0:	e0bffd17 	ldw	r2,-12(fp)
  8093a4:	10c01015 	stw	r3,64(r2)

        /* Post an event to notify jtag_uart_write that a character has been written */
        ALT_FLAG_POST (sp->events, ALT_JTAG_UART_WRITE_RDY, OS_FLAG_SET);
  8093a8:	e0bffd17 	ldw	r2,-12(fp)
  8093ac:	10800c17 	ldw	r2,48(r2)
  8093b0:	e0bff415 	stw	r2,-48(fp)
  8093b4:	00800084 	movi	r2,2
  8093b8:	e0bff50d 	sth	r2,-44(fp)
  8093bc:	00800044 	movi	r2,1
  8093c0:	e0bff585 	stb	r2,-42(fp)
                   OS_FLAGS     flags, 
                   INT8U        opt)
{
  INT8U err;

  if (OSRunning)
  8093c4:	00802074 	movhi	r2,129
  8093c8:	10874744 	addi	r2,r2,7453
  8093cc:	10800003 	ldbu	r2,0(r2)
  8093d0:	10803fcc 	andi	r2,r2,255
  8093d4:	1005003a 	cmpeq	r2,r2,zero
  8093d8:	1000051e 	bne	r2,zero,8093f0 <altera_avalon_jtag_uart_irq+0x230>
  {
    OSFlagPost (group, flags, opt, &err);
  8093dc:	e17ff50b 	ldhu	r5,-44(fp)
  8093e0:	e1bff583 	ldbu	r6,-42(fp)
  8093e4:	e1fffe44 	addi	r7,fp,-7
  8093e8:	e13ff417 	ldw	r4,-48(fp)
  8093ec:	0803e840 	call	803e84 <OSFlagPost>

        space--;
  8093f0:	e0bff817 	ldw	r2,-32(fp)
  8093f4:	10bfffc4 	addi	r2,r2,-1
  8093f8:	e0bff815 	stw	r2,-32(fp)
    if (control & ALTERA_AVALON_JTAG_UART_CONTROL_WI_MSK)
    {
      /* process a write irq */
      unsigned int space = (control & ALTERA_AVALON_JTAG_UART_CONTROL_WSPACE_MSK) >> ALTERA_AVALON_JTAG_UART_CONTROL_WSPACE_OFST;

      while (space > 0 && sp->tx_out != sp->tx_in)
  8093fc:	e0bff817 	ldw	r2,-32(fp)
  809400:	1005003a 	cmpeq	r2,r2,zero
  809404:	1000051e 	bne	r2,zero,80941c <altera_avalon_jtag_uart_irq+0x25c>
  809408:	e0bffd17 	ldw	r2,-12(fp)
  80940c:	10c01017 	ldw	r3,64(r2)
  809410:	e0bffd17 	ldw	r2,-12(fp)
  809414:	10800f17 	ldw	r2,60(r2)
  809418:	18bfd11e 	bne	r3,r2,809360 <altera_avalon_jtag_uart_irq+0x1a0>
        ALT_FLAG_POST (sp->events, ALT_JTAG_UART_WRITE_RDY, OS_FLAG_SET);

        space--;
      }

      if (space > 0)
  80941c:	e0bff817 	ldw	r2,-32(fp)
  809420:	1005003a 	cmpeq	r2,r2,zero
  809424:	103f711e 	bne	r2,zero,8091ec <altera_avalon_jtag_uart_irq+0x2c>
      {
        /* If we don't have any more data available then turn off the TX interrupt */
        sp->irq_enable &= ~ALTERA_AVALON_JTAG_UART_CONTROL_WE_MSK;
  809428:	e0bffd17 	ldw	r2,-12(fp)
  80942c:	10c00817 	ldw	r3,32(r2)
  809430:	00bfff44 	movi	r2,-3
  809434:	1886703a 	and	r3,r3,r2
  809438:	e0bffd17 	ldw	r2,-12(fp)
  80943c:	10c00815 	stw	r3,32(r2)
        IOWR_ALTERA_AVALON_JTAG_UART_CONTROL(sp->base, sp->irq_enable);
  809440:	e0bffd17 	ldw	r2,-12(fp)
  809444:	10800017 	ldw	r2,0(r2)
  809448:	11000104 	addi	r4,r2,4
  80944c:	e0bffd17 	ldw	r2,-12(fp)
  809450:	10800817 	ldw	r2,32(r2)
  809454:	1007883a 	mov	r3,r2
  809458:	2005883a 	mov	r2,r4
  80945c:	10c00035 	stwio	r3,0(r2)
        
        /* Dummy read to ensure IRQ is cleared prior to ISR completion */
        IORD_ALTERA_AVALON_JTAG_UART_CONTROL(base);
  809460:	e0bffc17 	ldw	r2,-16(fp)
  809464:	10800104 	addi	r2,r2,4
  809468:	10800037 	ldwio	r2,0(r2)
      }
    }
  }
  80946c:	003f5f06 	br	8091ec <altera_avalon_jtag_uart_irq+0x2c>
}
  809470:	e037883a 	mov	sp,fp
  809474:	dfc00117 	ldw	ra,4(sp)
  809478:	df000017 	ldw	fp,0(sp)
  80947c:	dec00204 	addi	sp,sp,8
  809480:	f800283a 	ret

00809484 <altera_avalon_jtag_uart_timeout>:
 * Timeout routine is called every second
 */

static alt_u32 
altera_avalon_jtag_uart_timeout(void* context) 
{
  809484:	defff804 	addi	sp,sp,-32
  809488:	dfc00715 	stw	ra,28(sp)
  80948c:	df000615 	stw	fp,24(sp)
  809490:	df000604 	addi	fp,sp,24
  809494:	e13fff15 	stw	r4,-4(fp)
  altera_avalon_jtag_uart_state* sp = (altera_avalon_jtag_uart_state *) context;
  809498:	e0bfff17 	ldw	r2,-4(fp)
  80949c:	e0bffd15 	stw	r2,-12(fp)

  unsigned int control = IORD_ALTERA_AVALON_JTAG_UART_CONTROL(sp->base);
  8094a0:	e0bffd17 	ldw	r2,-12(fp)
  8094a4:	10800017 	ldw	r2,0(r2)
  8094a8:	10800104 	addi	r2,r2,4
  8094ac:	10800037 	ldwio	r2,0(r2)
  8094b0:	e0bffc15 	stw	r2,-16(fp)

  if (control & ALTERA_AVALON_JTAG_UART_CONTROL_AC_MSK)
  8094b4:	e0bffc17 	ldw	r2,-16(fp)
  8094b8:	1081000c 	andi	r2,r2,1024
  8094bc:	1005003a 	cmpeq	r2,r2,zero
  8094c0:	10000c1e 	bne	r2,zero,8094f4 <altera_avalon_jtag_uart_timeout+0x70>
  {
    IOWR_ALTERA_AVALON_JTAG_UART_CONTROL(sp->base, sp->irq_enable | ALTERA_AVALON_JTAG_UART_CONTROL_AC_MSK);
  8094c4:	e0bffd17 	ldw	r2,-12(fp)
  8094c8:	10800017 	ldw	r2,0(r2)
  8094cc:	11000104 	addi	r4,r2,4
  8094d0:	e0bffd17 	ldw	r2,-12(fp)
  8094d4:	10800817 	ldw	r2,32(r2)
  8094d8:	10810014 	ori	r2,r2,1024
  8094dc:	1007883a 	mov	r3,r2
  8094e0:	2005883a 	mov	r2,r4
  8094e4:	10c00035 	stwio	r3,0(r2)
    sp->host_inactive = 0;
  8094e8:	e0bffd17 	ldw	r2,-12(fp)
  8094ec:	10000915 	stw	zero,36(r2)
  8094f0:	00002106 	br	809578 <altera_avalon_jtag_uart_timeout+0xf4>
  }
  else if (sp->host_inactive < INT_MAX - 2) {
  8094f4:	e0bffd17 	ldw	r2,-12(fp)
  8094f8:	10c00917 	ldw	r3,36(r2)
  8094fc:	00a00034 	movhi	r2,32768
  809500:	10bfff04 	addi	r2,r2,-4
  809504:	10c01c36 	bltu	r2,r3,809578 <altera_avalon_jtag_uart_timeout+0xf4>
    sp->host_inactive++;
  809508:	e0bffd17 	ldw	r2,-12(fp)
  80950c:	10800917 	ldw	r2,36(r2)
  809510:	10c00044 	addi	r3,r2,1
  809514:	e0bffd17 	ldw	r2,-12(fp)
  809518:	10c00915 	stw	r3,36(r2)
    
    if (sp->host_inactive >= sp->timeout) {
  80951c:	e0bffd17 	ldw	r2,-12(fp)
  809520:	10c00917 	ldw	r3,36(r2)
  809524:	e0bffd17 	ldw	r2,-12(fp)
  809528:	10800117 	ldw	r2,4(r2)
  80952c:	18801236 	bltu	r3,r2,809578 <altera_avalon_jtag_uart_timeout+0xf4>
      /* Post an event to indicate host is inactive (for jtag_uart_read */
      ALT_FLAG_POST (sp->events, ALT_JTAG_UART_TIMEOUT, OS_FLAG_SET);
  809530:	e0bffd17 	ldw	r2,-12(fp)
  809534:	10800c17 	ldw	r2,48(r2)
  809538:	e0bffa15 	stw	r2,-24(fp)
  80953c:	00800104 	movi	r2,4
  809540:	e0bffb0d 	sth	r2,-20(fp)
  809544:	00800044 	movi	r2,1
  809548:	e0bffb85 	stb	r2,-18(fp)
                   OS_FLAGS     flags, 
                   INT8U        opt)
{
  INT8U err;

  if (OSRunning)
  80954c:	00802074 	movhi	r2,129
  809550:	10874744 	addi	r2,r2,7453
  809554:	10800003 	ldbu	r2,0(r2)
  809558:	10803fcc 	andi	r2,r2,255
  80955c:	1005003a 	cmpeq	r2,r2,zero
  809560:	1000051e 	bne	r2,zero,809578 <altera_avalon_jtag_uart_timeout+0xf4>
  {
    OSFlagPost (group, flags, opt, &err);
  809564:	e17ffb0b 	ldhu	r5,-20(fp)
  809568:	e1bffb83 	ldbu	r6,-18(fp)
  80956c:	e1fffe04 	addi	r7,fp,-8
  809570:	e13ffa17 	ldw	r4,-24(fp)
  809574:	0803e840 	call	803e84 <OSFlagPost>
  809578:	00802074 	movhi	r2,129
  80957c:	10875d04 	addi	r2,r2,7540
  809580:	10800017 	ldw	r2,0(r2)
    }
  }

  return alt_ticks_per_second();
}
  809584:	e037883a 	mov	sp,fp
  809588:	dfc00117 	ldw	ra,4(sp)
  80958c:	df000017 	ldw	fp,0(sp)
  809590:	dec00204 	addi	sp,sp,8
  809594:	f800283a 	ret

00809598 <altera_avalon_jtag_uart_close>:
 * The close routine is not implemented for the small driver; instead it will
 * map to null. This is because the small driver simply waits while characters
 * are transmitted; there is no interrupt-serviced buffer to empty 
 */
int altera_avalon_jtag_uart_close(altera_avalon_jtag_uart_state* sp, int flags)
{
  809598:	defffc04 	addi	sp,sp,-16
  80959c:	df000315 	stw	fp,12(sp)
  8095a0:	df000304 	addi	fp,sp,12
  8095a4:	e13ffd15 	stw	r4,-12(fp)
  8095a8:	e17ffe15 	stw	r5,-8(fp)
  /* 
   * Wait for all transmit data to be emptied by the JTAG UART ISR, or
   * for a host-inactivity timeout, in which case transmit data will be lost
   */
  while ( (sp->tx_out != sp->tx_in) && (sp->host_inactive < sp->timeout) ) {
  8095ac:	00000706 	br	8095cc <altera_avalon_jtag_uart_close+0x34>
    if (flags & O_NONBLOCK) {
  8095b0:	e0bffe17 	ldw	r2,-8(fp)
  8095b4:	1090000c 	andi	r2,r2,16384
  8095b8:	1005003a 	cmpeq	r2,r2,zero
  8095bc:	1000031e 	bne	r2,zero,8095cc <altera_avalon_jtag_uart_close+0x34>
      return -EWOULDBLOCK; 
  8095c0:	00bffd44 	movi	r2,-11
  8095c4:	e0bfff15 	stw	r2,-4(fp)
  8095c8:	00000b06 	br	8095f8 <altera_avalon_jtag_uart_close+0x60>
{
  /* 
   * Wait for all transmit data to be emptied by the JTAG UART ISR, or
   * for a host-inactivity timeout, in which case transmit data will be lost
   */
  while ( (sp->tx_out != sp->tx_in) && (sp->host_inactive < sp->timeout) ) {
  8095cc:	e0bffd17 	ldw	r2,-12(fp)
  8095d0:	10c01017 	ldw	r3,64(r2)
  8095d4:	e0bffd17 	ldw	r2,-12(fp)
  8095d8:	10800f17 	ldw	r2,60(r2)
  8095dc:	18800526 	beq	r3,r2,8095f4 <altera_avalon_jtag_uart_close+0x5c>
  8095e0:	e0bffd17 	ldw	r2,-12(fp)
  8095e4:	10c00917 	ldw	r3,36(r2)
  8095e8:	e0bffd17 	ldw	r2,-12(fp)
  8095ec:	10800117 	ldw	r2,4(r2)
  8095f0:	18bfef36 	bltu	r3,r2,8095b0 <altera_avalon_jtag_uart_close+0x18>
    if (flags & O_NONBLOCK) {
      return -EWOULDBLOCK; 
    }
  }

  return 0;
  8095f4:	e03fff15 	stw	zero,-4(fp)
  8095f8:	e0bfff17 	ldw	r2,-4(fp)
}
  8095fc:	e037883a 	mov	sp,fp
  809600:	df000017 	ldw	fp,0(sp)
  809604:	dec00104 	addi	sp,sp,4
  809608:	f800283a 	ret

0080960c <altera_avalon_jtag_uart_ioctl>:
/* ----------------------------------------------------------- */

int 
altera_avalon_jtag_uart_ioctl(altera_avalon_jtag_uart_state* sp, int req,
  void* arg)
{
  80960c:	defff804 	addi	sp,sp,-32
  809610:	df000715 	stw	fp,28(sp)
  809614:	df000704 	addi	fp,sp,28
  809618:	e13ffb15 	stw	r4,-20(fp)
  80961c:	e17ffc15 	stw	r5,-16(fp)
  809620:	e1bffd15 	stw	r6,-12(fp)
  int rc = -ENOTTY;
  809624:	00bff9c4 	movi	r2,-25
  809628:	e0bffa15 	stw	r2,-24(fp)

  switch (req)
  80962c:	e0bffc17 	ldw	r2,-16(fp)
  809630:	e0bfff15 	stw	r2,-4(fp)
  809634:	e0ffff17 	ldw	r3,-4(fp)
  809638:	189a8060 	cmpeqi	r2,r3,27137
  80963c:	1000041e 	bne	r2,zero,809650 <altera_avalon_jtag_uart_ioctl+0x44>
  809640:	e0ffff17 	ldw	r3,-4(fp)
  809644:	189a80a0 	cmpeqi	r2,r3,27138
  809648:	10001b1e 	bne	r2,zero,8096b8 <altera_avalon_jtag_uart_ioctl+0xac>
  80964c:	00002706 	br	8096ec <altera_avalon_jtag_uart_ioctl+0xe0>
  {
  case TIOCSTIMEOUT:
    /* Set the time to wait until assuming host is not connected */
    if (sp->timeout != INT_MAX)
  809650:	e0bffb17 	ldw	r2,-20(fp)
  809654:	10c00117 	ldw	r3,4(r2)
  809658:	00a00034 	movhi	r2,32768
  80965c:	10bfffc4 	addi	r2,r2,-1
  809660:	18802226 	beq	r3,r2,8096ec <altera_avalon_jtag_uart_ioctl+0xe0>
    {
      int timeout = *((int *)arg);
  809664:	e0bffd17 	ldw	r2,-12(fp)
  809668:	10800017 	ldw	r2,0(r2)
  80966c:	e0bff915 	stw	r2,-28(fp)
      sp->timeout = (timeout >= 2 && timeout < INT_MAX) ? timeout : INT_MAX - 1;
  809670:	e0bff917 	ldw	r2,-28(fp)
  809674:	10800090 	cmplti	r2,r2,2
  809678:	1000071e 	bne	r2,zero,809698 <altera_avalon_jtag_uart_ioctl+0x8c>
  80967c:	e0fff917 	ldw	r3,-28(fp)
  809680:	00a00034 	movhi	r2,32768
  809684:	10bfffc4 	addi	r2,r2,-1
  809688:	18800326 	beq	r3,r2,809698 <altera_avalon_jtag_uart_ioctl+0x8c>
  80968c:	e0bff917 	ldw	r2,-28(fp)
  809690:	e0bffe15 	stw	r2,-8(fp)
  809694:	00000306 	br	8096a4 <altera_avalon_jtag_uart_ioctl+0x98>
  809698:	00e00034 	movhi	r3,32768
  80969c:	18ffff84 	addi	r3,r3,-2
  8096a0:	e0fffe15 	stw	r3,-8(fp)
  8096a4:	e0bffb17 	ldw	r2,-20(fp)
  8096a8:	e0fffe17 	ldw	r3,-8(fp)
  8096ac:	10c00115 	stw	r3,4(r2)
      rc = 0;
  8096b0:	e03ffa15 	stw	zero,-24(fp)
    }
    break;
  8096b4:	00000d06 	br	8096ec <altera_avalon_jtag_uart_ioctl+0xe0>

  case TIOCGCONNECTED:
    /* Find out whether host is connected */
    if (sp->timeout != INT_MAX)
  8096b8:	e0bffb17 	ldw	r2,-20(fp)
  8096bc:	10c00117 	ldw	r3,4(r2)
  8096c0:	00a00034 	movhi	r2,32768
  8096c4:	10bfffc4 	addi	r2,r2,-1
  8096c8:	18800826 	beq	r3,r2,8096ec <altera_avalon_jtag_uart_ioctl+0xe0>
    {
      *((int *)arg) = (sp->host_inactive < sp->timeout) ? 1 : 0;
  8096cc:	e13ffd17 	ldw	r4,-12(fp)
  8096d0:	e0bffb17 	ldw	r2,-20(fp)
  8096d4:	10c00917 	ldw	r3,36(r2)
  8096d8:	e0bffb17 	ldw	r2,-20(fp)
  8096dc:	10800117 	ldw	r2,4(r2)
  8096e0:	1885803a 	cmpltu	r2,r3,r2
  8096e4:	20800015 	stw	r2,0(r4)
      rc = 0;
  8096e8:	e03ffa15 	stw	zero,-24(fp)

  default:
    break;
  }

  return rc;
  8096ec:	e0bffa17 	ldw	r2,-24(fp)
}
  8096f0:	e037883a 	mov	sp,fp
  8096f4:	df000017 	ldw	fp,0(sp)
  8096f8:	dec00104 	addi	sp,sp,4
  8096fc:	f800283a 	ret

00809700 <altera_avalon_jtag_uart_read>:
/* ----------------------------------------------------------- */

int 
altera_avalon_jtag_uart_read(altera_avalon_jtag_uart_state* sp, 
  char * buffer, int space, int flags)
{
  809700:	deffeb04 	addi	sp,sp,-84
  809704:	dfc01415 	stw	ra,80(sp)
  809708:	df001315 	stw	fp,76(sp)
  80970c:	df001304 	addi	fp,sp,76
  809710:	e13ffb15 	stw	r4,-20(fp)
  809714:	e17ffc15 	stw	r5,-16(fp)
  809718:	e1bffd15 	stw	r6,-12(fp)
  80971c:	e1fffe15 	stw	r7,-8(fp)
  char * ptr = buffer;
  809720:	e0bffc17 	ldw	r2,-16(fp)
  809724:	e0bff915 	stw	r2,-28(fp)

  /*
   * When running in a multi threaded environment, obtain the "read_lock"
   * semaphore. This ensures that reading from the device is thread-safe.
   */
  ALT_SEM_PEND (sp->read_lock, 0);
  809728:	e0bffb17 	ldw	r2,-20(fp)
  80972c:	10800a17 	ldw	r2,40(r2)
  809730:	e0bff315 	stw	r2,-52(fp)
  809734:	e03ff40d 	sth	zero,-48(fp)

static ALT_INLINE int ALT_ALWAYS_INLINE alt_sem_pend (OS_EVENT* sem, 
                  INT16U timeout)
{
  INT8U err;
  OSSemPend (sem, timeout, &err);
  809738:	e17ff40b 	ldhu	r5,-48(fp)
  80973c:	e1bffa44 	addi	r6,fp,-23
  809740:	e13ff317 	ldw	r4,-52(fp)
  809744:	08067180 	call	806718 <OSSemPend>

  while (space > 0)
  809748:	00006406 	br	8098dc <altera_avalon_jtag_uart_read+0x1dc>
    unsigned int in, out;

    /* Read as much data as possible */
    do
    {
      in  = sp->rx_in;
  80974c:	e0bffb17 	ldw	r2,-20(fp)
  809750:	10800d17 	ldw	r2,52(r2)
  809754:	e0bff615 	stw	r2,-40(fp)
      out = sp->rx_out;
  809758:	e0bffb17 	ldw	r2,-20(fp)
  80975c:	10800e17 	ldw	r2,56(r2)
  809760:	e0bff515 	stw	r2,-44(fp)

      if (in >= out)
  809764:	e0fff617 	ldw	r3,-40(fp)
  809768:	e0bff517 	ldw	r2,-44(fp)
  80976c:	18800536 	bltu	r3,r2,809784 <altera_avalon_jtag_uart_read+0x84>
        n = in - out;
  809770:	e0bff617 	ldw	r2,-40(fp)
  809774:	e0fff517 	ldw	r3,-44(fp)
  809778:	10c5c83a 	sub	r2,r2,r3
  80977c:	e0bff715 	stw	r2,-36(fp)
  809780:	00000406 	br	809794 <altera_avalon_jtag_uart_read+0x94>
      else
        n = ALTERA_AVALON_JTAG_UART_BUF_LEN - out;
  809784:	00820004 	movi	r2,2048
  809788:	e0fff517 	ldw	r3,-44(fp)
  80978c:	10c5c83a 	sub	r2,r2,r3
  809790:	e0bff715 	stw	r2,-36(fp)

      if (n == 0)
  809794:	e0bff717 	ldw	r2,-36(fp)
  809798:	1005003a 	cmpeq	r2,r2,zero
  80979c:	10001f1e 	bne	r2,zero,80981c <altera_avalon_jtag_uart_read+0x11c>
        break; /* No more data available */

      if (n > space)
  8097a0:	e0fffd17 	ldw	r3,-12(fp)
  8097a4:	e0bff717 	ldw	r2,-36(fp)
  8097a8:	1880022e 	bgeu	r3,r2,8097b4 <altera_avalon_jtag_uart_read+0xb4>
        n = space;
  8097ac:	e0bffd17 	ldw	r2,-12(fp)
  8097b0:	e0bff715 	stw	r2,-36(fp)

      memcpy(ptr, sp->rx_buf + out, n);
  8097b4:	e0bffb17 	ldw	r2,-20(fp)
  8097b8:	10c01104 	addi	r3,r2,68
  8097bc:	e0bff517 	ldw	r2,-44(fp)
  8097c0:	1887883a 	add	r3,r3,r2
  8097c4:	e0bff917 	ldw	r2,-28(fp)
  8097c8:	1009883a 	mov	r4,r2
  8097cc:	180b883a 	mov	r5,r3
  8097d0:	e1bff717 	ldw	r6,-36(fp)
  8097d4:	080b9600 	call	80b960 <memcpy>
      ptr   += n;
  8097d8:	e0fff717 	ldw	r3,-36(fp)
  8097dc:	e0bff917 	ldw	r2,-28(fp)
  8097e0:	10c5883a 	add	r2,r2,r3
  8097e4:	e0bff915 	stw	r2,-28(fp)
      space -= n;
  8097e8:	e0fffd17 	ldw	r3,-12(fp)
  8097ec:	e0bff717 	ldw	r2,-36(fp)
  8097f0:	1885c83a 	sub	r2,r3,r2
  8097f4:	e0bffd15 	stw	r2,-12(fp)

      sp->rx_out = (out + n) % ALTERA_AVALON_JTAG_UART_BUF_LEN;
  8097f8:	e0fff517 	ldw	r3,-44(fp)
  8097fc:	e0bff717 	ldw	r2,-36(fp)
  809800:	1885883a 	add	r2,r3,r2
  809804:	10c1ffcc 	andi	r3,r2,2047
  809808:	e0bffb17 	ldw	r2,-20(fp)
  80980c:	10c00e15 	stw	r3,56(r2)
    }
    while (space > 0);
  809810:	e0bffd17 	ldw	r2,-12(fp)
  809814:	10800048 	cmpgei	r2,r2,1
  809818:	103fcc1e 	bne	r2,zero,80974c <altera_avalon_jtag_uart_read+0x4c>

    /* If we read any data then return it */
    if (ptr != buffer)
  80981c:	e0fff917 	ldw	r3,-28(fp)
  809820:	e0bffc17 	ldw	r2,-16(fp)
  809824:	1880301e 	bne	r3,r2,8098e8 <altera_avalon_jtag_uart_read+0x1e8>
      break;

    /* If in non-blocking mode then return error */
    if (flags & O_NONBLOCK)
  809828:	e0bffe17 	ldw	r2,-8(fp)
  80982c:	1090000c 	andi	r2,r2,16384
  809830:	1004c03a 	cmpne	r2,r2,zero
  809834:	10002c1e 	bne	r2,zero,8098e8 <altera_avalon_jtag_uart_read+0x1e8>
      break;

#ifdef __ucosii__
    /* OS Present: Pend on a flag if the OS is running, otherwise spin */
    if(OSRunning == OS_TRUE) {
  809838:	00802074 	movhi	r2,129
  80983c:	10874744 	addi	r2,r2,7453
  809840:	10800003 	ldbu	r2,0(r2)
  809844:	10803fcc 	andi	r2,r2,255
  809848:	10800058 	cmpnei	r2,r2,1
  80984c:	1000161e 	bne	r2,zero,8098a8 <altera_avalon_jtag_uart_read+0x1a8>
       * When running in a multi-threaded mode, we pend on the read event
       * flag set and timeout event flag set in the isr. This avoids wasting CPU
       * cycles waiting in this thread, when we could be doing something more
       * profitable elsewhere.
       */
      ALT_FLAG_PEND (sp->events,
  809850:	e0bffb17 	ldw	r2,-20(fp)
  809854:	10800c17 	ldw	r2,48(r2)
  809858:	e0bff015 	stw	r2,-64(fp)
  80985c:	00800144 	movi	r2,5
  809860:	e0bff10d 	sth	r2,-60(fp)
  809864:	00bfe0c4 	movi	r2,-125
  809868:	e0bff185 	stb	r2,-58(fp)
  80986c:	e03ff20d 	sth	zero,-56(fp)
                   OS_FLAGS flags, 
                   INT8U wait_type, 
                   INT16U timeout)
{
  INT8U err;
  if (OSRunning)
  809870:	00802074 	movhi	r2,129
  809874:	10874744 	addi	r2,r2,7453
  809878:	10800003 	ldbu	r2,0(r2)
  80987c:	10803fcc 	andi	r2,r2,255
  809880:	1005003a 	cmpeq	r2,r2,zero
  809884:	1000111e 	bne	r2,zero,8098cc <altera_avalon_jtag_uart_read+0x1cc>
  {
    OSFlagPend (group, flags, wait_type, timeout, &err);
  809888:	e17ff10b 	ldhu	r5,-60(fp)
  80988c:	e1bff183 	ldbu	r6,-58(fp)
  809890:	e1fff20b 	ldhu	r7,-56(fp)
  809894:	e0bffa04 	addi	r2,fp,-24
  809898:	d8800015 	stw	r2,0(sp)
  80989c:	e13ff017 	ldw	r4,-64(fp)
  8098a0:	08037d80 	call	8037d8 <OSFlagPend>
    return err;
  8098a4:	00000906 	br	8098cc <altera_avalon_jtag_uart_read+0x1cc>
                     OS_FLAG_WAIT_SET_ANY + OS_FLAG_CONSUME,
                     0);
    }
    else {
      /* Spin until more data arrives or until host disconnects */
      while (in == sp->rx_in && sp->host_inactive < sp->timeout)
  8098a8:	e0bffb17 	ldw	r2,-20(fp)
  8098ac:	10c00d17 	ldw	r3,52(r2)
  8098b0:	e0bff617 	ldw	r2,-40(fp)
  8098b4:	1880051e 	bne	r3,r2,8098cc <altera_avalon_jtag_uart_read+0x1cc>
  8098b8:	e0bffb17 	ldw	r2,-20(fp)
  8098bc:	10c00917 	ldw	r3,36(r2)
  8098c0:	e0bffb17 	ldw	r2,-20(fp)
  8098c4:	10800117 	ldw	r2,4(r2)
  8098c8:	18bff736 	bltu	r3,r2,8098a8 <altera_avalon_jtag_uart_read+0x1a8>
    /* No OS: Always spin */
    while (in == sp->rx_in && sp->host_inactive < sp->timeout)
      ;
#endif /* __ucosii__ */

    if (in == sp->rx_in)
  8098cc:	e0bffb17 	ldw	r2,-20(fp)
  8098d0:	10c00d17 	ldw	r3,52(r2)
  8098d4:	e0bff617 	ldw	r2,-40(fp)
  8098d8:	18800326 	beq	r3,r2,8098e8 <altera_avalon_jtag_uart_read+0x1e8>
   * When running in a multi threaded environment, obtain the "read_lock"
   * semaphore. This ensures that reading from the device is thread-safe.
   */
  ALT_SEM_PEND (sp->read_lock, 0);

  while (space > 0)
  8098dc:	e0bffd17 	ldw	r2,-12(fp)
  8098e0:	10800048 	cmpgei	r2,r2,1
  8098e4:	103f991e 	bne	r2,zero,80974c <altera_avalon_jtag_uart_read+0x4c>
  /*
   * Now that access to the circular buffer is complete, release the read
   * semaphore so that other threads can access the buffer.
   */

  ALT_SEM_POST (sp->read_lock);
  8098e8:	e0bffb17 	ldw	r2,-20(fp)
  8098ec:	11000a17 	ldw	r4,40(r2)
  8098f0:	0806b100 	call	806b10 <OSSemPost>

  if (ptr != buffer)
  8098f4:	e0fff917 	ldw	r3,-28(fp)
  8098f8:	e0bffc17 	ldw	r2,-16(fp)
  8098fc:	18801926 	beq	r3,r2,809964 <altera_avalon_jtag_uart_read+0x264>
static ALT_INLINE alt_irq_context ALT_ALWAYS_INLINE 
       alt_irq_disable_all (void)
{
  alt_irq_context context;

  NIOS2_READ_STATUS (context);
  809900:	0005303a 	rdctl	r2,status
  809904:	e0bfef15 	stw	r2,-68(fp)

  NIOS2_WRITE_STATUS (context & ~NIOS2_STATUS_PIE_MSK);
  809908:	e0ffef17 	ldw	r3,-68(fp)
  80990c:	00bfff84 	movi	r2,-2
  809910:	1884703a 	and	r2,r3,r2
  809914:	1001703a 	wrctl	status,r2
  
  return context;
  809918:	e0bfef17 	ldw	r2,-68(fp)
  {
    /* If we read any data then there is space in the buffer so enable interrupts */
    context = alt_irq_disable_all();
  80991c:	e0bff815 	stw	r2,-32(fp)
    sp->irq_enable |= ALTERA_AVALON_JTAG_UART_CONTROL_RE_MSK;
  809920:	e0bffb17 	ldw	r2,-20(fp)
  809924:	10800817 	ldw	r2,32(r2)
  809928:	10c00054 	ori	r3,r2,1
  80992c:	e0bffb17 	ldw	r2,-20(fp)
  809930:	10c00815 	stw	r3,32(r2)
    IOWR_ALTERA_AVALON_JTAG_UART_CONTROL(sp->base, sp->irq_enable);
  809934:	e0bffb17 	ldw	r2,-20(fp)
  809938:	10800017 	ldw	r2,0(r2)
  80993c:	11000104 	addi	r4,r2,4
  809940:	e0bffb17 	ldw	r2,-20(fp)
  809944:	10800817 	ldw	r2,32(r2)
  809948:	1007883a 	mov	r3,r2
  80994c:	2005883a 	mov	r2,r4
  809950:	10c00035 	stwio	r3,0(r2)
  809954:	e0bff817 	ldw	r2,-32(fp)
  809958:	e0bfee15 	stw	r2,-72(fp)
  status &= ~NIOS2_STATUS_PIE_MSK;
  status |= (context & NIOS2_STATUS_PIE_MSK);
  
  NIOS2_WRITE_STATUS (status);
#else
  NIOS2_WRITE_STATUS (context);
  80995c:	e0bfee17 	ldw	r2,-72(fp)
  809960:	1001703a 	wrctl	status,r2
    alt_irq_enable_all(context);
  }

  if (ptr != buffer)
  809964:	e0fff917 	ldw	r3,-28(fp)
  809968:	e0bffc17 	ldw	r2,-16(fp)
  80996c:	18800526 	beq	r3,r2,809984 <altera_avalon_jtag_uart_read+0x284>
    return ptr - buffer;
  809970:	e0fff917 	ldw	r3,-28(fp)
  809974:	e0bffc17 	ldw	r2,-16(fp)
  809978:	1887c83a 	sub	r3,r3,r2
  80997c:	e0ffff15 	stw	r3,-4(fp)
  809980:	00000906 	br	8099a8 <altera_avalon_jtag_uart_read+0x2a8>
  else if (flags & O_NONBLOCK)
  809984:	e0bffe17 	ldw	r2,-8(fp)
  809988:	1090000c 	andi	r2,r2,16384
  80998c:	1005003a 	cmpeq	r2,r2,zero
  809990:	1000031e 	bne	r2,zero,8099a0 <altera_avalon_jtag_uart_read+0x2a0>
    return -EWOULDBLOCK;
  809994:	00bffd44 	movi	r2,-11
  809998:	e0bfff15 	stw	r2,-4(fp)
  80999c:	00000206 	br	8099a8 <altera_avalon_jtag_uart_read+0x2a8>
  else
    return -EIO;
  8099a0:	00bffec4 	movi	r2,-5
  8099a4:	e0bfff15 	stw	r2,-4(fp)
  8099a8:	e0bfff17 	ldw	r2,-4(fp)
}
  8099ac:	e037883a 	mov	sp,fp
  8099b0:	dfc00117 	ldw	ra,4(sp)
  8099b4:	df000017 	ldw	fp,0(sp)
  8099b8:	dec00204 	addi	sp,sp,8
  8099bc:	f800283a 	ret

008099c0 <altera_avalon_jtag_uart_write>:
/* ----------------------------------------------------------- */

int 
altera_avalon_jtag_uart_write(altera_avalon_jtag_uart_state* sp, 
  const char * ptr, int count, int flags)
{
  8099c0:	deffeb04 	addi	sp,sp,-84
  8099c4:	dfc01415 	stw	ra,80(sp)
  8099c8:	df001315 	stw	fp,76(sp)
  8099cc:	df001304 	addi	fp,sp,76
  8099d0:	e13ffb15 	stw	r4,-20(fp)
  8099d4:	e17ffc15 	stw	r5,-16(fp)
  8099d8:	e1bffd15 	stw	r6,-12(fp)
  8099dc:	e1fffe15 	stw	r7,-8(fp)
  /* Remove warning at optimisation level 03 by seting out to 0 */
  unsigned int in, out=0;
  8099e0:	e03ff815 	stw	zero,-32(fp)
  unsigned int n;
  alt_irq_context context;

  const char * start = ptr;
  8099e4:	e0bffc17 	ldw	r2,-16(fp)
  8099e8:	e0bff515 	stw	r2,-44(fp)

  /*
   * When running in a multi threaded environment, obtain the "write_lock"
   * semaphore. This ensures that writing to the device is thread-safe.
   */
  ALT_SEM_PEND (sp->write_lock, 0);
  8099ec:	e0bffb17 	ldw	r2,-20(fp)
  8099f0:	10800b17 	ldw	r2,44(r2)
  8099f4:	e0bff315 	stw	r2,-52(fp)
  8099f8:	e03ff40d 	sth	zero,-48(fp)
  8099fc:	e17ff40b 	ldhu	r5,-48(fp)
  809a00:	e1bffa04 	addi	r6,fp,-24
  809a04:	e13ff317 	ldw	r4,-52(fp)
  809a08:	08067180 	call	806718 <OSSemPend>

  do
  {
    /* Copy as much as we can into the transmit buffer */
    while (count > 0)
  809a0c:	00003a06 	br	809af8 <altera_avalon_jtag_uart_write+0x138>
    {
      /* We need a stable value of the out pointer to calculate the space available */
      in  = sp->tx_in;
  809a10:	e0bffb17 	ldw	r2,-20(fp)
  809a14:	10800f17 	ldw	r2,60(r2)
  809a18:	e0bff915 	stw	r2,-28(fp)
      out = sp->tx_out;
  809a1c:	e0bffb17 	ldw	r2,-20(fp)
  809a20:	10801017 	ldw	r2,64(r2)
  809a24:	e0bff815 	stw	r2,-32(fp)

      if (in < out)
  809a28:	e0fff917 	ldw	r3,-28(fp)
  809a2c:	e0bff817 	ldw	r2,-32(fp)
  809a30:	1880062e 	bgeu	r3,r2,809a4c <altera_avalon_jtag_uart_write+0x8c>
        n = out - 1 - in;
  809a34:	e0fff817 	ldw	r3,-32(fp)
  809a38:	e0bff917 	ldw	r2,-28(fp)
  809a3c:	1885c83a 	sub	r2,r3,r2
  809a40:	10bfffc4 	addi	r2,r2,-1
  809a44:	e0bff715 	stw	r2,-36(fp)
  809a48:	00000c06 	br	809a7c <altera_avalon_jtag_uart_write+0xbc>
      else if (out > 0)
  809a4c:	e0bff817 	ldw	r2,-32(fp)
  809a50:	1005003a 	cmpeq	r2,r2,zero
  809a54:	1000051e 	bne	r2,zero,809a6c <altera_avalon_jtag_uart_write+0xac>
        n = ALTERA_AVALON_JTAG_UART_BUF_LEN - in;
  809a58:	00820004 	movi	r2,2048
  809a5c:	e0fff917 	ldw	r3,-28(fp)
  809a60:	10c5c83a 	sub	r2,r2,r3
  809a64:	e0bff715 	stw	r2,-36(fp)
  809a68:	00000406 	br	809a7c <altera_avalon_jtag_uart_write+0xbc>
      else
        n = ALTERA_AVALON_JTAG_UART_BUF_LEN - 1 - in;
  809a6c:	0081ffc4 	movi	r2,2047
  809a70:	e0fff917 	ldw	r3,-28(fp)
  809a74:	10c5c83a 	sub	r2,r2,r3
  809a78:	e0bff715 	stw	r2,-36(fp)

      if (n == 0)
  809a7c:	e0bff717 	ldw	r2,-36(fp)
  809a80:	1005003a 	cmpeq	r2,r2,zero
  809a84:	10001f1e 	bne	r2,zero,809b04 <altera_avalon_jtag_uart_write+0x144>
        break;

      if (n > count)
  809a88:	e0fffd17 	ldw	r3,-12(fp)
  809a8c:	e0bff717 	ldw	r2,-36(fp)
  809a90:	1880022e 	bgeu	r3,r2,809a9c <altera_avalon_jtag_uart_write+0xdc>
        n = count;
  809a94:	e0bffd17 	ldw	r2,-12(fp)
  809a98:	e0bff715 	stw	r2,-36(fp)

      memcpy(sp->tx_buf + in, ptr, n);
  809a9c:	e0bffb17 	ldw	r2,-20(fp)
  809aa0:	10c21104 	addi	r3,r2,2116
  809aa4:	e0bff917 	ldw	r2,-28(fp)
  809aa8:	1885883a 	add	r2,r3,r2
  809aac:	e0fffc17 	ldw	r3,-16(fp)
  809ab0:	1009883a 	mov	r4,r2
  809ab4:	180b883a 	mov	r5,r3
  809ab8:	e1bff717 	ldw	r6,-36(fp)
  809abc:	080b9600 	call	80b960 <memcpy>
      ptr   += n;
  809ac0:	e0fff717 	ldw	r3,-36(fp)
  809ac4:	e0bffc17 	ldw	r2,-16(fp)
  809ac8:	10c5883a 	add	r2,r2,r3
  809acc:	e0bffc15 	stw	r2,-16(fp)
      count -= n;
  809ad0:	e0fffd17 	ldw	r3,-12(fp)
  809ad4:	e0bff717 	ldw	r2,-36(fp)
  809ad8:	1885c83a 	sub	r2,r3,r2
  809adc:	e0bffd15 	stw	r2,-12(fp)

      sp->tx_in = (in + n) % ALTERA_AVALON_JTAG_UART_BUF_LEN;
  809ae0:	e0fff917 	ldw	r3,-28(fp)
  809ae4:	e0bff717 	ldw	r2,-36(fp)
  809ae8:	1885883a 	add	r2,r3,r2
  809aec:	10c1ffcc 	andi	r3,r2,2047
  809af0:	e0bffb17 	ldw	r2,-20(fp)
  809af4:	10c00f15 	stw	r3,60(r2)
  ALT_SEM_PEND (sp->write_lock, 0);

  do
  {
    /* Copy as much as we can into the transmit buffer */
    while (count > 0)
  809af8:	e0bffd17 	ldw	r2,-12(fp)
  809afc:	10800048 	cmpgei	r2,r2,1
  809b00:	103fc31e 	bne	r2,zero,809a10 <altera_avalon_jtag_uart_write+0x50>
static ALT_INLINE alt_irq_context ALT_ALWAYS_INLINE 
       alt_irq_disable_all (void)
{
  alt_irq_context context;

  NIOS2_READ_STATUS (context);
  809b04:	0005303a 	rdctl	r2,status
  809b08:	e0bff215 	stw	r2,-56(fp)

  NIOS2_WRITE_STATUS (context & ~NIOS2_STATUS_PIE_MSK);
  809b0c:	e0fff217 	ldw	r3,-56(fp)
  809b10:	00bfff84 	movi	r2,-2
  809b14:	1884703a 	and	r2,r3,r2
  809b18:	1001703a 	wrctl	status,r2
  
  return context;
  809b1c:	e0bff217 	ldw	r2,-56(fp)
     * to enable interrupts if there is no space left in the FIFO
     *
     * For now kick the interrupt routine every time to make it transmit 
     * the data 
     */
    context = alt_irq_disable_all();
  809b20:	e0bff615 	stw	r2,-40(fp)
    sp->irq_enable |= ALTERA_AVALON_JTAG_UART_CONTROL_WE_MSK;
  809b24:	e0bffb17 	ldw	r2,-20(fp)
  809b28:	10800817 	ldw	r2,32(r2)
  809b2c:	10c00094 	ori	r3,r2,2
  809b30:	e0bffb17 	ldw	r2,-20(fp)
  809b34:	10c00815 	stw	r3,32(r2)
    IOWR_ALTERA_AVALON_JTAG_UART_CONTROL(sp->base, sp->irq_enable);
  809b38:	e0bffb17 	ldw	r2,-20(fp)
  809b3c:	10800017 	ldw	r2,0(r2)
  809b40:	11000104 	addi	r4,r2,4
  809b44:	e0bffb17 	ldw	r2,-20(fp)
  809b48:	10800817 	ldw	r2,32(r2)
  809b4c:	1007883a 	mov	r3,r2
  809b50:	2005883a 	mov	r2,r4
  809b54:	10c00035 	stwio	r3,0(r2)
  809b58:	e0bff617 	ldw	r2,-40(fp)
  809b5c:	e0bff115 	stw	r2,-60(fp)
  status &= ~NIOS2_STATUS_PIE_MSK;
  status |= (context & NIOS2_STATUS_PIE_MSK);
  
  NIOS2_WRITE_STATUS (status);
#else
  NIOS2_WRITE_STATUS (context);
  809b60:	e0bff117 	ldw	r2,-60(fp)
  809b64:	1001703a 	wrctl	status,r2
    /* 
     * If there is any data left then either return now or block until 
     * some has been sent 
     */
    /* consider: test whether there is anything there while doing this and delay for at most 2s. */
    if (count > 0)
  809b68:	e0bffd17 	ldw	r2,-12(fp)
  809b6c:	10800050 	cmplti	r2,r2,1
  809b70:	10002d1e 	bne	r2,zero,809c28 <altera_avalon_jtag_uart_write+0x268>
    {
      if (flags & O_NONBLOCK)
  809b74:	e0bffe17 	ldw	r2,-8(fp)
  809b78:	1090000c 	andi	r2,r2,16384
  809b7c:	1004c03a 	cmpne	r2,r2,zero
  809b80:	10002c1e 	bne	r2,zero,809c34 <altera_avalon_jtag_uart_write+0x274>
        break;

#ifdef __ucosii__
      /* OS Present: Pend on a flag if the OS is running, otherwise spin */
      if(OSRunning == OS_TRUE) {
  809b84:	00802074 	movhi	r2,129
  809b88:	10874744 	addi	r2,r2,7453
  809b8c:	10800003 	ldbu	r2,0(r2)
  809b90:	10803fcc 	andi	r2,r2,255
  809b94:	10800058 	cmpnei	r2,r2,1
  809b98:	1000161e 	bne	r2,zero,809bf4 <altera_avalon_jtag_uart_write+0x234>
         * When running in a multi-threaded mode, we pend on the write event
         * flag set or the timeout flag in the isr. This avoids wasting CPU
         * cycles waiting in this thread, when we could be doing something
         * more profitable elsewhere.
         */
        ALT_FLAG_PEND (sp->events,
  809b9c:	e0bffb17 	ldw	r2,-20(fp)
  809ba0:	10800c17 	ldw	r2,48(r2)
  809ba4:	e0bfee15 	stw	r2,-72(fp)
  809ba8:	00800184 	movi	r2,6
  809bac:	e0bfef0d 	sth	r2,-68(fp)
  809bb0:	00bfe0c4 	movi	r2,-125
  809bb4:	e0bfef85 	stb	r2,-66(fp)
  809bb8:	e03ff00d 	sth	zero,-64(fp)
                   OS_FLAGS flags, 
                   INT8U wait_type, 
                   INT16U timeout)
{
  INT8U err;
  if (OSRunning)
  809bbc:	00802074 	movhi	r2,129
  809bc0:	10874744 	addi	r2,r2,7453
  809bc4:	10800003 	ldbu	r2,0(r2)
  809bc8:	10803fcc 	andi	r2,r2,255
  809bcc:	1005003a 	cmpeq	r2,r2,zero
  809bd0:	1000111e 	bne	r2,zero,809c18 <altera_avalon_jtag_uart_write+0x258>
  {
    OSFlagPend (group, flags, wait_type, timeout, &err);
  809bd4:	e17fef0b 	ldhu	r5,-68(fp)
  809bd8:	e1bfef83 	ldbu	r6,-66(fp)
  809bdc:	e1fff00b 	ldhu	r7,-64(fp)
  809be0:	e0bffa44 	addi	r2,fp,-23
  809be4:	d8800015 	stw	r2,0(sp)
  809be8:	e13fee17 	ldw	r4,-72(fp)
  809bec:	08037d80 	call	8037d8 <OSFlagPend>
    return err;
  809bf0:	00000906 	br	809c18 <altera_avalon_jtag_uart_write+0x258>
        /*
         * OS not running: Wait for data to be removed from buffer.
         * Once the interrupt routine has removed some data then we
         * will be able to insert some more.
         */
        while (out == sp->tx_out && sp->host_inactive < sp->timeout)
  809bf4:	e0bffb17 	ldw	r2,-20(fp)
  809bf8:	10c01017 	ldw	r3,64(r2)
  809bfc:	e0bff817 	ldw	r2,-32(fp)
  809c00:	1880051e 	bne	r3,r2,809c18 <altera_avalon_jtag_uart_write+0x258>
  809c04:	e0bffb17 	ldw	r2,-20(fp)
  809c08:	10c00917 	ldw	r3,36(r2)
  809c0c:	e0bffb17 	ldw	r2,-20(fp)
  809c10:	10800117 	ldw	r2,4(r2)
  809c14:	18bff736 	bltu	r3,r2,809bf4 <altera_avalon_jtag_uart_write+0x234>
       */
      while (out == sp->tx_out && sp->host_inactive < sp->timeout)
        ;
#endif /* __ucosii__ */

      if (out == sp->tx_out)
  809c18:	e0bffb17 	ldw	r2,-20(fp)
  809c1c:	10c01017 	ldw	r3,64(r2)
  809c20:	e0bff817 	ldw	r2,-32(fp)
  809c24:	18800326 	beq	r3,r2,809c34 <altera_avalon_jtag_uart_write+0x274>
        break;
    }
  }
  while (count > 0);
  809c28:	e0bffd17 	ldw	r2,-12(fp)
  809c2c:	10800048 	cmpgei	r2,r2,1
  809c30:	103fb11e 	bne	r2,zero,809af8 <altera_avalon_jtag_uart_write+0x138>

  /*
   * Now that access to the circular buffer is complete, release the write
   * semaphore so that other threads can access the buffer.
   */
  ALT_SEM_POST (sp->write_lock);
  809c34:	e0bffb17 	ldw	r2,-20(fp)
  809c38:	11000b17 	ldw	r4,44(r2)
  809c3c:	0806b100 	call	806b10 <OSSemPost>

  if (ptr != start)
  809c40:	e0fffc17 	ldw	r3,-16(fp)
  809c44:	e0bff517 	ldw	r2,-44(fp)
  809c48:	18800526 	beq	r3,r2,809c60 <altera_avalon_jtag_uart_write+0x2a0>
    return ptr - start;
  809c4c:	e0fffc17 	ldw	r3,-16(fp)
  809c50:	e0bff517 	ldw	r2,-44(fp)
  809c54:	1887c83a 	sub	r3,r3,r2
  809c58:	e0ffff15 	stw	r3,-4(fp)
  809c5c:	00000906 	br	809c84 <altera_avalon_jtag_uart_write+0x2c4>
  else if (flags & O_NONBLOCK)
  809c60:	e0bffe17 	ldw	r2,-8(fp)
  809c64:	1090000c 	andi	r2,r2,16384
  809c68:	1005003a 	cmpeq	r2,r2,zero
  809c6c:	1000031e 	bne	r2,zero,809c7c <altera_avalon_jtag_uart_write+0x2bc>
    return -EWOULDBLOCK;
  809c70:	00bffd44 	movi	r2,-11
  809c74:	e0bfff15 	stw	r2,-4(fp)
  809c78:	00000206 	br	809c84 <altera_avalon_jtag_uart_write+0x2c4>
  else
    return -EIO; /* Host not connected */
  809c7c:	00bffec4 	movi	r2,-5
  809c80:	e0bfff15 	stw	r2,-4(fp)
  809c84:	e0bfff17 	ldw	r2,-4(fp)
}
  809c88:	e037883a 	mov	sp,fp
  809c8c:	dfc00117 	ldw	ra,4(sp)
  809c90:	df000017 	ldw	fp,0(sp)
  809c94:	dec00204 	addi	sp,sp,8
  809c98:	f800283a 	ret

00809c9c <alt_avalon_timer_sc_irq>:
#ifdef ALT_ENHANCED_INTERRUPT_API_PRESENT
static void alt_avalon_timer_sc_irq (void* base)
#else
static void alt_avalon_timer_sc_irq (void* base, alt_u32 id)
#endif
{
  809c9c:	defffa04 	addi	sp,sp,-24
  809ca0:	dfc00515 	stw	ra,20(sp)
  809ca4:	df000415 	stw	fp,16(sp)
  809ca8:	df000404 	addi	fp,sp,16
  809cac:	e13fff15 	stw	r4,-4(fp)
  alt_irq_context cpu_sr;
  
  /* clear the interrupt */
  IOWR_ALTERA_AVALON_TIMER_STATUS (base, 0);
  809cb0:	e0bfff17 	ldw	r2,-4(fp)
  809cb4:	10000035 	stwio	zero,0(r2)
  /* 
   * Dummy read to ensure IRQ is negated before the ISR returns.
   * The control register is read because reading the status
   * register has side-effects per the register map documentation.
   */
  IORD_ALTERA_AVALON_TIMER_CONTROL (base);
  809cb8:	e0bfff17 	ldw	r2,-4(fp)
  809cbc:	10800104 	addi	r2,r2,4
  809cc0:	10800037 	ldwio	r2,0(r2)
static ALT_INLINE alt_irq_context ALT_ALWAYS_INLINE 
       alt_irq_disable_all (void)
{
  alt_irq_context context;

  NIOS2_READ_STATUS (context);
  809cc4:	0005303a 	rdctl	r2,status
  809cc8:	e0bffd15 	stw	r2,-12(fp)

  NIOS2_WRITE_STATUS (context & ~NIOS2_STATUS_PIE_MSK);
  809ccc:	e0fffd17 	ldw	r3,-12(fp)
  809cd0:	00bfff84 	movi	r2,-2
  809cd4:	1884703a 	and	r2,r3,r2
  809cd8:	1001703a 	wrctl	status,r2
  
  return context;
  809cdc:	e0bffd17 	ldw	r2,-12(fp)

  /* 
   * Notify the system of a clock tick. disable interrupts 
   * during this time to safely support ISR preemption
   */
  cpu_sr = alt_irq_disable_all();
  809ce0:	e0bffe15 	stw	r2,-8(fp)
  alt_tick ();
  809ce4:	080b0640 	call	80b064 <alt_tick>
  809ce8:	e0bffe17 	ldw	r2,-8(fp)
  809cec:	e0bffc15 	stw	r2,-16(fp)
  status &= ~NIOS2_STATUS_PIE_MSK;
  status |= (context & NIOS2_STATUS_PIE_MSK);
  
  NIOS2_WRITE_STATUS (status);
#else
  NIOS2_WRITE_STATUS (context);
  809cf0:	e0bffc17 	ldw	r2,-16(fp)
  809cf4:	1001703a 	wrctl	status,r2
  alt_irq_enable_all(cpu_sr);
}
  809cf8:	e037883a 	mov	sp,fp
  809cfc:	dfc00117 	ldw	ra,4(sp)
  809d00:	df000017 	ldw	fp,0(sp)
  809d04:	dec00204 	addi	sp,sp,8
  809d08:	f800283a 	ret

00809d0c <alt_avalon_timer_sc_init>:
 * auto-generated alt_sys_init() function.
 */

void alt_avalon_timer_sc_init (void* base, alt_u32 irq_controller_id, 
                                alt_u32 irq, alt_u32 freq)
{
  809d0c:	defff804 	addi	sp,sp,-32
  809d10:	dfc00715 	stw	ra,28(sp)
  809d14:	df000615 	stw	fp,24(sp)
  809d18:	df000604 	addi	fp,sp,24
  809d1c:	e13ffc15 	stw	r4,-16(fp)
  809d20:	e17ffd15 	stw	r5,-12(fp)
  809d24:	e1bffe15 	stw	r6,-8(fp)
  809d28:	e1ffff15 	stw	r7,-4(fp)
  809d2c:	e0bfff17 	ldw	r2,-4(fp)
  809d30:	e0bffb15 	stw	r2,-20(fp)
 * in order to initialise the value of the clock frequency.
 */

static ALT_INLINE int ALT_ALWAYS_INLINE alt_sysclk_init (alt_u32 nticks)
{
  if (! _alt_tick_rate)
  809d34:	00802074 	movhi	r2,129
  809d38:	10875d04 	addi	r2,r2,7540
  809d3c:	10800017 	ldw	r2,0(r2)
  809d40:	1004c03a 	cmpne	r2,r2,zero
  809d44:	1000041e 	bne	r2,zero,809d58 <alt_avalon_timer_sc_init+0x4c>
  {
    _alt_tick_rate = nticks;
  809d48:	00c02074 	movhi	r3,129
  809d4c:	18c75d04 	addi	r3,r3,7540
  809d50:	e0bffb17 	ldw	r2,-20(fp)
  809d54:	18800015 	stw	r2,0(r3)
  
  alt_sysclk_init (freq);
  
  /* set to free running mode */
  
  IOWR_ALTERA_AVALON_TIMER_CONTROL (base, 
  809d58:	e0bffc17 	ldw	r2,-16(fp)
  809d5c:	10800104 	addi	r2,r2,4
  809d60:	1007883a 	mov	r3,r2
  809d64:	008001c4 	movi	r2,7
  809d68:	18800035 	stwio	r2,0(r3)
            ALTERA_AVALON_TIMER_CONTROL_CONT_MSK |
            ALTERA_AVALON_TIMER_CONTROL_START_MSK);

  /* register the interrupt handler, and enable the interrupt */
#ifdef ALT_ENHANCED_INTERRUPT_API_PRESENT
  alt_ic_isr_register(irq_controller_id, irq, alt_avalon_timer_sc_irq, 
  809d6c:	d8000015 	stw	zero,0(sp)
  809d70:	e13ffd17 	ldw	r4,-12(fp)
  809d74:	e17ffe17 	ldw	r5,-8(fp)
  809d78:	01802074 	movhi	r6,129
  809d7c:	31a72704 	addi	r6,r6,-25444
  809d80:	e1fffc17 	ldw	r7,-16(fp)
  809d84:	080a8540 	call	80a854 <alt_ic_isr_register>
                      base, NULL);
#else
  alt_irq_register (irq, base, alt_avalon_timer_sc_irq);
#endif  
}
  809d88:	e037883a 	mov	sp,fp
  809d8c:	dfc00117 	ldw	ra,4(sp)
  809d90:	df000017 	ldw	fp,0(sp)
  809d94:	dec00204 	addi	sp,sp,8
  809d98:	f800283a 	ret

00809d9c <get_DDRAM_addr>:
 * @sa the datasheet for the LCD Display Controller on the DE2 Board
 * @note the function requires that the input are in the valid range
 *
 **/
unsigned char get_DDRAM_addr(unsigned x_pos, unsigned y_pos)
{
  809d9c:	defffc04 	addi	sp,sp,-16
  809da0:	df000315 	stw	fp,12(sp)
  809da4:	df000304 	addi	fp,sp,12
  809da8:	e13ffe15 	stw	r4,-8(fp)
  809dac:	e17fff15 	stw	r5,-4(fp)
	//assume valid inputs
	unsigned char addr = 0x00000000;
  809db0:	e03ffd05 	stb	zero,-12(fp)
	if (y_pos == 0)
  809db4:	e0bfff17 	ldw	r2,-4(fp)
  809db8:	1004c03a 	cmpne	r2,r2,zero
  809dbc:	1000061e 	bne	r2,zero,809dd8 <get_DDRAM_addr+0x3c>
	{
		addr |= x_pos;
  809dc0:	e0bffe17 	ldw	r2,-8(fp)
  809dc4:	1007883a 	mov	r3,r2
  809dc8:	e0bffd03 	ldbu	r2,-12(fp)
  809dcc:	10c4b03a 	or	r2,r2,r3
  809dd0:	e0bffd05 	stb	r2,-12(fp)
  809dd4:	00000806 	br	809df8 <get_DDRAM_addr+0x5c>
	}
	else
	{
		addr |= x_pos;
  809dd8:	e0bffe17 	ldw	r2,-8(fp)
  809ddc:	1007883a 	mov	r3,r2
  809de0:	e0bffd03 	ldbu	r2,-12(fp)
  809de4:	10c4b03a 	or	r2,r2,r3
  809de8:	e0bffd05 	stb	r2,-12(fp)
		addr |= 0x00000040;
  809dec:	e0bffd03 	ldbu	r2,-12(fp)
  809df0:	10801014 	ori	r2,r2,64
  809df4:	e0bffd05 	stb	r2,-12(fp)
	}
	// b_7 is always 1 for DDRAM address, see datasheet
	return (addr | 0x00000080);
  809df8:	e0fffd03 	ldbu	r3,-12(fp)
  809dfc:	00bfe004 	movi	r2,-128
  809e00:	1884b03a 	or	r2,r3,r2
  809e04:	10803fcc 	andi	r2,r2,255
}
  809e08:	e037883a 	mov	sp,fp
  809e0c:	df000017 	ldw	fp,0(sp)
  809e10:	dec00104 	addi	sp,sp,4
  809e14:	f800283a 	ret

00809e18 <alt_up_character_lcd_send_cmd>:
 * @param cmd -- the command bits 
 *
 * @return nothing
 **/
void alt_up_character_lcd_send_cmd(alt_up_character_lcd_dev *lcd, unsigned char cmd)
{
  809e18:	defffd04 	addi	sp,sp,-12
  809e1c:	df000215 	stw	fp,8(sp)
  809e20:	df000204 	addi	fp,sp,8
  809e24:	e13ffe15 	stw	r4,-8(fp)
  809e28:	e17fff05 	stb	r5,-4(fp)
 	// NOTE: We use the term Instruction Register and Control Register interchangeably
	IOWR_ALT_UP_CHARACTER_LCD_COMMAND(lcd->base, cmd);
  809e2c:	e0bffe17 	ldw	r2,-8(fp)
  809e30:	10800a17 	ldw	r2,40(r2)
  809e34:	e0ffff03 	ldbu	r3,-4(fp)
  809e38:	10c00025 	stbio	r3,0(r2)
}
  809e3c:	e037883a 	mov	sp,fp
  809e40:	df000017 	ldw	fp,0(sp)
  809e44:	dec00104 	addi	sp,sp,4
  809e48:	f800283a 	ret

00809e4c <alt_up_character_lcd_init>:
 * file for a detailed description of each function
 */
////////////////////////////////////////////////////////////////////////////

void alt_up_character_lcd_init(alt_up_character_lcd_dev *lcd)
{
  809e4c:	defffe04 	addi	sp,sp,-8
  809e50:	df000115 	stw	fp,4(sp)
  809e54:	df000104 	addi	fp,sp,4
  809e58:	e13fff15 	stw	r4,-4(fp)
	IOWR_ALT_UP_CHARACTER_LCD_COMMAND(lcd->base, ALT_UP_CHARACTER_LCD_COMM_CLEAR_DISPLAY);
  809e5c:	e0bfff17 	ldw	r2,-4(fp)
  809e60:	10800a17 	ldw	r2,40(r2)
  809e64:	1007883a 	mov	r3,r2
  809e68:	00800044 	movi	r2,1
  809e6c:	18800025 	stbio	r2,0(r3)
	// register the device 
	// see "Developing Device Drivers for the HAL" in "Nios II Software Developer's Handbook"
}
  809e70:	e037883a 	mov	sp,fp
  809e74:	df000017 	ldw	fp,0(sp)
  809e78:	dec00104 	addi	sp,sp,4
  809e7c:	f800283a 	ret

00809e80 <alt_up_character_lcd_open_dev>:

alt_up_character_lcd_dev* alt_up_character_lcd_open_dev(const char* name)
{
  809e80:	defffc04 	addi	sp,sp,-16
  809e84:	dfc00315 	stw	ra,12(sp)
  809e88:	df000215 	stw	fp,8(sp)
  809e8c:	df000204 	addi	fp,sp,8
  809e90:	e13fff15 	stw	r4,-4(fp)
  // find the device from the device list 
  // (see altera_hal/HAL/inc/priv/alt_file.h 
  // and altera_hal/HAL/src/alt_find_dev.c 
  // for details)
  alt_up_character_lcd_dev *dev = (alt_up_character_lcd_dev*)alt_find_dev(name, &alt_dev_list);
  809e94:	e13fff17 	ldw	r4,-4(fp)
  809e98:	01402074 	movhi	r5,129
  809e9c:	29407304 	addi	r5,r5,460
  809ea0:	080a7a40 	call	80a7a4 <alt_find_dev>
  809ea4:	e0bffe15 	stw	r2,-8(fp)

  return dev;
  809ea8:	e0bffe17 	ldw	r2,-8(fp)
}
  809eac:	e037883a 	mov	sp,fp
  809eb0:	dfc00117 	ldw	ra,4(sp)
  809eb4:	df000017 	ldw	fp,0(sp)
  809eb8:	dec00204 	addi	sp,sp,8
  809ebc:	f800283a 	ret

00809ec0 <alt_up_character_lcd_write>:

void alt_up_character_lcd_write(alt_up_character_lcd_dev *dev, const char *ptr, unsigned int len)
{
  809ec0:	defffb04 	addi	sp,sp,-20
  809ec4:	df000415 	stw	fp,16(sp)
  809ec8:	df000404 	addi	fp,sp,16
  809ecc:	e13ffd15 	stw	r4,-12(fp)
  809ed0:	e17ffe15 	stw	r5,-8(fp)
  809ed4:	e1bfff15 	stw	r6,-4(fp)
	unsigned int i;
	for (i = 0; i < len; i++)
  809ed8:	e03ffc15 	stw	zero,-16(fp)
  809edc:	00000f06 	br	809f1c <alt_up_character_lcd_write+0x5c>
	{
		IOWR_ALT_UP_CHARACTER_LCD_DATA(dev->base, *(ptr+i));
  809ee0:	e0bffd17 	ldw	r2,-12(fp)
  809ee4:	10800a17 	ldw	r2,40(r2)
  809ee8:	11000044 	addi	r4,r2,1
  809eec:	e0fffc17 	ldw	r3,-16(fp)
  809ef0:	e0bffe17 	ldw	r2,-8(fp)
  809ef4:	1885883a 	add	r2,r3,r2
  809ef8:	10800003 	ldbu	r2,0(r2)
  809efc:	10c03fcc 	andi	r3,r2,255
  809f00:	18c0201c 	xori	r3,r3,128
  809f04:	18ffe004 	addi	r3,r3,-128
  809f08:	2005883a 	mov	r2,r4
  809f0c:	10c00025 	stbio	r3,0(r2)
}

void alt_up_character_lcd_write(alt_up_character_lcd_dev *dev, const char *ptr, unsigned int len)
{
	unsigned int i;
	for (i = 0; i < len; i++)
  809f10:	e0bffc17 	ldw	r2,-16(fp)
  809f14:	10800044 	addi	r2,r2,1
  809f18:	e0bffc15 	stw	r2,-16(fp)
  809f1c:	e0fffc17 	ldw	r3,-16(fp)
  809f20:	e0bfff17 	ldw	r2,-4(fp)
  809f24:	18bfee36 	bltu	r3,r2,809ee0 <alt_up_character_lcd_write+0x20>
	{
		IOWR_ALT_UP_CHARACTER_LCD_DATA(dev->base, *(ptr+i));
	}
}
  809f28:	e037883a 	mov	sp,fp
  809f2c:	df000017 	ldw	fp,0(sp)
  809f30:	dec00104 	addi	sp,sp,4
  809f34:	f800283a 	ret

00809f38 <alt_up_character_lcd_string>:

void alt_up_character_lcd_string(alt_up_character_lcd_dev *dev, const char *ptr)
{
  809f38:	defffd04 	addi	sp,sp,-12
  809f3c:	df000215 	stw	fp,8(sp)
  809f40:	df000204 	addi	fp,sp,8
  809f44:	e13ffe15 	stw	r4,-8(fp)
  809f48:	e17fff15 	stw	r5,-4(fp)
	while ( *ptr )
  809f4c:	00000d06 	br	809f84 <alt_up_character_lcd_string+0x4c>
	{
		IOWR_ALT_UP_CHARACTER_LCD_DATA(dev->base, *(ptr));
  809f50:	e0bffe17 	ldw	r2,-8(fp)
  809f54:	10800a17 	ldw	r2,40(r2)
  809f58:	11000044 	addi	r4,r2,1
  809f5c:	e0bfff17 	ldw	r2,-4(fp)
  809f60:	10800003 	ldbu	r2,0(r2)
  809f64:	10c03fcc 	andi	r3,r2,255
  809f68:	18c0201c 	xori	r3,r3,128
  809f6c:	18ffe004 	addi	r3,r3,-128
  809f70:	2005883a 	mov	r2,r4
  809f74:	10c00025 	stbio	r3,0(r2)
		++ptr;
  809f78:	e0bfff17 	ldw	r2,-4(fp)
  809f7c:	10800044 	addi	r2,r2,1
  809f80:	e0bfff15 	stw	r2,-4(fp)
	}
}

void alt_up_character_lcd_string(alt_up_character_lcd_dev *dev, const char *ptr)
{
	while ( *ptr )
  809f84:	e0bfff17 	ldw	r2,-4(fp)
  809f88:	10800003 	ldbu	r2,0(r2)
  809f8c:	10803fcc 	andi	r2,r2,255
  809f90:	1080201c 	xori	r2,r2,128
  809f94:	10bfe004 	addi	r2,r2,-128
  809f98:	1004c03a 	cmpne	r2,r2,zero
  809f9c:	103fec1e 	bne	r2,zero,809f50 <alt_up_character_lcd_string+0x18>
	{
		IOWR_ALT_UP_CHARACTER_LCD_DATA(dev->base, *(ptr));
		++ptr;
	}
}
  809fa0:	e037883a 	mov	sp,fp
  809fa4:	df000017 	ldw	fp,0(sp)
  809fa8:	dec00104 	addi	sp,sp,4
  809fac:	f800283a 	ret

00809fb0 <alt_up_character_lcd_write_fd>:

// this function isn't used, and is included for future upgrades
int alt_up_character_lcd_write_fd(alt_fd *fd, const char *ptr, int len)
{
  809fb0:	defffb04 	addi	sp,sp,-20
  809fb4:	dfc00415 	stw	ra,16(sp)
  809fb8:	df000315 	stw	fp,12(sp)
  809fbc:	df000304 	addi	fp,sp,12
  809fc0:	e13ffd15 	stw	r4,-12(fp)
  809fc4:	e17ffe15 	stw	r5,-8(fp)
  809fc8:	e1bfff15 	stw	r6,-4(fp)
	alt_up_character_lcd_write( (alt_up_character_lcd_dev *) fd->dev, ptr, (unsigned int) len);
  809fcc:	e0bffd17 	ldw	r2,-12(fp)
  809fd0:	10800017 	ldw	r2,0(r2)
  809fd4:	1009883a 	mov	r4,r2
  809fd8:	e1bfff17 	ldw	r6,-4(fp)
  809fdc:	e17ffe17 	ldw	r5,-8(fp)
  809fe0:	0809ec00 	call	809ec0 <alt_up_character_lcd_write>
	return 0;
  809fe4:	0005883a 	mov	r2,zero
}
  809fe8:	e037883a 	mov	sp,fp
  809fec:	dfc00117 	ldw	ra,4(sp)
  809ff0:	df000017 	ldw	fp,0(sp)
  809ff4:	dec00204 	addi	sp,sp,8
  809ff8:	f800283a 	ret

00809ffc <alt_up_character_lcd_set_cursor_pos>:

int alt_up_character_lcd_set_cursor_pos(alt_up_character_lcd_dev *lcd, unsigned x_pos, 
	 unsigned y_pos)
{
  809ffc:	defff904 	addi	sp,sp,-28
  80a000:	dfc00615 	stw	ra,24(sp)
  80a004:	df000515 	stw	fp,20(sp)
  80a008:	df000504 	addi	fp,sp,20
  80a00c:	e13ffc15 	stw	r4,-16(fp)
  80a010:	e17ffd15 	stw	r5,-12(fp)
  80a014:	e1bffe15 	stw	r6,-8(fp)
	//boundary check
	if (x_pos > 39 || y_pos > 1 )
  80a018:	e0bffd17 	ldw	r2,-12(fp)
  80a01c:	10800a28 	cmpgeui	r2,r2,40
  80a020:	1000031e 	bne	r2,zero,80a030 <alt_up_character_lcd_set_cursor_pos+0x34>
  80a024:	e0bffe17 	ldw	r2,-8(fp)
  80a028:	108000b0 	cmpltui	r2,r2,2
  80a02c:	1000031e 	bne	r2,zero,80a03c <alt_up_character_lcd_set_cursor_pos+0x40>
		// invalid argument
		return -1;
  80a030:	00bfffc4 	movi	r2,-1
  80a034:	e0bfff15 	stw	r2,-4(fp)
  80a038:	00000806 	br	80a05c <alt_up_character_lcd_set_cursor_pos+0x60>
	// calculate address
	unsigned char addr = get_DDRAM_addr(x_pos, y_pos);
  80a03c:	e13ffd17 	ldw	r4,-12(fp)
  80a040:	e17ffe17 	ldw	r5,-8(fp)
  80a044:	0809d9c0 	call	809d9c <get_DDRAM_addr>
  80a048:	e0bffb05 	stb	r2,-20(fp)
	// set the cursor
	alt_up_character_lcd_send_cmd(lcd, addr);
  80a04c:	e17ffb03 	ldbu	r5,-20(fp)
  80a050:	e13ffc17 	ldw	r4,-16(fp)
  80a054:	0809e180 	call	809e18 <alt_up_character_lcd_send_cmd>
	return 0;
  80a058:	e03fff15 	stw	zero,-4(fp)
  80a05c:	e0bfff17 	ldw	r2,-4(fp)
}
  80a060:	e037883a 	mov	sp,fp
  80a064:	dfc00117 	ldw	ra,4(sp)
  80a068:	df000017 	ldw	fp,0(sp)
  80a06c:	dec00204 	addi	sp,sp,8
  80a070:	f800283a 	ret

0080a074 <alt_up_character_lcd_shift_cursor>:

void alt_up_character_lcd_shift_cursor(alt_up_character_lcd_dev *lcd, int x_right_shift_offset)
{
  80a074:	defff904 	addi	sp,sp,-28
  80a078:	dfc00615 	stw	ra,24(sp)
  80a07c:	df000515 	stw	fp,20(sp)
  80a080:	df000504 	addi	fp,sp,20
  80a084:	e13ffc15 	stw	r4,-16(fp)
  80a088:	e17ffd15 	stw	r5,-12(fp)
	if (x_right_shift_offset == 0) 
  80a08c:	e0bffd17 	ldw	r2,-12(fp)
  80a090:	1005003a 	cmpeq	r2,r2,zero
  80a094:	10001e1e 	bne	r2,zero,80a110 <alt_up_character_lcd_shift_cursor+0x9c>
		// don't ask me to do nothing 
		return;

	// see shift right or left
	unsigned char shift_cmd = (x_right_shift_offset > 0) ? 
		ALT_UP_CHARACTER_LCD_COMM_CURSOR_SHIFT_RIGHT : ALT_UP_CHARACTER_LCD_COMM_CURSOR_SHIFT_LEFT;
  80a098:	e0bffd17 	ldw	r2,-12(fp)
  80a09c:	10800050 	cmplti	r2,r2,1
  80a0a0:	1000031e 	bne	r2,zero,80a0b0 <alt_up_character_lcd_shift_cursor+0x3c>
  80a0a4:	00800504 	movi	r2,20
  80a0a8:	e0bfff05 	stb	r2,-4(fp)
  80a0ac:	00000206 	br	80a0b8 <alt_up_character_lcd_shift_cursor+0x44>
  80a0b0:	00c00404 	movi	r3,16
  80a0b4:	e0ffff05 	stb	r3,-4(fp)
  80a0b8:	e0bfff03 	ldbu	r2,-4(fp)
  80a0bc:	e0bffb45 	stb	r2,-19(fp)
	// see how many to shift
	unsigned char num_offset = (x_right_shift_offset > 0) ? x_right_shift_offset : 
		-x_right_shift_offset;
  80a0c0:	e0fffd17 	ldw	r3,-12(fp)
  80a0c4:	e0fffe15 	stw	r3,-8(fp)
  80a0c8:	e0fffe17 	ldw	r3,-8(fp)
  80a0cc:	1804403a 	cmpge	r2,r3,zero
  80a0d0:	1000031e 	bne	r2,zero,80a0e0 <alt_up_character_lcd_shift_cursor+0x6c>
  80a0d4:	e0bffe17 	ldw	r2,-8(fp)
  80a0d8:	0085c83a 	sub	r2,zero,r2
  80a0dc:	e0bffe15 	stw	r2,-8(fp)
  80a0e0:	e0fffe17 	ldw	r3,-8(fp)
  80a0e4:	e0fffb05 	stb	r3,-20(fp)
	// do the shift
	while (num_offset-- > 0)
  80a0e8:	00000306 	br	80a0f8 <alt_up_character_lcd_shift_cursor+0x84>
		alt_up_character_lcd_send_cmd(lcd, shift_cmd);
  80a0ec:	e17ffb43 	ldbu	r5,-19(fp)
  80a0f0:	e13ffc17 	ldw	r4,-16(fp)
  80a0f4:	0809e180 	call	809e18 <alt_up_character_lcd_send_cmd>
		ALT_UP_CHARACTER_LCD_COMM_CURSOR_SHIFT_RIGHT : ALT_UP_CHARACTER_LCD_COMM_CURSOR_SHIFT_LEFT;
	// see how many to shift
	unsigned char num_offset = (x_right_shift_offset > 0) ? x_right_shift_offset : 
		-x_right_shift_offset;
	// do the shift
	while (num_offset-- > 0)
  80a0f8:	e0bffb03 	ldbu	r2,-20(fp)
  80a0fc:	10bfffc4 	addi	r2,r2,-1
  80a100:	e0bffb05 	stb	r2,-20(fp)
  80a104:	e0bffb03 	ldbu	r2,-20(fp)
  80a108:	10803fd8 	cmpnei	r2,r2,255
  80a10c:	103ff71e 	bne	r2,zero,80a0ec <alt_up_character_lcd_shift_cursor+0x78>
		alt_up_character_lcd_send_cmd(lcd, shift_cmd);
}
  80a110:	e037883a 	mov	sp,fp
  80a114:	dfc00117 	ldw	ra,4(sp)
  80a118:	df000017 	ldw	fp,0(sp)
  80a11c:	dec00204 	addi	sp,sp,8
  80a120:	f800283a 	ret

0080a124 <alt_up_character_lcd_shift_display>:

void alt_up_character_lcd_shift_display(alt_up_character_lcd_dev *lcd, int x_right_shift_offset)
{
  80a124:	defff904 	addi	sp,sp,-28
  80a128:	dfc00615 	stw	ra,24(sp)
  80a12c:	df000515 	stw	fp,20(sp)
  80a130:	df000504 	addi	fp,sp,20
  80a134:	e13ffc15 	stw	r4,-16(fp)
  80a138:	e17ffd15 	stw	r5,-12(fp)
	if (x_right_shift_offset == 0) 
  80a13c:	e0bffd17 	ldw	r2,-12(fp)
  80a140:	1005003a 	cmpeq	r2,r2,zero
  80a144:	10001e1e 	bne	r2,zero,80a1c0 <alt_up_character_lcd_shift_display+0x9c>
		// don't ask me to do nothing 
		return;

	// see shift right or left
	unsigned char shift_cmd = (x_right_shift_offset > 0) ? 
		ALT_UP_CHARACTER_LCD_COMM_DISPLAY_SHIFT_RIGHT : ALT_UP_CHARACTER_LCD_COMM_DISPLAY_SHIFT_LEFT;
  80a148:	e0bffd17 	ldw	r2,-12(fp)
  80a14c:	10800050 	cmplti	r2,r2,1
  80a150:	1000031e 	bne	r2,zero,80a160 <alt_up_character_lcd_shift_display+0x3c>
  80a154:	00800704 	movi	r2,28
  80a158:	e0bfff05 	stb	r2,-4(fp)
  80a15c:	00000206 	br	80a168 <alt_up_character_lcd_shift_display+0x44>
  80a160:	00c00604 	movi	r3,24
  80a164:	e0ffff05 	stb	r3,-4(fp)
  80a168:	e0bfff03 	ldbu	r2,-4(fp)
  80a16c:	e0bffb45 	stb	r2,-19(fp)
	// see how many to shift
	unsigned char num_offset = (x_right_shift_offset > 0) ? x_right_shift_offset : 
		-x_right_shift_offset;
  80a170:	e0fffd17 	ldw	r3,-12(fp)
  80a174:	e0fffe15 	stw	r3,-8(fp)
  80a178:	e0fffe17 	ldw	r3,-8(fp)
  80a17c:	1804403a 	cmpge	r2,r3,zero
  80a180:	1000031e 	bne	r2,zero,80a190 <alt_up_character_lcd_shift_display+0x6c>
  80a184:	e0bffe17 	ldw	r2,-8(fp)
  80a188:	0085c83a 	sub	r2,zero,r2
  80a18c:	e0bffe15 	stw	r2,-8(fp)
  80a190:	e0fffe17 	ldw	r3,-8(fp)
  80a194:	e0fffb05 	stb	r3,-20(fp)
	// do the shift
	while (num_offset-- > 0)
  80a198:	00000306 	br	80a1a8 <alt_up_character_lcd_shift_display+0x84>
		alt_up_character_lcd_send_cmd(lcd, shift_cmd);
  80a19c:	e17ffb43 	ldbu	r5,-19(fp)
  80a1a0:	e13ffc17 	ldw	r4,-16(fp)
  80a1a4:	0809e180 	call	809e18 <alt_up_character_lcd_send_cmd>
		ALT_UP_CHARACTER_LCD_COMM_DISPLAY_SHIFT_RIGHT : ALT_UP_CHARACTER_LCD_COMM_DISPLAY_SHIFT_LEFT;
	// see how many to shift
	unsigned char num_offset = (x_right_shift_offset > 0) ? x_right_shift_offset : 
		-x_right_shift_offset;
	// do the shift
	while (num_offset-- > 0)
  80a1a8:	e0bffb03 	ldbu	r2,-20(fp)
  80a1ac:	10bfffc4 	addi	r2,r2,-1
  80a1b0:	e0bffb05 	stb	r2,-20(fp)
  80a1b4:	e0bffb03 	ldbu	r2,-20(fp)
  80a1b8:	10803fd8 	cmpnei	r2,r2,255
  80a1bc:	103ff71e 	bne	r2,zero,80a19c <alt_up_character_lcd_shift_display+0x78>
		alt_up_character_lcd_send_cmd(lcd, shift_cmd);
}
  80a1c0:	e037883a 	mov	sp,fp
  80a1c4:	dfc00117 	ldw	ra,4(sp)
  80a1c8:	df000017 	ldw	fp,0(sp)
  80a1cc:	dec00204 	addi	sp,sp,8
  80a1d0:	f800283a 	ret

0080a1d4 <alt_up_character_lcd_erase_pos>:

int alt_up_character_lcd_erase_pos(alt_up_character_lcd_dev *lcd, unsigned x_pos, unsigned y_pos)
{
  80a1d4:	defff904 	addi	sp,sp,-28
  80a1d8:	dfc00615 	stw	ra,24(sp)
  80a1dc:	df000515 	stw	fp,20(sp)
  80a1e0:	df000504 	addi	fp,sp,20
  80a1e4:	e13ffc15 	stw	r4,-16(fp)
  80a1e8:	e17ffd15 	stw	r5,-12(fp)
  80a1ec:	e1bffe15 	stw	r6,-8(fp)
	// boundary check
	if (x_pos > 39 || y_pos > 1 )
  80a1f0:	e0bffd17 	ldw	r2,-12(fp)
  80a1f4:	10800a28 	cmpgeui	r2,r2,40
  80a1f8:	1000031e 	bne	r2,zero,80a208 <alt_up_character_lcd_erase_pos+0x34>
  80a1fc:	e0bffe17 	ldw	r2,-8(fp)
  80a200:	108000b0 	cmpltui	r2,r2,2
  80a204:	1000031e 	bne	r2,zero,80a214 <alt_up_character_lcd_erase_pos+0x40>
		return -1;
  80a208:	00bfffc4 	movi	r2,-1
  80a20c:	e0bfff15 	stw	r2,-4(fp)
  80a210:	00000e06 	br	80a24c <alt_up_character_lcd_erase_pos+0x78>

	// get address
	unsigned char addr = get_DDRAM_addr(x_pos, y_pos);
  80a214:	e13ffd17 	ldw	r4,-12(fp)
  80a218:	e17ffe17 	ldw	r5,-8(fp)
  80a21c:	0809d9c0 	call	809d9c <get_DDRAM_addr>
  80a220:	e0bffb05 	stb	r2,-20(fp)
	// set cursor to dest point
	alt_up_character_lcd_send_cmd(lcd, addr);
  80a224:	e17ffb03 	ldbu	r5,-20(fp)
  80a228:	e13ffc17 	ldw	r4,-16(fp)
  80a22c:	0809e180 	call	809e18 <alt_up_character_lcd_send_cmd>
	//send an empty char as erase (refer to the Character Generator ROM part of the Datasheet)
	// NEM Bug Fix. Next loc sends | to the LCD instead of erase
	// Changed to send a simple space. Not really erase but good enough
	//IOWR_ALT_UP_CHARACTER_LCD_DATA(lcd->base, (0x00000002) );
	IOWR_ALT_UP_CHARACTER_LCD_DATA(lcd->base, ' ');
  80a230:	e0bffc17 	ldw	r2,-16(fp)
  80a234:	10800a17 	ldw	r2,40(r2)
  80a238:	10800044 	addi	r2,r2,1
  80a23c:	1007883a 	mov	r3,r2
  80a240:	00800804 	movi	r2,32
  80a244:	18800025 	stbio	r2,0(r3)
	// END NEM Bug Fixs
	return 0;
  80a248:	e03fff15 	stw	zero,-4(fp)
  80a24c:	e0bfff17 	ldw	r2,-4(fp)
}
  80a250:	e037883a 	mov	sp,fp
  80a254:	dfc00117 	ldw	ra,4(sp)
  80a258:	df000017 	ldw	fp,0(sp)
  80a25c:	dec00204 	addi	sp,sp,8
  80a260:	f800283a 	ret

0080a264 <alt_up_character_lcd_cursor_off>:

void alt_up_character_lcd_cursor_off(alt_up_character_lcd_dev *lcd)
{
  80a264:	defffd04 	addi	sp,sp,-12
  80a268:	dfc00215 	stw	ra,8(sp)
  80a26c:	df000115 	stw	fp,4(sp)
  80a270:	df000104 	addi	fp,sp,4
  80a274:	e13fff15 	stw	r4,-4(fp)
	alt_up_character_lcd_send_cmd(lcd, ALT_UP_CHARACTER_LCD_COMM_CURSOR_OFF);
  80a278:	e13fff17 	ldw	r4,-4(fp)
  80a27c:	01400304 	movi	r5,12
  80a280:	0809e180 	call	809e18 <alt_up_character_lcd_send_cmd>
}
  80a284:	e037883a 	mov	sp,fp
  80a288:	dfc00117 	ldw	ra,4(sp)
  80a28c:	df000017 	ldw	fp,0(sp)
  80a290:	dec00204 	addi	sp,sp,8
  80a294:	f800283a 	ret

0080a298 <alt_up_character_lcd_cursor_blink_on>:

void alt_up_character_lcd_cursor_blink_on(alt_up_character_lcd_dev *lcd)
{
  80a298:	defffd04 	addi	sp,sp,-12
  80a29c:	dfc00215 	stw	ra,8(sp)
  80a2a0:	df000115 	stw	fp,4(sp)
  80a2a4:	df000104 	addi	fp,sp,4
  80a2a8:	e13fff15 	stw	r4,-4(fp)
	alt_up_character_lcd_send_cmd(lcd, ALT_UP_CHARACTER_LCD_COMM_CURSOR_BLINK_ON);
  80a2ac:	e13fff17 	ldw	r4,-4(fp)
  80a2b0:	014003c4 	movi	r5,15
  80a2b4:	0809e180 	call	809e18 <alt_up_character_lcd_send_cmd>
}
  80a2b8:	e037883a 	mov	sp,fp
  80a2bc:	dfc00117 	ldw	ra,4(sp)
  80a2c0:	df000017 	ldw	fp,0(sp)
  80a2c4:	dec00204 	addi	sp,sp,8
  80a2c8:	f800283a 	ret

0080a2cc <alt_alarm_start>:
 */ 

int alt_alarm_start (alt_alarm* alarm, alt_u32 nticks,
                     alt_u32 (*callback) (void* context),
                     void* context)
{
  80a2cc:	defff404 	addi	sp,sp,-48
  80a2d0:	df000b15 	stw	fp,44(sp)
  80a2d4:	df000b04 	addi	fp,sp,44
  80a2d8:	e13ffb15 	stw	r4,-20(fp)
  80a2dc:	e17ffc15 	stw	r5,-16(fp)
  80a2e0:	e1bffd15 	stw	r6,-12(fp)
  80a2e4:	e1fffe15 	stw	r7,-8(fp)
  alt_irq_context irq_context;
  alt_u32 current_nticks = 0;
  80a2e8:	e03ff915 	stw	zero,-28(fp)
 * Obtain the system clock rate in ticks/s. 
 */

static ALT_INLINE alt_u32 ALT_ALWAYS_INLINE alt_ticks_per_second (void)
{
  return _alt_tick_rate;
  80a2ec:	00802074 	movhi	r2,129
  80a2f0:	10875d04 	addi	r2,r2,7540
  80a2f4:	10800017 	ldw	r2,0(r2)
  
  if (alt_ticks_per_second ())
  80a2f8:	1005003a 	cmpeq	r2,r2,zero
  80a2fc:	1000411e 	bne	r2,zero,80a404 <alt_alarm_start+0x138>
  {
    if (alarm)
  80a300:	e0bffb17 	ldw	r2,-20(fp)
  80a304:	1005003a 	cmpeq	r2,r2,zero
  80a308:	10003b1e 	bne	r2,zero,80a3f8 <alt_alarm_start+0x12c>
    {
      alarm->callback = callback;
  80a30c:	e0fffb17 	ldw	r3,-20(fp)
  80a310:	e0bffd17 	ldw	r2,-12(fp)
  80a314:	18800315 	stw	r2,12(r3)
      alarm->context  = context;
  80a318:	e0fffb17 	ldw	r3,-20(fp)
  80a31c:	e0bffe17 	ldw	r2,-8(fp)
  80a320:	18800515 	stw	r2,20(r3)
static ALT_INLINE alt_irq_context ALT_ALWAYS_INLINE 
       alt_irq_disable_all (void)
{
  alt_irq_context context;

  NIOS2_READ_STATUS (context);
  80a324:	0005303a 	rdctl	r2,status
  80a328:	e0bff815 	stw	r2,-32(fp)

  NIOS2_WRITE_STATUS (context & ~NIOS2_STATUS_PIE_MSK);
  80a32c:	e0fff817 	ldw	r3,-32(fp)
  80a330:	00bfff84 	movi	r2,-2
  80a334:	1884703a 	and	r2,r3,r2
  80a338:	1001703a 	wrctl	status,r2
  
  return context;
  80a33c:	e0bff817 	ldw	r2,-32(fp)
 
      irq_context = alt_irq_disable_all ();
  80a340:	e0bffa15 	stw	r2,-24(fp)
 * alt_nticks() returns the elapsed number of system clock ticks since reset.
 */

static ALT_INLINE alt_u32 ALT_ALWAYS_INLINE alt_nticks (void)
{
  return _alt_nticks;
  80a344:	00802074 	movhi	r2,129
  80a348:	10875e04 	addi	r2,r2,7544
  80a34c:	10800017 	ldw	r2,0(r2)
      
      current_nticks = alt_nticks();
  80a350:	e0bff915 	stw	r2,-28(fp)
      
      alarm->time = nticks + current_nticks + 1; 
  80a354:	e0fffc17 	ldw	r3,-16(fp)
  80a358:	e0bff917 	ldw	r2,-28(fp)
  80a35c:	1885883a 	add	r2,r3,r2
  80a360:	10c00044 	addi	r3,r2,1
  80a364:	e0bffb17 	ldw	r2,-20(fp)
  80a368:	10c00215 	stw	r3,8(r2)
      /* 
       * If the desired alarm time causes a roll-over, set the rollover
       * flag. This will prevent the subsequent tick event from causing
       * an alarm too early.
       */
      if(alarm->time < current_nticks)
  80a36c:	e0bffb17 	ldw	r2,-20(fp)
  80a370:	10c00217 	ldw	r3,8(r2)
  80a374:	e0bff917 	ldw	r2,-28(fp)
  80a378:	1880042e 	bgeu	r3,r2,80a38c <alt_alarm_start+0xc0>
      {
        alarm->rollover = 1;
  80a37c:	e0fffb17 	ldw	r3,-20(fp)
  80a380:	00800044 	movi	r2,1
  80a384:	18800405 	stb	r2,16(r3)
  80a388:	00000206 	br	80a394 <alt_alarm_start+0xc8>
      }
      else
      {
        alarm->rollover = 0;
  80a38c:	e0bffb17 	ldw	r2,-20(fp)
  80a390:	10000405 	stb	zero,16(r2)
      }
    
      alt_llist_insert (&alt_alarm_list, &alarm->llist);
  80a394:	e0fffb17 	ldw	r3,-20(fp)
  80a398:	00802074 	movhi	r2,129
  80a39c:	10807804 	addi	r2,r2,480
  80a3a0:	e0bff615 	stw	r2,-40(fp)
  80a3a4:	e0fff715 	stw	r3,-36(fp)
 */

static ALT_INLINE void ALT_ALWAYS_INLINE alt_llist_insert(alt_llist* list, 
                alt_llist* entry)
{
  entry->previous = list;
  80a3a8:	e0fff717 	ldw	r3,-36(fp)
  80a3ac:	e0bff617 	ldw	r2,-40(fp)
  80a3b0:	18800115 	stw	r2,4(r3)
  entry->next     = list->next;
  80a3b4:	e0bff617 	ldw	r2,-40(fp)
  80a3b8:	10c00017 	ldw	r3,0(r2)
  80a3bc:	e0bff717 	ldw	r2,-36(fp)
  80a3c0:	10c00015 	stw	r3,0(r2)

  list->next->previous = entry;
  80a3c4:	e0bff617 	ldw	r2,-40(fp)
  80a3c8:	10c00017 	ldw	r3,0(r2)
  80a3cc:	e0bff717 	ldw	r2,-36(fp)
  80a3d0:	18800115 	stw	r2,4(r3)
  list->next           = entry;
  80a3d4:	e0fff617 	ldw	r3,-40(fp)
  80a3d8:	e0bff717 	ldw	r2,-36(fp)
  80a3dc:	18800015 	stw	r2,0(r3)
  80a3e0:	e0bffa17 	ldw	r2,-24(fp)
  80a3e4:	e0bff515 	stw	r2,-44(fp)
  status &= ~NIOS2_STATUS_PIE_MSK;
  status |= (context & NIOS2_STATUS_PIE_MSK);
  
  NIOS2_WRITE_STATUS (status);
#else
  NIOS2_WRITE_STATUS (context);
  80a3e8:	e0bff517 	ldw	r2,-44(fp)
  80a3ec:	1001703a 	wrctl	status,r2
      alt_irq_enable_all (irq_context);

      return 0;
  80a3f0:	e03fff15 	stw	zero,-4(fp)
  80a3f4:	00000506 	br	80a40c <alt_alarm_start+0x140>
    }
    else
    {
      return -EINVAL;
  80a3f8:	00bffa84 	movi	r2,-22
  80a3fc:	e0bfff15 	stw	r2,-4(fp)
  80a400:	00000206 	br	80a40c <alt_alarm_start+0x140>
    }
  }
  else
  {
    return -ENOTSUP;
  80a404:	00bfde84 	movi	r2,-134
  80a408:	e0bfff15 	stw	r2,-4(fp)
  80a40c:	e0bfff17 	ldw	r2,-4(fp)
  }
}
  80a410:	e037883a 	mov	sp,fp
  80a414:	df000017 	ldw	fp,0(sp)
  80a418:	dec00104 	addi	sp,sp,4
  80a41c:	f800283a 	ret

0080a420 <close>:
 *
 * ALT_CLOSE is mapped onto the close() system call in alt_syscall.h
 */
 
int ALT_CLOSE (int fildes)
{
  80a420:	defff804 	addi	sp,sp,-32
  80a424:	dfc00715 	stw	ra,28(sp)
  80a428:	df000615 	stw	fp,24(sp)
  80a42c:	df000604 	addi	fp,sp,24
  80a430:	e13ffc15 	stw	r4,-16(fp)
   * A common error case is that when the file descriptor was created, the call
   * to open() failed resulting in a negative file descriptor. This is trapped
   * below so that we don't try and process an invalid file descriptor.
   */

  fd = (fildes < 0) ? NULL : &alt_fd_list[fildes];
  80a434:	e0bffc17 	ldw	r2,-16(fp)
  80a438:	1004803a 	cmplt	r2,r2,zero
  80a43c:	1000091e 	bne	r2,zero,80a464 <close+0x44>
  80a440:	e13ffc17 	ldw	r4,-16(fp)
  80a444:	01400304 	movi	r5,12
  80a448:	080dd080 	call	80dd08 <__mulsi3>
  80a44c:	1007883a 	mov	r3,r2
  80a450:	00802074 	movhi	r2,129
  80a454:	10bdf004 	addi	r2,r2,-2112
  80a458:	1887883a 	add	r3,r3,r2
  80a45c:	e0ffff15 	stw	r3,-4(fp)
  80a460:	00000106 	br	80a468 <close+0x48>
  80a464:	e03fff15 	stw	zero,-4(fp)
  80a468:	e0bfff17 	ldw	r2,-4(fp)
  80a46c:	e0bffb15 	stw	r2,-20(fp)

  if (fd)
  80a470:	e0bffb17 	ldw	r2,-20(fp)
  80a474:	1005003a 	cmpeq	r2,r2,zero
  80a478:	10001d1e 	bne	r2,zero,80a4f0 <close+0xd0>
    /*
     * If the associated file system/device has a close function, call it so 
     * that any necessary cleanup code can run.
     */

    rval = (fd->dev->close) ? fd->dev->close(fd) : 0;
  80a47c:	e0bffb17 	ldw	r2,-20(fp)
  80a480:	10800017 	ldw	r2,0(r2)
  80a484:	10800417 	ldw	r2,16(r2)
  80a488:	1005003a 	cmpeq	r2,r2,zero
  80a48c:	1000071e 	bne	r2,zero,80a4ac <close+0x8c>
  80a490:	e0bffb17 	ldw	r2,-20(fp)
  80a494:	10800017 	ldw	r2,0(r2)
  80a498:	10800417 	ldw	r2,16(r2)
  80a49c:	e13ffb17 	ldw	r4,-20(fp)
  80a4a0:	103ee83a 	callr	r2
  80a4a4:	e0bffe15 	stw	r2,-8(fp)
  80a4a8:	00000106 	br	80a4b0 <close+0x90>
  80a4ac:	e03ffe15 	stw	zero,-8(fp)
  80a4b0:	e0bffe17 	ldw	r2,-8(fp)
  80a4b4:	e0bffa15 	stw	r2,-24(fp)

    /* Free the file descriptor structure and return. */

    alt_release_fd (fildes);
  80a4b8:	e13ffc17 	ldw	r4,-16(fp)
  80a4bc:	080af540 	call	80af54 <alt_release_fd>
    if (rval < 0)
  80a4c0:	e0bffa17 	ldw	r2,-24(fp)
  80a4c4:	1004403a 	cmpge	r2,r2,zero
  80a4c8:	1000071e 	bne	r2,zero,80a4e8 <close+0xc8>
    {
      ALT_ERRNO = -rval;
  80a4cc:	080a5200 	call	80a520 <alt_get_errno>
  80a4d0:	e0fffa17 	ldw	r3,-24(fp)
  80a4d4:	00c7c83a 	sub	r3,zero,r3
  80a4d8:	10c00015 	stw	r3,0(r2)
      return -1;
  80a4dc:	00bfffc4 	movi	r2,-1
  80a4e0:	e0bffd15 	stw	r2,-12(fp)
  80a4e4:	00000806 	br	80a508 <close+0xe8>
    }
    return 0;
  80a4e8:	e03ffd15 	stw	zero,-12(fp)
  80a4ec:	00000606 	br	80a508 <close+0xe8>
  }
  else
  {
    ALT_ERRNO = EBADFD;
  80a4f0:	080a5200 	call	80a520 <alt_get_errno>
  80a4f4:	1007883a 	mov	r3,r2
  80a4f8:	00801444 	movi	r2,81
  80a4fc:	18800015 	stw	r2,0(r3)
    return -1;
  80a500:	00bfffc4 	movi	r2,-1
  80a504:	e0bffd15 	stw	r2,-12(fp)
  80a508:	e0bffd17 	ldw	r2,-12(fp)
  }
}
  80a50c:	e037883a 	mov	sp,fp
  80a510:	dfc00117 	ldw	ra,4(sp)
  80a514:	df000017 	ldw	fp,0(sp)
  80a518:	dec00204 	addi	sp,sp,8
  80a51c:	f800283a 	ret

0080a520 <alt_get_errno>:
#undef errno

extern int errno;

static ALT_INLINE int* alt_get_errno(void)
{
  80a520:	defffd04 	addi	sp,sp,-12
  80a524:	dfc00215 	stw	ra,8(sp)
  80a528:	df000115 	stw	fp,4(sp)
  80a52c:	df000104 	addi	fp,sp,4
  return ((alt_errno) ? alt_errno() : &errno);
  80a530:	00802074 	movhi	r2,129
  80a534:	10807604 	addi	r2,r2,472
  80a538:	10800017 	ldw	r2,0(r2)
  80a53c:	1005003a 	cmpeq	r2,r2,zero
  80a540:	1000061e 	bne	r2,zero,80a55c <alt_get_errno+0x3c>
  80a544:	00802074 	movhi	r2,129
  80a548:	10807604 	addi	r2,r2,472
  80a54c:	10800017 	ldw	r2,0(r2)
  80a550:	103ee83a 	callr	r2
  80a554:	e0bfff15 	stw	r2,-4(fp)
  80a558:	00000306 	br	80a568 <alt_get_errno+0x48>
  80a55c:	00802074 	movhi	r2,129
  80a560:	10875f04 	addi	r2,r2,7548
  80a564:	e0bfff15 	stw	r2,-4(fp)
  80a568:	e0bfff17 	ldw	r2,-4(fp)
}
  80a56c:	e037883a 	mov	sp,fp
  80a570:	dfc00117 	ldw	ra,4(sp)
  80a574:	df000017 	ldw	fp,0(sp)
  80a578:	dec00204 	addi	sp,sp,8
  80a57c:	f800283a 	ret

0080a580 <alt_dcache_flush_all>:
/*
 * alt_dcache_flush_all() is called to flush the entire data cache.
 */

void alt_dcache_flush_all (void)
{
  80a580:	deffff04 	addi	sp,sp,-4
  80a584:	df000015 	stw	fp,0(sp)
  80a588:	d839883a 	mov	fp,sp
  for (i = (char*) 0; i < (char*) NIOS2_DCACHE_SIZE; i+= NIOS2_DCACHE_LINE_SIZE)
  { 
    __asm__ volatile ("flushd (%0)" :: "r" (i));
  }
#endif /* NIOS2_DCACHE_SIZE > 0 */
}
  80a58c:	e037883a 	mov	sp,fp
  80a590:	df000017 	ldw	fp,0(sp)
  80a594:	dec00104 	addi	sp,sp,4
  80a598:	f800283a 	ret

0080a59c <alt_dev_null_write>:
 * by the alt_dev_null device. It simple discards all data passed to it, and
 * indicates that the data has been successfully transmitted.
 */

static int alt_dev_null_write (alt_fd* fd, const char* ptr, int len)
{
  80a59c:	defffc04 	addi	sp,sp,-16
  80a5a0:	df000315 	stw	fp,12(sp)
  80a5a4:	df000304 	addi	fp,sp,12
  80a5a8:	e13ffd15 	stw	r4,-12(fp)
  80a5ac:	e17ffe15 	stw	r5,-8(fp)
  80a5b0:	e1bfff15 	stw	r6,-4(fp)
  return len;
  80a5b4:	e0bfff17 	ldw	r2,-4(fp)
}
  80a5b8:	e037883a 	mov	sp,fp
  80a5bc:	df000017 	ldw	fp,0(sp)
  80a5c0:	dec00104 	addi	sp,sp,4
  80a5c4:	f800283a 	ret

0080a5c8 <alt_dev_llist_insert>:
/*
 *
 */

int alt_dev_llist_insert (alt_dev_llist* dev, alt_llist* list)
{
  80a5c8:	defff904 	addi	sp,sp,-28
  80a5cc:	dfc00615 	stw	ra,24(sp)
  80a5d0:	df000515 	stw	fp,20(sp)
  80a5d4:	df000504 	addi	fp,sp,20
  80a5d8:	e13ffd15 	stw	r4,-12(fp)
  80a5dc:	e17ffe15 	stw	r5,-8(fp)
  /*
   * check that the device exists, and that it has a valid name.
   */

  if (!dev || !dev->name)
  80a5e0:	e0bffd17 	ldw	r2,-12(fp)
  80a5e4:	1005003a 	cmpeq	r2,r2,zero
  80a5e8:	1000041e 	bne	r2,zero,80a5fc <alt_dev_llist_insert+0x34>
  80a5ec:	e0bffd17 	ldw	r2,-12(fp)
  80a5f0:	10800217 	ldw	r2,8(r2)
  80a5f4:	1004c03a 	cmpne	r2,r2,zero
  80a5f8:	1000071e 	bne	r2,zero,80a618 <alt_dev_llist_insert+0x50>
  {
    ALT_ERRNO = EINVAL;
  80a5fc:	080a67c0 	call	80a67c <alt_get_errno>
  80a600:	1007883a 	mov	r3,r2
  80a604:	00800584 	movi	r2,22
  80a608:	18800015 	stw	r2,0(r3)
    return -EINVAL;
  80a60c:	00bffa84 	movi	r2,-22
  80a610:	e0bfff15 	stw	r2,-4(fp)
  80a614:	00001306 	br	80a664 <alt_dev_llist_insert+0x9c>
  
  /*
   * register the device.
   */
  
  alt_llist_insert(list, &dev->llist);
  80a618:	e0fffd17 	ldw	r3,-12(fp)
  80a61c:	e0bffe17 	ldw	r2,-8(fp)
  80a620:	e0bffb15 	stw	r2,-20(fp)
  80a624:	e0fffc15 	stw	r3,-16(fp)
 */

static ALT_INLINE void ALT_ALWAYS_INLINE alt_llist_insert(alt_llist* list, 
                alt_llist* entry)
{
  entry->previous = list;
  80a628:	e0fffc17 	ldw	r3,-16(fp)
  80a62c:	e0bffb17 	ldw	r2,-20(fp)
  80a630:	18800115 	stw	r2,4(r3)
  entry->next     = list->next;
  80a634:	e0bffb17 	ldw	r2,-20(fp)
  80a638:	10c00017 	ldw	r3,0(r2)
  80a63c:	e0bffc17 	ldw	r2,-16(fp)
  80a640:	10c00015 	stw	r3,0(r2)

  list->next->previous = entry;
  80a644:	e0bffb17 	ldw	r2,-20(fp)
  80a648:	10c00017 	ldw	r3,0(r2)
  80a64c:	e0bffc17 	ldw	r2,-16(fp)
  80a650:	18800115 	stw	r2,4(r3)
  list->next           = entry;
  80a654:	e0fffb17 	ldw	r3,-20(fp)
  80a658:	e0bffc17 	ldw	r2,-16(fp)
  80a65c:	18800015 	stw	r2,0(r3)

  return 0;  
  80a660:	e03fff15 	stw	zero,-4(fp)
  80a664:	e0bfff17 	ldw	r2,-4(fp)
}
  80a668:	e037883a 	mov	sp,fp
  80a66c:	dfc00117 	ldw	ra,4(sp)
  80a670:	df000017 	ldw	fp,0(sp)
  80a674:	dec00204 	addi	sp,sp,8
  80a678:	f800283a 	ret

0080a67c <alt_get_errno>:
#undef errno

extern int errno;

static ALT_INLINE int* alt_get_errno(void)
{
  80a67c:	defffd04 	addi	sp,sp,-12
  80a680:	dfc00215 	stw	ra,8(sp)
  80a684:	df000115 	stw	fp,4(sp)
  80a688:	df000104 	addi	fp,sp,4
  return ((alt_errno) ? alt_errno() : &errno);
  80a68c:	00802074 	movhi	r2,129
  80a690:	10807604 	addi	r2,r2,472
  80a694:	10800017 	ldw	r2,0(r2)
  80a698:	1005003a 	cmpeq	r2,r2,zero
  80a69c:	1000061e 	bne	r2,zero,80a6b8 <alt_get_errno+0x3c>
  80a6a0:	00802074 	movhi	r2,129
  80a6a4:	10807604 	addi	r2,r2,472
  80a6a8:	10800017 	ldw	r2,0(r2)
  80a6ac:	103ee83a 	callr	r2
  80a6b0:	e0bfff15 	stw	r2,-4(fp)
  80a6b4:	00000306 	br	80a6c4 <alt_get_errno+0x48>
  80a6b8:	00802074 	movhi	r2,129
  80a6bc:	10875f04 	addi	r2,r2,7548
  80a6c0:	e0bfff15 	stw	r2,-4(fp)
  80a6c4:	e0bfff17 	ldw	r2,-4(fp)
}
  80a6c8:	e037883a 	mov	sp,fp
  80a6cc:	dfc00117 	ldw	ra,4(sp)
  80a6d0:	df000017 	ldw	fp,0(sp)
  80a6d4:	dec00204 	addi	sp,sp,8
  80a6d8:	f800283a 	ret

0080a6dc <_do_ctors>:
/*
 * Run the C++ static constructors.
 */

void _do_ctors(void)
{
  80a6dc:	defffd04 	addi	sp,sp,-12
  80a6e0:	dfc00215 	stw	ra,8(sp)
  80a6e4:	df000115 	stw	fp,4(sp)
  80a6e8:	df000104 	addi	fp,sp,4
  constructor* ctor;

  for (ctor = &__CTOR_END__[-1]; ctor >= __CTOR_LIST__; ctor--)
  80a6ec:	00bfff04 	movi	r2,-4
  80a6f0:	00c02074 	movhi	r3,129
  80a6f4:	18f94904 	addi	r3,r3,-6876
  80a6f8:	1885883a 	add	r2,r3,r2
  80a6fc:	e0bfff15 	stw	r2,-4(fp)
  80a700:	00000606 	br	80a71c <_do_ctors+0x40>
        (*ctor) (); 
  80a704:	e0bfff17 	ldw	r2,-4(fp)
  80a708:	10800017 	ldw	r2,0(r2)
  80a70c:	103ee83a 	callr	r2

void _do_ctors(void)
{
  constructor* ctor;

  for (ctor = &__CTOR_END__[-1]; ctor >= __CTOR_LIST__; ctor--)
  80a710:	e0bfff17 	ldw	r2,-4(fp)
  80a714:	10bfff04 	addi	r2,r2,-4
  80a718:	e0bfff15 	stw	r2,-4(fp)
  80a71c:	e0ffff17 	ldw	r3,-4(fp)
  80a720:	00802074 	movhi	r2,129
  80a724:	10b94804 	addi	r2,r2,-6880
  80a728:	18bff62e 	bgeu	r3,r2,80a704 <_do_ctors+0x28>
        (*ctor) (); 
}
  80a72c:	e037883a 	mov	sp,fp
  80a730:	dfc00117 	ldw	ra,4(sp)
  80a734:	df000017 	ldw	fp,0(sp)
  80a738:	dec00204 	addi	sp,sp,8
  80a73c:	f800283a 	ret

0080a740 <_do_dtors>:
/*
 * Run the C++ static destructors.
 */

void _do_dtors(void)
{
  80a740:	defffd04 	addi	sp,sp,-12
  80a744:	dfc00215 	stw	ra,8(sp)
  80a748:	df000115 	stw	fp,4(sp)
  80a74c:	df000104 	addi	fp,sp,4
  destructor* dtor;

  for (dtor = &__DTOR_END__[-1]; dtor >= __DTOR_LIST__; dtor--)
  80a750:	00bfff04 	movi	r2,-4
  80a754:	00c02074 	movhi	r3,129
  80a758:	18f94904 	addi	r3,r3,-6876
  80a75c:	1885883a 	add	r2,r3,r2
  80a760:	e0bfff15 	stw	r2,-4(fp)
  80a764:	00000606 	br	80a780 <_do_dtors+0x40>
        (*dtor) (); 
  80a768:	e0bfff17 	ldw	r2,-4(fp)
  80a76c:	10800017 	ldw	r2,0(r2)
  80a770:	103ee83a 	callr	r2

void _do_dtors(void)
{
  destructor* dtor;

  for (dtor = &__DTOR_END__[-1]; dtor >= __DTOR_LIST__; dtor--)
  80a774:	e0bfff17 	ldw	r2,-4(fp)
  80a778:	10bfff04 	addi	r2,r2,-4
  80a77c:	e0bfff15 	stw	r2,-4(fp)
  80a780:	e0ffff17 	ldw	r3,-4(fp)
  80a784:	00802074 	movhi	r2,129
  80a788:	10b94904 	addi	r2,r2,-6876
  80a78c:	18bff62e 	bgeu	r3,r2,80a768 <_do_dtors+0x28>
        (*dtor) (); 
}
  80a790:	e037883a 	mov	sp,fp
  80a794:	dfc00117 	ldw	ra,4(sp)
  80a798:	df000017 	ldw	fp,0(sp)
  80a79c:	dec00204 	addi	sp,sp,8
  80a7a0:	f800283a 	ret

0080a7a4 <alt_find_dev>:
 * "name" must be an exact match for the devices registered name for a match to
 * be found.
 */
 
alt_dev* alt_find_dev(const char* name, alt_llist* llist)
{
  80a7a4:	defff904 	addi	sp,sp,-28
  80a7a8:	dfc00615 	stw	ra,24(sp)
  80a7ac:	df000515 	stw	fp,20(sp)
  80a7b0:	df000504 	addi	fp,sp,20
  80a7b4:	e13ffd15 	stw	r4,-12(fp)
  80a7b8:	e17ffe15 	stw	r5,-8(fp)
  alt_dev* next = (alt_dev*) llist->next;
  80a7bc:	e0bffe17 	ldw	r2,-8(fp)
  80a7c0:	10800017 	ldw	r2,0(r2)
  80a7c4:	e0bffc15 	stw	r2,-16(fp)
  alt_32 len;

  len  = strlen(name) + 1;
  80a7c8:	e13ffd17 	ldw	r4,-12(fp)
  80a7cc:	080bc840 	call	80bc84 <strlen>
  80a7d0:	10800044 	addi	r2,r2,1
  80a7d4:	e0bffb15 	stw	r2,-20(fp)
  /*
   * Check each list entry in turn, until a match is found, or we reach the
   * end of the list (i.e. next winds up pointing back to the list head).
   */ 

  while (next != (alt_dev*) llist)
  80a7d8:	00000d06 	br	80a810 <alt_find_dev+0x6c>
    /* 
     * memcmp() is used here rather than strcmp() in order to reduce the size
     * of the executable.
     */

    if (!memcmp (next->name, name, len))
  80a7dc:	e0bffc17 	ldw	r2,-16(fp)
  80a7e0:	11000217 	ldw	r4,8(r2)
  80a7e4:	e1bffb17 	ldw	r6,-20(fp)
  80a7e8:	e17ffd17 	ldw	r5,-12(fp)
  80a7ec:	080b8ec0 	call	80b8ec <memcmp>
  80a7f0:	1004c03a 	cmpne	r2,r2,zero
  80a7f4:	1000031e 	bne	r2,zero,80a804 <alt_find_dev+0x60>
    {
      /* match found */

      return next;
  80a7f8:	e0bffc17 	ldw	r2,-16(fp)
  80a7fc:	e0bfff15 	stw	r2,-4(fp)
  80a800:	00000706 	br	80a820 <alt_find_dev+0x7c>
    }
    next = (alt_dev*) next->llist.next;
  80a804:	e0bffc17 	ldw	r2,-16(fp)
  80a808:	10800017 	ldw	r2,0(r2)
  80a80c:	e0bffc15 	stw	r2,-16(fp)
  /*
   * Check each list entry in turn, until a match is found, or we reach the
   * end of the list (i.e. next winds up pointing back to the list head).
   */ 

  while (next != (alt_dev*) llist)
  80a810:	e0fffe17 	ldw	r3,-8(fp)
  80a814:	e0bffc17 	ldw	r2,-16(fp)
  80a818:	10fff01e 	bne	r2,r3,80a7dc <alt_find_dev+0x38>
    next = (alt_dev*) next->llist.next;
  }
  
  /* No match found */
  
  return NULL;
  80a81c:	e03fff15 	stw	zero,-4(fp)
  80a820:	e0bfff17 	ldw	r2,-4(fp)
}
  80a824:	e037883a 	mov	sp,fp
  80a828:	dfc00117 	ldw	ra,4(sp)
  80a82c:	df000017 	ldw	fp,0(sp)
  80a830:	dec00204 	addi	sp,sp,8
  80a834:	f800283a 	ret

0080a838 <alt_icache_flush_all>:
/*
 * alt_icache_flush_all() is called to flush the entire instruction cache.
 */

void alt_icache_flush_all (void)
{
  80a838:	deffff04 	addi	sp,sp,-4
  80a83c:	df000015 	stw	fp,0(sp)
  80a840:	d839883a 	mov	fp,sp
#if NIOS2_ICACHE_SIZE > 0
  alt_icache_flush (0, NIOS2_ICACHE_SIZE);
#endif
}
  80a844:	e037883a 	mov	sp,fp
  80a848:	df000017 	ldw	fp,0(sp)
  80a84c:	dec00104 	addi	sp,sp,4
  80a850:	f800283a 	ret

0080a854 <alt_ic_isr_register>:
  * @param irq              IRQ number
  * @return                 0 if successful, else error (-1)
  */
int alt_ic_isr_register(alt_u32 ic_id, alt_u32 irq, alt_isr_func isr, 
  void *isr_context, void *flags)
{
  80a854:	defff904 	addi	sp,sp,-28
  80a858:	dfc00615 	stw	ra,24(sp)
  80a85c:	df000515 	stw	fp,20(sp)
  80a860:	df000504 	addi	fp,sp,20
  80a864:	e13ffc15 	stw	r4,-16(fp)
  80a868:	e17ffd15 	stw	r5,-12(fp)
  80a86c:	e1bffe15 	stw	r6,-8(fp)
  80a870:	e1ffff15 	stw	r7,-4(fp)
    return alt_iic_isr_register(ic_id, irq, isr, isr_context, flags);
  80a874:	e0800217 	ldw	r2,8(fp)
  80a878:	d8800015 	stw	r2,0(sp)
  80a87c:	e13ffc17 	ldw	r4,-16(fp)
  80a880:	e17ffd17 	ldw	r5,-12(fp)
  80a884:	e1bffe17 	ldw	r6,-8(fp)
  80a888:	e1ffff17 	ldw	r7,-4(fp)
  80a88c:	080aa280 	call	80aa28 <alt_iic_isr_register>
}  
  80a890:	e037883a 	mov	sp,fp
  80a894:	dfc00117 	ldw	ra,4(sp)
  80a898:	df000017 	ldw	fp,0(sp)
  80a89c:	dec00204 	addi	sp,sp,8
  80a8a0:	f800283a 	ret

0080a8a4 <alt_ic_irq_enable>:
  * @param ic_id            Ignored.
  * @param irq              IRQ number
  * @return                 0 if successful, else error (-1)
  */
int alt_ic_irq_enable (alt_u32 ic_id, alt_u32 irq)
{
  80a8a4:	defff904 	addi	sp,sp,-28
  80a8a8:	df000615 	stw	fp,24(sp)
  80a8ac:	df000604 	addi	fp,sp,24
  80a8b0:	e13ffe15 	stw	r4,-8(fp)
  80a8b4:	e17fff15 	stw	r5,-4(fp)
  80a8b8:	e0bfff17 	ldw	r2,-4(fp)
  80a8bc:	e0bffc15 	stw	r2,-16(fp)
static ALT_INLINE alt_irq_context ALT_ALWAYS_INLINE 
       alt_irq_disable_all (void)
{
  alt_irq_context context;

  NIOS2_READ_STATUS (context);
  80a8c0:	0005303a 	rdctl	r2,status
  80a8c4:	e0bffb15 	stw	r2,-20(fp)

  NIOS2_WRITE_STATUS (context & ~NIOS2_STATUS_PIE_MSK);
  80a8c8:	e0fffb17 	ldw	r3,-20(fp)
  80a8cc:	00bfff84 	movi	r2,-2
  80a8d0:	1884703a 	and	r2,r3,r2
  80a8d4:	1001703a 	wrctl	status,r2
  
  return context;
  80a8d8:	e0bffb17 	ldw	r2,-20(fp)
static ALT_INLINE int ALT_ALWAYS_INLINE alt_irq_enable (alt_u32 id)
{
  alt_irq_context  status;
  extern volatile alt_u32 alt_irq_active;

  status = alt_irq_disable_all ();
  80a8dc:	e0bffd15 	stw	r2,-12(fp)

  alt_irq_active |= (1 << id);
  80a8e0:	e0fffc17 	ldw	r3,-16(fp)
  80a8e4:	00800044 	movi	r2,1
  80a8e8:	10c4983a 	sll	r2,r2,r3
  80a8ec:	1007883a 	mov	r3,r2
  80a8f0:	00802074 	movhi	r2,129
  80a8f4:	10875c04 	addi	r2,r2,7536
  80a8f8:	10800017 	ldw	r2,0(r2)
  80a8fc:	1886b03a 	or	r3,r3,r2
  80a900:	00802074 	movhi	r2,129
  80a904:	10875c04 	addi	r2,r2,7536
  80a908:	10c00015 	stw	r3,0(r2)
  NIOS2_WRITE_IENABLE (alt_irq_active);
  80a90c:	00802074 	movhi	r2,129
  80a910:	10875c04 	addi	r2,r2,7536
  80a914:	10800017 	ldw	r2,0(r2)
  80a918:	100170fa 	wrctl	ienable,r2
  80a91c:	e0bffd17 	ldw	r2,-12(fp)
  80a920:	e0bffa15 	stw	r2,-24(fp)
  status &= ~NIOS2_STATUS_PIE_MSK;
  status |= (context & NIOS2_STATUS_PIE_MSK);
  
  NIOS2_WRITE_STATUS (status);
#else
  NIOS2_WRITE_STATUS (context);
  80a924:	e0bffa17 	ldw	r2,-24(fp)
  80a928:	1001703a 	wrctl	status,r2

  alt_irq_enable_all(status);

  return 0;
  80a92c:	0005883a 	mov	r2,zero
    return alt_irq_enable(irq);
}
  80a930:	e037883a 	mov	sp,fp
  80a934:	df000017 	ldw	fp,0(sp)
  80a938:	dec00104 	addi	sp,sp,4
  80a93c:	f800283a 	ret

0080a940 <alt_ic_irq_disable>:
  * @param ic_id            Ignored.
  * @param irq              IRQ number
  * @return                 0 if successful, else error (-1)
  */
int alt_ic_irq_disable(alt_u32 ic_id, alt_u32 irq)
{
  80a940:	defff904 	addi	sp,sp,-28
  80a944:	df000615 	stw	fp,24(sp)
  80a948:	df000604 	addi	fp,sp,24
  80a94c:	e13ffe15 	stw	r4,-8(fp)
  80a950:	e17fff15 	stw	r5,-4(fp)
  80a954:	e0bfff17 	ldw	r2,-4(fp)
  80a958:	e0bffc15 	stw	r2,-16(fp)
static ALT_INLINE alt_irq_context ALT_ALWAYS_INLINE 
       alt_irq_disable_all (void)
{
  alt_irq_context context;

  NIOS2_READ_STATUS (context);
  80a95c:	0005303a 	rdctl	r2,status
  80a960:	e0bffb15 	stw	r2,-20(fp)

  NIOS2_WRITE_STATUS (context & ~NIOS2_STATUS_PIE_MSK);
  80a964:	e0fffb17 	ldw	r3,-20(fp)
  80a968:	00bfff84 	movi	r2,-2
  80a96c:	1884703a 	and	r2,r3,r2
  80a970:	1001703a 	wrctl	status,r2
  
  return context;
  80a974:	e0bffb17 	ldw	r2,-20(fp)
static ALT_INLINE int ALT_ALWAYS_INLINE alt_irq_disable (alt_u32 id)
{
  alt_irq_context  status;
  extern volatile alt_u32 alt_irq_active;

  status = alt_irq_disable_all ();
  80a978:	e0bffd15 	stw	r2,-12(fp)

  alt_irq_active &= ~(1 << id);
  80a97c:	e0fffc17 	ldw	r3,-16(fp)
  80a980:	00800044 	movi	r2,1
  80a984:	10c4983a 	sll	r2,r2,r3
  80a988:	0084303a 	nor	r2,zero,r2
  80a98c:	1007883a 	mov	r3,r2
  80a990:	00802074 	movhi	r2,129
  80a994:	10875c04 	addi	r2,r2,7536
  80a998:	10800017 	ldw	r2,0(r2)
  80a99c:	1886703a 	and	r3,r3,r2
  80a9a0:	00802074 	movhi	r2,129
  80a9a4:	10875c04 	addi	r2,r2,7536
  80a9a8:	10c00015 	stw	r3,0(r2)
  NIOS2_WRITE_IENABLE (alt_irq_active);
  80a9ac:	00802074 	movhi	r2,129
  80a9b0:	10875c04 	addi	r2,r2,7536
  80a9b4:	10800017 	ldw	r2,0(r2)
  80a9b8:	100170fa 	wrctl	ienable,r2
  80a9bc:	e0bffd17 	ldw	r2,-12(fp)
  80a9c0:	e0bffa15 	stw	r2,-24(fp)
  status &= ~NIOS2_STATUS_PIE_MSK;
  status |= (context & NIOS2_STATUS_PIE_MSK);
  
  NIOS2_WRITE_STATUS (status);
#else
  NIOS2_WRITE_STATUS (context);
  80a9c4:	e0bffa17 	ldw	r2,-24(fp)
  80a9c8:	1001703a 	wrctl	status,r2

  alt_irq_enable_all(status);

  return 0;
  80a9cc:	0005883a 	mov	r2,zero
    return alt_irq_disable(irq);
}
  80a9d0:	e037883a 	mov	sp,fp
  80a9d4:	df000017 	ldw	fp,0(sp)
  80a9d8:	dec00104 	addi	sp,sp,4
  80a9dc:	f800283a 	ret

0080a9e0 <alt_ic_irq_enabled>:
  * @param irq              IRQ number
  * @return                 Zero if corresponding interrupt is disabled and
  *                         non-zero otherwise.
  */
alt_u32 alt_ic_irq_enabled(alt_u32 ic_id, alt_u32 irq)
{
  80a9e0:	defffc04 	addi	sp,sp,-16
  80a9e4:	df000315 	stw	fp,12(sp)
  80a9e8:	df000304 	addi	fp,sp,12
  80a9ec:	e13ffe15 	stw	r4,-8(fp)
  80a9f0:	e17fff15 	stw	r5,-4(fp)
    alt_u32 irq_enabled;

    NIOS2_READ_IENABLE(irq_enabled);
  80a9f4:	000530fa 	rdctl	r2,ienable
  80a9f8:	e0bffd15 	stw	r2,-12(fp)

    return (irq_enabled & (1 << irq)) ? 1: 0;
  80a9fc:	e0ffff17 	ldw	r3,-4(fp)
  80aa00:	00800044 	movi	r2,1
  80aa04:	10c4983a 	sll	r2,r2,r3
  80aa08:	1007883a 	mov	r3,r2
  80aa0c:	e0bffd17 	ldw	r2,-12(fp)
  80aa10:	1884703a 	and	r2,r3,r2
  80aa14:	1004c03a 	cmpne	r2,r2,zero
}
  80aa18:	e037883a 	mov	sp,fp
  80aa1c:	df000017 	ldw	fp,0(sp)
  80aa20:	dec00104 	addi	sp,sp,4
  80aa24:	f800283a 	ret

0080aa28 <alt_iic_isr_register>:
  * @param flags            
  * @return                 0 if successful, else error (-1)
  */
int alt_iic_isr_register(alt_u32 ic_id, alt_u32 irq, alt_isr_func isr, 
  void *isr_context, void *flags)
{
  80aa28:	defff404 	addi	sp,sp,-48
  80aa2c:	dfc00b15 	stw	ra,44(sp)
  80aa30:	df000a15 	stw	fp,40(sp)
  80aa34:	df000a04 	addi	fp,sp,40
  80aa38:	e13ffb15 	stw	r4,-20(fp)
  80aa3c:	e17ffc15 	stw	r5,-16(fp)
  80aa40:	e1bffd15 	stw	r6,-12(fp)
  80aa44:	e1fffe15 	stw	r7,-8(fp)
  int rc = -EINVAL;  
  80aa48:	00bffa84 	movi	r2,-22
  80aa4c:	e0bffa15 	stw	r2,-24(fp)
  int id = irq;             /* IRQ interpreted as the interrupt ID. */
  80aa50:	e0bffc17 	ldw	r2,-16(fp)
  80aa54:	e0bff915 	stw	r2,-28(fp)
  alt_irq_context status;

  if (id < ALT_NIRQ)
  80aa58:	e0bff917 	ldw	r2,-28(fp)
  80aa5c:	10800808 	cmpgei	r2,r2,32
  80aa60:	1000291e 	bne	r2,zero,80ab08 <alt_iic_isr_register+0xe0>
static ALT_INLINE alt_irq_context ALT_ALWAYS_INLINE 
       alt_irq_disable_all (void)
{
  alt_irq_context context;

  NIOS2_READ_STATUS (context);
  80aa64:	0005303a 	rdctl	r2,status
  80aa68:	e0bff715 	stw	r2,-36(fp)

  NIOS2_WRITE_STATUS (context & ~NIOS2_STATUS_PIE_MSK);
  80aa6c:	e0fff717 	ldw	r3,-36(fp)
  80aa70:	00bfff84 	movi	r2,-2
  80aa74:	1884703a 	and	r2,r3,r2
  80aa78:	1001703a 	wrctl	status,r2
  
  return context;
  80aa7c:	e0bff717 	ldw	r2,-36(fp)
     * interrupts are disabled while the handler tables are updated to ensure
     * that an interrupt doesn't occur while the tables are in an inconsistant
     * state.
     */

    status = alt_irq_disable_all();
  80aa80:	e0bff815 	stw	r2,-32(fp)

    alt_irq[id].handler = isr;
  80aa84:	e0bff917 	ldw	r2,-28(fp)
  80aa88:	00c020b4 	movhi	r3,130
  80aa8c:	18ebf604 	addi	r3,r3,-20520
  80aa90:	100490fa 	slli	r2,r2,3
  80aa94:	10c7883a 	add	r3,r2,r3
  80aa98:	e0bffd17 	ldw	r2,-12(fp)
  80aa9c:	18800015 	stw	r2,0(r3)
    alt_irq[id].context = isr_context;
  80aaa0:	e0bff917 	ldw	r2,-28(fp)
  80aaa4:	00c020b4 	movhi	r3,130
  80aaa8:	18ebf604 	addi	r3,r3,-20520
  80aaac:	100490fa 	slli	r2,r2,3
  80aab0:	10c5883a 	add	r2,r2,r3
  80aab4:	10c00104 	addi	r3,r2,4
  80aab8:	e0bffe17 	ldw	r2,-8(fp)
  80aabc:	18800015 	stw	r2,0(r3)

    rc = (isr) ? alt_ic_irq_enable(ic_id, id) : alt_ic_irq_disable(ic_id, id);
  80aac0:	e0bffd17 	ldw	r2,-12(fp)
  80aac4:	1005003a 	cmpeq	r2,r2,zero
  80aac8:	1000051e 	bne	r2,zero,80aae0 <alt_iic_isr_register+0xb8>
  80aacc:	e17ff917 	ldw	r5,-28(fp)
  80aad0:	e13ffb17 	ldw	r4,-20(fp)
  80aad4:	080a8a40 	call	80a8a4 <alt_ic_irq_enable>
  80aad8:	e0bfff15 	stw	r2,-4(fp)
  80aadc:	00000406 	br	80aaf0 <alt_iic_isr_register+0xc8>
  80aae0:	e17ff917 	ldw	r5,-28(fp)
  80aae4:	e13ffb17 	ldw	r4,-20(fp)
  80aae8:	080a9400 	call	80a940 <alt_ic_irq_disable>
  80aaec:	e0bfff15 	stw	r2,-4(fp)
  80aaf0:	e0bfff17 	ldw	r2,-4(fp)
  80aaf4:	e0bffa15 	stw	r2,-24(fp)
  80aaf8:	e0bff817 	ldw	r2,-32(fp)
  80aafc:	e0bff615 	stw	r2,-40(fp)
  status &= ~NIOS2_STATUS_PIE_MSK;
  status |= (context & NIOS2_STATUS_PIE_MSK);
  
  NIOS2_WRITE_STATUS (status);
#else
  NIOS2_WRITE_STATUS (context);
  80ab00:	e0bff617 	ldw	r2,-40(fp)
  80ab04:	1001703a 	wrctl	status,r2

    alt_irq_enable_all(status);
  }

  return rc; 
  80ab08:	e0bffa17 	ldw	r2,-24(fp)
}
  80ab0c:	e037883a 	mov	sp,fp
  80ab10:	dfc00117 	ldw	ra,4(sp)
  80ab14:	df000017 	ldw	fp,0(sp)
  80ab18:	dec00204 	addi	sp,sp,8
  80ab1c:	f800283a 	ret

0080ab20 <alt_open_fd>:
 * If the device can not be succesfully opened, then the input file descriptor
 * remains unchanged.
 */

static void alt_open_fd(alt_fd* fd, const char* name, int flags, int mode)
{
  80ab20:	defff804 	addi	sp,sp,-32
  80ab24:	dfc00715 	stw	ra,28(sp)
  80ab28:	df000615 	stw	fp,24(sp)
  80ab2c:	dc000515 	stw	r16,20(sp)
  80ab30:	df000504 	addi	fp,sp,20
  80ab34:	e13ffc15 	stw	r4,-16(fp)
  80ab38:	e17ffd15 	stw	r5,-12(fp)
  80ab3c:	e1bffe15 	stw	r6,-8(fp)
  80ab40:	e1ffff15 	stw	r7,-4(fp)
  int old;

  old = open (name, flags, mode);
  80ab44:	e13ffd17 	ldw	r4,-12(fp)
  80ab48:	e17ffe17 	ldw	r5,-8(fp)
  80ab4c:	e1bfff17 	ldw	r6,-4(fp)
  80ab50:	080ad680 	call	80ad68 <open>
  80ab54:	e0bffb15 	stw	r2,-20(fp)

  if (old >= 0)
  80ab58:	e0bffb17 	ldw	r2,-20(fp)
  80ab5c:	1004803a 	cmplt	r2,r2,zero
  80ab60:	10001f1e 	bne	r2,zero,80abe0 <alt_open_fd+0xc0>
  {
    fd->dev      = alt_fd_list[old].dev;
  80ab64:	e13ffb17 	ldw	r4,-20(fp)
  80ab68:	04002074 	movhi	r16,129
  80ab6c:	843df004 	addi	r16,r16,-2112
  80ab70:	01400304 	movi	r5,12
  80ab74:	080dd080 	call	80dd08 <__mulsi3>
  80ab78:	1405883a 	add	r2,r2,r16
  80ab7c:	10c00017 	ldw	r3,0(r2)
  80ab80:	e0bffc17 	ldw	r2,-16(fp)
  80ab84:	10c00015 	stw	r3,0(r2)
    fd->priv     = alt_fd_list[old].priv;
  80ab88:	e13ffb17 	ldw	r4,-20(fp)
  80ab8c:	04002074 	movhi	r16,129
  80ab90:	843df004 	addi	r16,r16,-2112
  80ab94:	01400304 	movi	r5,12
  80ab98:	080dd080 	call	80dd08 <__mulsi3>
  80ab9c:	1405883a 	add	r2,r2,r16
  80aba0:	10800104 	addi	r2,r2,4
  80aba4:	10c00017 	ldw	r3,0(r2)
  80aba8:	e0bffc17 	ldw	r2,-16(fp)
  80abac:	10c00115 	stw	r3,4(r2)
    fd->fd_flags = alt_fd_list[old].fd_flags;
  80abb0:	e13ffb17 	ldw	r4,-20(fp)
  80abb4:	04002074 	movhi	r16,129
  80abb8:	843df004 	addi	r16,r16,-2112
  80abbc:	01400304 	movi	r5,12
  80abc0:	080dd080 	call	80dd08 <__mulsi3>
  80abc4:	1405883a 	add	r2,r2,r16
  80abc8:	10800204 	addi	r2,r2,8
  80abcc:	10c00017 	ldw	r3,0(r2)
  80abd0:	e0bffc17 	ldw	r2,-16(fp)
  80abd4:	10c00215 	stw	r3,8(r2)

    alt_release_fd (old);
  80abd8:	e13ffb17 	ldw	r4,-20(fp)
  80abdc:	080af540 	call	80af54 <alt_release_fd>
  }
} 
  80abe0:	e037883a 	mov	sp,fp
  80abe4:	dfc00217 	ldw	ra,8(sp)
  80abe8:	df000117 	ldw	fp,4(sp)
  80abec:	dc000017 	ldw	r16,0(sp)
  80abf0:	dec00304 	addi	sp,sp,12
  80abf4:	f800283a 	ret

0080abf8 <alt_io_redirect>:
 */
 
void alt_io_redirect(const char* stdout_dev, 
                     const char* stdin_dev, 
                     const char* stderr_dev)
{
  80abf8:	defffb04 	addi	sp,sp,-20
  80abfc:	dfc00415 	stw	ra,16(sp)
  80ac00:	df000315 	stw	fp,12(sp)
  80ac04:	df000304 	addi	fp,sp,12
  80ac08:	e13ffd15 	stw	r4,-12(fp)
  80ac0c:	e17ffe15 	stw	r5,-8(fp)
  80ac10:	e1bfff15 	stw	r6,-4(fp)
  /* Redirect the channels */

  alt_open_fd (&alt_fd_list[STDOUT_FILENO], stdout_dev, O_WRONLY, 0777);
  80ac14:	01002074 	movhi	r4,129
  80ac18:	213df304 	addi	r4,r4,-2100
  80ac1c:	e17ffd17 	ldw	r5,-12(fp)
  80ac20:	01800044 	movi	r6,1
  80ac24:	01c07fc4 	movi	r7,511
  80ac28:	080ab200 	call	80ab20 <alt_open_fd>
  alt_open_fd (&alt_fd_list[STDIN_FILENO], stdin_dev, O_RDONLY, 0777);
  80ac2c:	01002074 	movhi	r4,129
  80ac30:	213df004 	addi	r4,r4,-2112
  80ac34:	e17ffe17 	ldw	r5,-8(fp)
  80ac38:	000d883a 	mov	r6,zero
  80ac3c:	01c07fc4 	movi	r7,511
  80ac40:	080ab200 	call	80ab20 <alt_open_fd>
  alt_open_fd (&alt_fd_list[STDERR_FILENO], stderr_dev, O_WRONLY, 0777);
  80ac44:	01002074 	movhi	r4,129
  80ac48:	213df604 	addi	r4,r4,-2088
  80ac4c:	e17fff17 	ldw	r5,-4(fp)
  80ac50:	01800044 	movi	r6,1
  80ac54:	01c07fc4 	movi	r7,511
  80ac58:	080ab200 	call	80ab20 <alt_open_fd>
}  
  80ac5c:	e037883a 	mov	sp,fp
  80ac60:	dfc00117 	ldw	ra,4(sp)
  80ac64:	df000017 	ldw	fp,0(sp)
  80ac68:	dec00204 	addi	sp,sp,8
  80ac6c:	f800283a 	ret

0080ac70 <alt_file_locked>:
 * performed for devices. Filesystems are required to handle the ioctl() call
 * themselves, and report the error from the filesystems open() function. 
 */ 

static int alt_file_locked (alt_fd* fd)
{
  80ac70:	defffa04 	addi	sp,sp,-24
  80ac74:	dfc00515 	stw	ra,20(sp)
  80ac78:	df000415 	stw	fp,16(sp)
  80ac7c:	dc000315 	stw	r16,12(sp)
  80ac80:	df000304 	addi	fp,sp,12
  80ac84:	e13ffe15 	stw	r4,-8(fp)

  /*
   * Mark the file descriptor as belonging to a device.
   */

  fd->fd_flags |= ALT_FD_DEV;
  80ac88:	e0bffe17 	ldw	r2,-8(fp)
  80ac8c:	10800217 	ldw	r2,8(r2)
  80ac90:	10d00034 	orhi	r3,r2,16384
  80ac94:	e0bffe17 	ldw	r2,-8(fp)
  80ac98:	10c00215 	stw	r3,8(r2)
  /*
   * Loop through all current file descriptors searching for one that's locked
   * for exclusive access. If a match is found, generate an error.
   */

  for (i = 0; i <= alt_max_fd; i++)
  80ac9c:	e03ffd15 	stw	zero,-12(fp)
  80aca0:	00002306 	br	80ad30 <alt_file_locked+0xc0>
  {
    if ((alt_fd_list[i].dev == fd->dev) &&
  80aca4:	e13ffd17 	ldw	r4,-12(fp)
  80aca8:	04002074 	movhi	r16,129
  80acac:	843df004 	addi	r16,r16,-2112
  80acb0:	01400304 	movi	r5,12
  80acb4:	080dd080 	call	80dd08 <__mulsi3>
  80acb8:	1405883a 	add	r2,r2,r16
  80acbc:	10c00017 	ldw	r3,0(r2)
  80acc0:	e0bffe17 	ldw	r2,-8(fp)
  80acc4:	10800017 	ldw	r2,0(r2)
  80acc8:	1880161e 	bne	r3,r2,80ad24 <alt_file_locked+0xb4>
  80accc:	e13ffd17 	ldw	r4,-12(fp)
  80acd0:	04002074 	movhi	r16,129
  80acd4:	843df004 	addi	r16,r16,-2112
  80acd8:	01400304 	movi	r5,12
  80acdc:	080dd080 	call	80dd08 <__mulsi3>
  80ace0:	1405883a 	add	r2,r2,r16
  80ace4:	10800204 	addi	r2,r2,8
  80ace8:	10800017 	ldw	r2,0(r2)
  80acec:	1004403a 	cmpge	r2,r2,zero
  80acf0:	10000c1e 	bne	r2,zero,80ad24 <alt_file_locked+0xb4>
  80acf4:	e13ffd17 	ldw	r4,-12(fp)
  80acf8:	01400304 	movi	r5,12
  80acfc:	080dd080 	call	80dd08 <__mulsi3>
  80ad00:	1007883a 	mov	r3,r2
  80ad04:	00802074 	movhi	r2,129
  80ad08:	10bdf004 	addi	r2,r2,-2112
  80ad0c:	1887883a 	add	r3,r3,r2
  80ad10:	e0bffe17 	ldw	r2,-8(fp)
  80ad14:	18800326 	beq	r3,r2,80ad24 <alt_file_locked+0xb4>
        (alt_fd_list[i].fd_flags & ALT_FD_EXCL) &&
        (&alt_fd_list[i] != fd))
    {
      return -EACCES;
  80ad18:	00bffcc4 	movi	r2,-13
  80ad1c:	e0bfff15 	stw	r2,-4(fp)
  80ad20:	00000a06 	br	80ad4c <alt_file_locked+0xdc>
  /*
   * Loop through all current file descriptors searching for one that's locked
   * for exclusive access. If a match is found, generate an error.
   */

  for (i = 0; i <= alt_max_fd; i++)
  80ad24:	e0bffd17 	ldw	r2,-12(fp)
  80ad28:	10800044 	addi	r2,r2,1
  80ad2c:	e0bffd15 	stw	r2,-12(fp)
  80ad30:	00802074 	movhi	r2,129
  80ad34:	10807504 	addi	r2,r2,468
  80ad38:	10800017 	ldw	r2,0(r2)
  80ad3c:	1007883a 	mov	r3,r2
  80ad40:	e0bffd17 	ldw	r2,-12(fp)
  80ad44:	18bfd72e 	bgeu	r3,r2,80aca4 <alt_file_locked+0x34>
    }
  }
  
  /* The device is not locked */
 
  return 0;
  80ad48:	e03fff15 	stw	zero,-4(fp)
  80ad4c:	e0bfff17 	ldw	r2,-4(fp)
}
  80ad50:	e037883a 	mov	sp,fp
  80ad54:	dfc00217 	ldw	ra,8(sp)
  80ad58:	df000117 	ldw	fp,4(sp)
  80ad5c:	dc000017 	ldw	r16,0(sp)
  80ad60:	dec00304 	addi	sp,sp,12
  80ad64:	f800283a 	ret

0080ad68 <open>:
 *
 * ALT_OPEN is mapped onto the open() system call in alt_syscall.h
 */
 
int ALT_OPEN (const char* file, int flags, int mode)
{ 
  80ad68:	defff404 	addi	sp,sp,-48
  80ad6c:	dfc00b15 	stw	ra,44(sp)
  80ad70:	df000a15 	stw	fp,40(sp)
  80ad74:	df000a04 	addi	fp,sp,40
  80ad78:	e13ffb15 	stw	r4,-20(fp)
  80ad7c:	e17ffc15 	stw	r5,-16(fp)
  80ad80:	e1bffd15 	stw	r6,-12(fp)
  alt_dev* dev;
  alt_fd*  fd;
  int index  = -1;
  80ad84:	00bfffc4 	movi	r2,-1
  80ad88:	e0bff815 	stw	r2,-32(fp)
  int status = -ENODEV;
  80ad8c:	00bffb44 	movi	r2,-19
  80ad90:	e0bff715 	stw	r2,-36(fp)
  int isafs = 0;
  80ad94:	e03ff615 	stw	zero,-40(fp)
  /* 
   * Check the device list, to see if a device with a matching name is 
   * registered.
   */
  
  if (!(dev = alt_find_dev (file, &alt_dev_list)))
  80ad98:	e13ffb17 	ldw	r4,-20(fp)
  80ad9c:	01402074 	movhi	r5,129
  80ada0:	29407304 	addi	r5,r5,460
  80ada4:	080a7a40 	call	80a7a4 <alt_find_dev>
  80ada8:	e0bffa15 	stw	r2,-24(fp)
  80adac:	e0bffa17 	ldw	r2,-24(fp)
  80adb0:	1004c03a 	cmpne	r2,r2,zero
  80adb4:	1000051e 	bne	r2,zero,80adcc <open+0x64>
  {
    /* No matching device, so try the filesystem list */

    dev   = alt_find_file (file);
  80adb8:	e13ffb17 	ldw	r4,-20(fp)
  80adbc:	080b67c0 	call	80b67c <alt_find_file>
  80adc0:	e0bffa15 	stw	r2,-24(fp)
    isafs = 1;
  80adc4:	00800044 	movi	r2,1
  80adc8:	e0bff615 	stw	r2,-40(fp)

  /* 
   * If a matching device or filesystem is found, allocate a file descriptor. 
   */

  if (dev)
  80adcc:	e0bffa17 	ldw	r2,-24(fp)
  80add0:	1005003a 	cmpeq	r2,r2,zero
  80add4:	1000311e 	bne	r2,zero,80ae9c <open+0x134>
  {
    if ((index = alt_get_fd (dev)) < 0)
  80add8:	e13ffa17 	ldw	r4,-24(fp)
  80addc:	080b79c0 	call	80b79c <alt_get_fd>
  80ade0:	e0bff815 	stw	r2,-32(fp)
  80ade4:	e0bff817 	ldw	r2,-32(fp)
  80ade8:	1004403a 	cmpge	r2,r2,zero
  80adec:	1000031e 	bne	r2,zero,80adfc <open+0x94>
    {
      status = index;
  80adf0:	e0bff817 	ldw	r2,-32(fp)
  80adf4:	e0bff715 	stw	r2,-36(fp)
  80adf8:	00002a06 	br	80aea4 <open+0x13c>
    }
    else
    {
      fd = &alt_fd_list[index];
  80adfc:	e13ff817 	ldw	r4,-32(fp)
  80ae00:	01400304 	movi	r5,12
  80ae04:	080dd080 	call	80dd08 <__mulsi3>
  80ae08:	1007883a 	mov	r3,r2
  80ae0c:	00802074 	movhi	r2,129
  80ae10:	10bdf004 	addi	r2,r2,-2112
  80ae14:	1885883a 	add	r2,r3,r2
  80ae18:	e0bff915 	stw	r2,-28(fp)
      fd->fd_flags = (flags & ~ALT_FD_FLAGS_MASK);
  80ae1c:	e0fffc17 	ldw	r3,-16(fp)
  80ae20:	00900034 	movhi	r2,16384
  80ae24:	10bfffc4 	addi	r2,r2,-1
  80ae28:	1886703a 	and	r3,r3,r2
  80ae2c:	e0bff917 	ldw	r2,-28(fp)
  80ae30:	10c00215 	stw	r3,8(r2)
      
      /* If this is a device, ensure it isn't already locked */

      if (isafs || ((status = alt_file_locked (fd)) >= 0))
  80ae34:	e0bff617 	ldw	r2,-40(fp)
  80ae38:	1004c03a 	cmpne	r2,r2,zero
  80ae3c:	1000061e 	bne	r2,zero,80ae58 <open+0xf0>
  80ae40:	e13ff917 	ldw	r4,-28(fp)
  80ae44:	080ac700 	call	80ac70 <alt_file_locked>
  80ae48:	e0bff715 	stw	r2,-36(fp)
  80ae4c:	e0bff717 	ldw	r2,-36(fp)
  80ae50:	1004803a 	cmplt	r2,r2,zero
  80ae54:	1000131e 	bne	r2,zero,80aea4 <open+0x13c>
        /* 
         * If the device or filesystem provides an open() callback function,
         * call it now to perform any device/filesystem specific operations.
         */
    
        status = (dev->open) ? dev->open(fd, file, flags, mode): 0;
  80ae58:	e0bffa17 	ldw	r2,-24(fp)
  80ae5c:	10800317 	ldw	r2,12(r2)
  80ae60:	1005003a 	cmpeq	r2,r2,zero
  80ae64:	1000091e 	bne	r2,zero,80ae8c <open+0x124>
  80ae68:	e0bffa17 	ldw	r2,-24(fp)
  80ae6c:	10800317 	ldw	r2,12(r2)
  80ae70:	e13ff917 	ldw	r4,-28(fp)
  80ae74:	e17ffb17 	ldw	r5,-20(fp)
  80ae78:	e1bffc17 	ldw	r6,-16(fp)
  80ae7c:	e1fffd17 	ldw	r7,-12(fp)
  80ae80:	103ee83a 	callr	r2
  80ae84:	e0bfff15 	stw	r2,-4(fp)
  80ae88:	00000106 	br	80ae90 <open+0x128>
  80ae8c:	e03fff15 	stw	zero,-4(fp)
  80ae90:	e0bfff17 	ldw	r2,-4(fp)
  80ae94:	e0bff715 	stw	r2,-36(fp)
  80ae98:	00000206 	br	80aea4 <open+0x13c>
      }
    }
  }
  else
  {
    status = -ENODEV;
  80ae9c:	00bffb44 	movi	r2,-19
  80aea0:	e0bff715 	stw	r2,-36(fp)
  }

  /* Allocation failed, so clean up and return an error */ 

  if (status < 0)
  80aea4:	e0bff717 	ldw	r2,-36(fp)
  80aea8:	1004403a 	cmpge	r2,r2,zero
  80aeac:	1000091e 	bne	r2,zero,80aed4 <open+0x16c>
  {
    alt_release_fd (index);  
  80aeb0:	e13ff817 	ldw	r4,-32(fp)
  80aeb4:	080af540 	call	80af54 <alt_release_fd>
    ALT_ERRNO = -status;
  80aeb8:	080aef40 	call	80aef4 <alt_get_errno>
  80aebc:	e0fff717 	ldw	r3,-36(fp)
  80aec0:	00c7c83a 	sub	r3,zero,r3
  80aec4:	10c00015 	stw	r3,0(r2)
    return -1;
  80aec8:	00bfffc4 	movi	r2,-1
  80aecc:	e0bffe15 	stw	r2,-8(fp)
  80aed0:	00000206 	br	80aedc <open+0x174>
  }
  
  /* return the reference upon success */

  return index;
  80aed4:	e0bff817 	ldw	r2,-32(fp)
  80aed8:	e0bffe15 	stw	r2,-8(fp)
  80aedc:	e0bffe17 	ldw	r2,-8(fp)
}
  80aee0:	e037883a 	mov	sp,fp
  80aee4:	dfc00117 	ldw	ra,4(sp)
  80aee8:	df000017 	ldw	fp,0(sp)
  80aeec:	dec00204 	addi	sp,sp,8
  80aef0:	f800283a 	ret

0080aef4 <alt_get_errno>:
#undef errno

extern int errno;

static ALT_INLINE int* alt_get_errno(void)
{
  80aef4:	defffd04 	addi	sp,sp,-12
  80aef8:	dfc00215 	stw	ra,8(sp)
  80aefc:	df000115 	stw	fp,4(sp)
  80af00:	df000104 	addi	fp,sp,4
  return ((alt_errno) ? alt_errno() : &errno);
  80af04:	00802074 	movhi	r2,129
  80af08:	10807604 	addi	r2,r2,472
  80af0c:	10800017 	ldw	r2,0(r2)
  80af10:	1005003a 	cmpeq	r2,r2,zero
  80af14:	1000061e 	bne	r2,zero,80af30 <alt_get_errno+0x3c>
  80af18:	00802074 	movhi	r2,129
  80af1c:	10807604 	addi	r2,r2,472
  80af20:	10800017 	ldw	r2,0(r2)
  80af24:	103ee83a 	callr	r2
  80af28:	e0bfff15 	stw	r2,-4(fp)
  80af2c:	00000306 	br	80af3c <alt_get_errno+0x48>
  80af30:	00802074 	movhi	r2,129
  80af34:	10875f04 	addi	r2,r2,7548
  80af38:	e0bfff15 	stw	r2,-4(fp)
  80af3c:	e0bfff17 	ldw	r2,-4(fp)
}
  80af40:	e037883a 	mov	sp,fp
  80af44:	dfc00117 	ldw	ra,4(sp)
  80af48:	df000017 	ldw	fp,0(sp)
  80af4c:	dec00204 	addi	sp,sp,8
  80af50:	f800283a 	ret

0080af54 <alt_release_fd>:
 * File descriptors correcponding to standard in, standard out and standard 
 * error cannont be released backed to the pool. They are always reserved.
 */

void alt_release_fd (int fd)
{
  80af54:	defffc04 	addi	sp,sp,-16
  80af58:	dfc00315 	stw	ra,12(sp)
  80af5c:	df000215 	stw	fp,8(sp)
  80af60:	dc000115 	stw	r16,4(sp)
  80af64:	df000104 	addi	fp,sp,4
  80af68:	e13fff15 	stw	r4,-4(fp)
  if (fd > 2)
  80af6c:	e0bfff17 	ldw	r2,-4(fp)
  80af70:	108000d0 	cmplti	r2,r2,3
  80af74:	10000f1e 	bne	r2,zero,80afb4 <alt_release_fd+0x60>
  {
    alt_fd_list[fd].fd_flags = 0;
  80af78:	e13fff17 	ldw	r4,-4(fp)
  80af7c:	04002074 	movhi	r16,129
  80af80:	843df004 	addi	r16,r16,-2112
  80af84:	01400304 	movi	r5,12
  80af88:	080dd080 	call	80dd08 <__mulsi3>
  80af8c:	1405883a 	add	r2,r2,r16
  80af90:	10800204 	addi	r2,r2,8
  80af94:	10000015 	stw	zero,0(r2)
    alt_fd_list[fd].dev      = 0;
  80af98:	e13fff17 	ldw	r4,-4(fp)
  80af9c:	04002074 	movhi	r16,129
  80afa0:	843df004 	addi	r16,r16,-2112
  80afa4:	01400304 	movi	r5,12
  80afa8:	080dd080 	call	80dd08 <__mulsi3>
  80afac:	1405883a 	add	r2,r2,r16
  80afb0:	10000015 	stw	zero,0(r2)
  }
}
  80afb4:	e037883a 	mov	sp,fp
  80afb8:	dfc00217 	ldw	ra,8(sp)
  80afbc:	df000117 	ldw	fp,4(sp)
  80afc0:	dc000017 	ldw	r16,0(sp)
  80afc4:	dec00304 	addi	sp,sp,12
  80afc8:	f800283a 	ret

0080afcc <alt_alarm_stop>:
 * alarms. Alternatively an alarm can unregister itself by returning zero when 
 * the alarm executes.
 */

void alt_alarm_stop (alt_alarm* alarm)
{
  80afcc:	defffa04 	addi	sp,sp,-24
  80afd0:	df000515 	stw	fp,20(sp)
  80afd4:	df000504 	addi	fp,sp,20
  80afd8:	e13fff15 	stw	r4,-4(fp)
static ALT_INLINE alt_irq_context ALT_ALWAYS_INLINE 
       alt_irq_disable_all (void)
{
  alt_irq_context context;

  NIOS2_READ_STATUS (context);
  80afdc:	0005303a 	rdctl	r2,status
  80afe0:	e0bffd15 	stw	r2,-12(fp)

  NIOS2_WRITE_STATUS (context & ~NIOS2_STATUS_PIE_MSK);
  80afe4:	e0fffd17 	ldw	r3,-12(fp)
  80afe8:	00bfff84 	movi	r2,-2
  80afec:	1884703a 	and	r2,r3,r2
  80aff0:	1001703a 	wrctl	status,r2
  
  return context;
  80aff4:	e0bffd17 	ldw	r2,-12(fp)
  alt_irq_context irq_context;

  irq_context = alt_irq_disable_all();
  80aff8:	e0bffe15 	stw	r2,-8(fp)
  alt_llist_remove (&alarm->llist);
  80affc:	e0bfff17 	ldw	r2,-4(fp)
  80b000:	e0bffc15 	stw	r2,-16(fp)
 * input argument is the element to remove.
 */
     
static ALT_INLINE void ALT_ALWAYS_INLINE alt_llist_remove(alt_llist* entry)
{
  entry->next->previous = entry->previous;
  80b004:	e0bffc17 	ldw	r2,-16(fp)
  80b008:	10c00017 	ldw	r3,0(r2)
  80b00c:	e0bffc17 	ldw	r2,-16(fp)
  80b010:	10800117 	ldw	r2,4(r2)
  80b014:	18800115 	stw	r2,4(r3)
  entry->previous->next = entry->next;
  80b018:	e0bffc17 	ldw	r2,-16(fp)
  80b01c:	10c00117 	ldw	r3,4(r2)
  80b020:	e0bffc17 	ldw	r2,-16(fp)
  80b024:	10800017 	ldw	r2,0(r2)
  80b028:	18800015 	stw	r2,0(r3)
  /* 
   * Set the entry to point to itself, so that any further calls to
   * alt_llist_remove() are harmless.
   */

  entry->previous = entry;
  80b02c:	e0fffc17 	ldw	r3,-16(fp)
  80b030:	e0bffc17 	ldw	r2,-16(fp)
  80b034:	18800115 	stw	r2,4(r3)
  entry->next     = entry;
  80b038:	e0fffc17 	ldw	r3,-16(fp)
  80b03c:	e0bffc17 	ldw	r2,-16(fp)
  80b040:	18800015 	stw	r2,0(r3)
  80b044:	e0bffe17 	ldw	r2,-8(fp)
  80b048:	e0bffb15 	stw	r2,-20(fp)
  status &= ~NIOS2_STATUS_PIE_MSK;
  status |= (context & NIOS2_STATUS_PIE_MSK);
  
  NIOS2_WRITE_STATUS (status);
#else
  NIOS2_WRITE_STATUS (context);
  80b04c:	e0bffb17 	ldw	r2,-20(fp)
  80b050:	1001703a 	wrctl	status,r2
  alt_irq_enable_all (irq_context);
}
  80b054:	e037883a 	mov	sp,fp
  80b058:	df000017 	ldw	fp,0(sp)
  80b05c:	dec00104 	addi	sp,sp,4
  80b060:	f800283a 	ret

0080b064 <alt_tick>:
 * 
 * alt_tick() is expected to run at interrupt level.
 */

void alt_tick (void)
{
  80b064:	defffb04 	addi	sp,sp,-20
  80b068:	dfc00415 	stw	ra,16(sp)
  80b06c:	df000315 	stw	fp,12(sp)
  80b070:	df000304 	addi	fp,sp,12
  alt_alarm* next;
  alt_alarm* alarm = (alt_alarm*) alt_alarm_list.next;
  80b074:	d0a02617 	ldw	r2,-32616(gp)
  80b078:	e0bffe15 	stw	r2,-8(fp)

  alt_u32    next_callback;

  /* update the tick counter */

  _alt_nticks++;
  80b07c:	d0a70c17 	ldw	r2,-25552(gp)
  80b080:	10800044 	addi	r2,r2,1
  80b084:	d0a70c15 	stw	r2,-25552(gp)

  /* process the registered callbacks */

  while (alarm != (alt_alarm*) &alt_alarm_list)
  80b088:	00003106 	br	80b150 <alt_tick+0xec>
  {
    next = (alt_alarm*) alarm->llist.next;
  80b08c:	e0bffe17 	ldw	r2,-8(fp)
  80b090:	10800017 	ldw	r2,0(r2)
  80b094:	e0bfff15 	stw	r2,-4(fp)
    /* 
     * Upon the tick-counter rolling over it is safe to clear the 
     * roll-over flag; once the flag is cleared this (or subsequnt)
     * tick events are enabled to generate an alarm event. 
     */
    if ((alarm->rollover) && (_alt_nticks == 0))
  80b098:	e0bffe17 	ldw	r2,-8(fp)
  80b09c:	10800403 	ldbu	r2,16(r2)
  80b0a0:	10803fcc 	andi	r2,r2,255
  80b0a4:	1005003a 	cmpeq	r2,r2,zero
  80b0a8:	1000051e 	bne	r2,zero,80b0c0 <alt_tick+0x5c>
  80b0ac:	d0a70c17 	ldw	r2,-25552(gp)
  80b0b0:	1004c03a 	cmpne	r2,r2,zero
  80b0b4:	1000021e 	bne	r2,zero,80b0c0 <alt_tick+0x5c>
    {
      alarm->rollover = 0;
  80b0b8:	e0bffe17 	ldw	r2,-8(fp)
  80b0bc:	10000405 	stb	zero,16(r2)
    }
    
    /* if the alarm period has expired, make the callback */    
    if ((alarm->time <= _alt_nticks) && (alarm->rollover == 0))
  80b0c0:	e0bffe17 	ldw	r2,-8(fp)
  80b0c4:	10c00217 	ldw	r3,8(r2)
  80b0c8:	d0a70c17 	ldw	r2,-25552(gp)
  80b0cc:	10c01e36 	bltu	r2,r3,80b148 <alt_tick+0xe4>
  80b0d0:	e0bffe17 	ldw	r2,-8(fp)
  80b0d4:	10800403 	ldbu	r2,16(r2)
  80b0d8:	10803fcc 	andi	r2,r2,255
  80b0dc:	1004c03a 	cmpne	r2,r2,zero
  80b0e0:	1000191e 	bne	r2,zero,80b148 <alt_tick+0xe4>
    {
      next_callback = alarm->callback (alarm->context);
  80b0e4:	e0bffe17 	ldw	r2,-8(fp)
  80b0e8:	10c00317 	ldw	r3,12(r2)
  80b0ec:	e0bffe17 	ldw	r2,-8(fp)
  80b0f0:	11000517 	ldw	r4,20(r2)
  80b0f4:	183ee83a 	callr	r3
  80b0f8:	e0bffd15 	stw	r2,-12(fp)

      /* deactivate the alarm if the return value is zero */

      if (next_callback == 0)
  80b0fc:	e0bffd17 	ldw	r2,-12(fp)
  80b100:	1004c03a 	cmpne	r2,r2,zero
  80b104:	1000031e 	bne	r2,zero,80b114 <alt_tick+0xb0>
      {
        alt_alarm_stop (alarm);
  80b108:	e13ffe17 	ldw	r4,-8(fp)
  80b10c:	080afcc0 	call	80afcc <alt_alarm_stop>
  80b110:	00000d06 	br	80b148 <alt_tick+0xe4>
      }
      else
      {
        alarm->time += next_callback;
  80b114:	e0bffe17 	ldw	r2,-8(fp)
  80b118:	10c00217 	ldw	r3,8(r2)
  80b11c:	e0bffd17 	ldw	r2,-12(fp)
  80b120:	1887883a 	add	r3,r3,r2
  80b124:	e0bffe17 	ldw	r2,-8(fp)
  80b128:	10c00215 	stw	r3,8(r2)
        /* 
         * If the desired alarm time causes a roll-over, set the rollover
         * flag. This will prevent the subsequent tick event from causing
         * an alarm too early.
         */
        if(alarm->time < _alt_nticks)
  80b12c:	e0bffe17 	ldw	r2,-8(fp)
  80b130:	10c00217 	ldw	r3,8(r2)
  80b134:	d0a70c17 	ldw	r2,-25552(gp)
  80b138:	1880032e 	bgeu	r3,r2,80b148 <alt_tick+0xe4>
        {
          alarm->rollover = 1;
  80b13c:	e0fffe17 	ldw	r3,-8(fp)
  80b140:	00800044 	movi	r2,1
  80b144:	18800405 	stb	r2,16(r3)
        }
      }
    }
    alarm = next;
  80b148:	e0bfff17 	ldw	r2,-4(fp)
  80b14c:	e0bffe15 	stw	r2,-8(fp)

  _alt_nticks++;

  /* process the registered callbacks */

  while (alarm != (alt_alarm*) &alt_alarm_list)
  80b150:	d0e02604 	addi	r3,gp,-32616
  80b154:	e0bffe17 	ldw	r2,-8(fp)
  80b158:	10ffcc1e 	bne	r2,r3,80b08c <alt_tick+0x28>

  /* 
   * Update the operating system specific timer facilities.
   */

  ALT_OS_TIME_TICK();
  80b15c:	08018f80 	call	8018f8 <OSTimeTick>
}
  80b160:	e037883a 	mov	sp,fp
  80b164:	dfc00117 	ldw	ra,4(sp)
  80b168:	df000017 	ldw	fp,0(sp)
  80b16c:	dec00204 	addi	sp,sp,8
  80b170:	f800283a 	ret

0080b174 <altera_nios2_qsys_irq_init>:
/*
 * To initialize the internal interrupt controller, just clear the IENABLE
 * register so that all possible IRQs are disabled.
 */
void altera_nios2_qsys_irq_init(void) 
{
  80b174:	deffff04 	addi	sp,sp,-4
  80b178:	df000015 	stw	fp,0(sp)
  80b17c:	d839883a 	mov	fp,sp
    NIOS2_WRITE_IENABLE(0);
  80b180:	000170fa 	wrctl	ienable,zero
}
  80b184:	e037883a 	mov	sp,fp
  80b188:	df000017 	ldw	fp,0(sp)
  80b18c:	dec00104 	addi	sp,sp,4
  80b190:	f800283a 	ret

0080b194 <OSCtxSw>:

      /* 
       * Save the remaining registers to the stack. 
       */

      addi sp, sp, -44
  80b194:	defff504 	addi	sp,sp,-44
      bltu  sp, et, .Lstack_overflow

#endif

#if OS_THREAD_SAFE_NEWLIB
      ldw r3, %gprel(_impure_ptr)(gp)   /* load the pointer */
  80b198:	d0e02817 	ldw	r3,-32608(gp)
#endif /* OS_THREAD_SAFE_NEWLIB */

      ldw r4, %gprel(OSTCBCur)(gp)
  80b19c:	d1270417 	ldw	r4,-25584(gp)

      stw ra,  0(sp)
  80b1a0:	dfc00015 	stw	ra,0(sp)
      stw fp,  4(sp)
  80b1a4:	df000115 	stw	fp,4(sp)
      stw r23, 8(sp)
  80b1a8:	ddc00215 	stw	r23,8(sp)
      stw r22, 12(sp)
  80b1ac:	dd800315 	stw	r22,12(sp)
      stw r21, 16(sp)
  80b1b0:	dd400415 	stw	r21,16(sp)
      stw r20, 20(sp)
  80b1b4:	dd000515 	stw	r20,20(sp)
      stw r19, 24(sp)
  80b1b8:	dcc00615 	stw	r19,24(sp)
      stw r18, 28(sp)
  80b1bc:	dc800715 	stw	r18,28(sp)
      stw r17, 32(sp)
  80b1c0:	dc400815 	stw	r17,32(sp)
      stw r16, 36(sp)
  80b1c4:	dc000915 	stw	r16,36(sp)
       * store the current value of _impure_ptr so it can be restored
       * later; _impure_ptr is asigned on a per task basis. It is used
       * by Newlib to achieve reentrancy.	
       */

      stw r3, 40(sp)                  /* save the impure pointer */
  80b1c8:	d8c00a15 	stw	r3,40(sp)
      /* 
       * Save the current tasks stack pointer into the current tasks OS_TCB.
       * i.e. OSTCBCur->OSTCBStkPtr = sp;
       */

      stw sp, (r4)                  /* save the stack pointer (OSTCBStkPtr */
  80b1cc:	26c00015 	stw	sp,0(r4)

      /*
       * Call the user definable OSTaskSWHook()
       */

      call OSTaskSwHook
  80b1d0:	080b5b40 	call	80b5b4 <OSTaskSwHook>
      /*
       * OSTCBCur = OSTCBHighRdy; 
       * OSPrioCur = OSPrioHighRdy; 
       */

      ldw r4, %gprel(OSTCBHighRdy)(gp)
  80b1d4:	d126ff17 	ldw	r4,-25604(gp)
      ldb r5, %gprel(OSPrioHighRdy)(gp)
  80b1d8:	d166f707 	ldb	r5,-25636(gp)

      stw r4, %gprel(OSTCBCur)(gp)     /* set the current task to be the new task */
  80b1dc:	d1270415 	stw	r4,-25584(gp)
      stb r5, %gprel(OSPrioCur)(gp)    /* store the new task's priority as the current */
  80b1e0:	d166f745 	stb	r5,-25635(gp)

      /*
       * Set the stack pointer to point to the new task's stack
       */

      ldw sp, (r4) /* the stack pointer is the first entry in the OS_TCB structure */
  80b1e4:	26c00017 	ldw	sp,0(r4)
      /*
       * restore the value of _impure_ptr ; _impure_ptr is asigned on a 
       * per task basis. It is used by Newlib to achieve reentrancy.	
       */

      ldw r3, 40(sp)                  /* load the new impure pointer */
  80b1e8:	d8c00a17 	ldw	r3,40(sp)

      /*
       * Restore the saved registers for the new task.
       */

      ldw ra,  0(sp)
  80b1ec:	dfc00017 	ldw	ra,0(sp)
      ldw fp,  4(sp)
  80b1f0:	df000117 	ldw	fp,4(sp)
      ldw r23, 8(sp)
  80b1f4:	ddc00217 	ldw	r23,8(sp)
      ldw r22, 12(sp)
  80b1f8:	dd800317 	ldw	r22,12(sp)
      ldw r21, 16(sp)
  80b1fc:	dd400417 	ldw	r21,16(sp)
      ldw r20, 20(sp)
  80b200:	dd000517 	ldw	r20,20(sp)
      ldw r19, 24(sp)
  80b204:	dcc00617 	ldw	r19,24(sp)
      ldw r18, 28(sp)
  80b208:	dc800717 	ldw	r18,28(sp)
      ldw r17, 32(sp)
  80b20c:	dc400817 	ldw	r17,32(sp)
      ldw r16, 36(sp)
  80b210:	dc000917 	ldw	r16,36(sp)

#if OS_THREAD_SAFE_NEWLIB

      stw r3, %gprel(_impure_ptr)(gp) /* update _impure_ptr */
  80b214:	d0e02815 	stw	r3,-32608(gp)

      stw et, %gprel(alt_stack_limit_value)(gp)

#endif

      addi sp, sp, 44
  80b218:	dec00b04 	addi	sp,sp,44

      /*
       * resume execution of the new task.
       */

      ret
  80b21c:	f800283a 	ret

0080b220 <OSStartHighRdy>:

      /*
       * disable interrupts so that the scheduler doesn't run while
       * we're initialising this task.
       */  
      rdctl r18, status
  80b220:	0025303a 	rdctl	r18,status
      subi  r17, zero, 2   /* r17 = 0xfffffffe */
  80b224:	047fff84 	movi	r17,-2
      and   r18, r18, r17
  80b228:	9464703a 	and	r18,r18,r17
      wrctl status, r18
  80b22c:	9001703a 	wrctl	status,r18

      /*
       * Call the user definable OSTaskSWHook()
       */

      call OSTaskSwHook
  80b230:	080b5b40 	call	80b5b4 <OSTaskSwHook>

      /* 
       * set OSRunning = TRUE.
       */

      movi r18, 1                    /* set r18 to the value 'TRUE' */
  80b234:	04800044 	movi	r18,1
      stb r18, %gprel(OSRunning)(gp) /* save this to OSRunning */
  80b238:	d4a6f545 	stb	r18,-25643(gp)

      /*
       * start execution of the new task.
       */

      br 9b
  80b23c:	003fe506 	br	80b1d4 <OSCtxSw+0x40>

0080b240 <OSStartTsk>:

OSStartTsk:
      /* This instruction is never executed.  Its here to make the
       * backtrace work right 
       */
      movi sp, 0
  80b240:	06c00004 	movi	sp,0

      /* Enable interrupts */
      rdctl r2, status
  80b244:	0005303a 	rdctl	r2,status
      ori   r2, r2, 0x1
  80b248:	10800054 	ori	r2,r2,1
      wrctl status, r2
  80b24c:	1001703a 	wrctl	status,r2

      ldw r2, 4(sp)
  80b250:	d8800117 	ldw	r2,4(sp)
      ldw r4, 0(sp)
  80b254:	d9000017 	ldw	r4,0(sp)

      addi sp, sp, 8
  80b258:	dec00204 	addi	sp,sp,8

      callr r2
  80b25c:	103ee83a 	callr	r2

      nop
  80b260:	0001883a 	nop

0080b264 <OSTaskStkInit>:
 *              been placed on the stack in the proper order.
 *
 ***********************************************************************************************/

OS_STK *OSTaskStkInit(void (*task)(void *pd), void *pdata, OS_STK *pstk, INT16U opt)
{
  80b264:	defff704 	addi	sp,sp,-36
  80b268:	dfc00815 	stw	ra,32(sp)
  80b26c:	df000715 	stw	fp,28(sp)
  80b270:	df000704 	addi	fp,sp,28
  80b274:	e13ffc15 	stw	r4,-16(fp)
  80b278:	e17ffd15 	stw	r5,-12(fp)
  80b27c:	e1bffe15 	stw	r6,-8(fp)
  80b280:	e1ffff0d 	sth	r7,-4(fp)
    * create and initialise the impure pointer used for Newlib thread local storage.
    * This is only done if the C library is being used in a thread safe mode. Otherwise
    * a single reent structure is used for all threads, which saves memory.
    */

   local_impure_ptr = (struct _reent*)((((INT32U)(pstk)) & ~0x3) - sizeof(struct _reent));
  80b284:	e0bffe17 	ldw	r2,-8(fp)
  80b288:	1007883a 	mov	r3,r2
  80b28c:	00bfff04 	movi	r2,-4
  80b290:	1884703a 	and	r2,r3,r2
  80b294:	10bf0004 	addi	r2,r2,-1024
  80b298:	e0bff915 	stw	r2,-28(fp)

   _REENT_INIT_PTR (local_impure_ptr);
  80b29c:	e0bff917 	ldw	r2,-28(fp)
  80b2a0:	10000015 	stw	zero,0(r2)
  80b2a4:	e0bff917 	ldw	r2,-28(fp)
  80b2a8:	10c0bb04 	addi	r3,r2,748
  80b2ac:	e0bff917 	ldw	r2,-28(fp)
  80b2b0:	10c00115 	stw	r3,4(r2)
  80b2b4:	e0bff917 	ldw	r2,-28(fp)
  80b2b8:	1080bb04 	addi	r2,r2,748
  80b2bc:	10c01704 	addi	r3,r2,92
  80b2c0:	e0bff917 	ldw	r2,-28(fp)
  80b2c4:	10c00215 	stw	r3,8(r2)
  80b2c8:	e0bff917 	ldw	r2,-28(fp)
  80b2cc:	1080bb04 	addi	r2,r2,748
  80b2d0:	10c02e04 	addi	r3,r2,184
  80b2d4:	e0bff917 	ldw	r2,-28(fp)
  80b2d8:	10c00315 	stw	r3,12(r2)
  80b2dc:	e0bff917 	ldw	r2,-28(fp)
  80b2e0:	10000415 	stw	zero,16(r2)
  80b2e4:	e0bff917 	ldw	r2,-28(fp)
  80b2e8:	10800504 	addi	r2,r2,20
  80b2ec:	1009883a 	mov	r4,r2
  80b2f0:	01800644 	movi	r6,25
  80b2f4:	000b883a 	mov	r5,zero
  80b2f8:	080ba000 	call	80ba00 <memset>
  80b2fc:	e0bff917 	ldw	r2,-28(fp)
  80b300:	10000c15 	stw	zero,48(r2)
  80b304:	e0fff917 	ldw	r3,-28(fp)
  80b308:	00802074 	movhi	r2,129
  80b30c:	10b9be04 	addi	r2,r2,-6408
  80b310:	18800d15 	stw	r2,52(r3)
  80b314:	e0bff917 	ldw	r2,-28(fp)
  80b318:	10000e15 	stw	zero,56(r2)
  80b31c:	e0bff917 	ldw	r2,-28(fp)
  80b320:	10000f15 	stw	zero,60(r2)
  80b324:	e0bff917 	ldw	r2,-28(fp)
  80b328:	10001015 	stw	zero,64(r2)
  80b32c:	e0bff917 	ldw	r2,-28(fp)
  80b330:	10001115 	stw	zero,68(r2)
  80b334:	e0bff917 	ldw	r2,-28(fp)
  80b338:	10001215 	stw	zero,72(r2)
  80b33c:	e0bff917 	ldw	r2,-28(fp)
  80b340:	10001315 	stw	zero,76(r2)
  80b344:	e0bff917 	ldw	r2,-28(fp)
  80b348:	10001415 	stw	zero,80(r2)
  80b34c:	e0bff917 	ldw	r2,-28(fp)
  80b350:	10001515 	stw	zero,84(r2)
  80b354:	e0bff917 	ldw	r2,-28(fp)
  80b358:	10001615 	stw	zero,88(r2)
  80b35c:	e0bff917 	ldw	r2,-28(fp)
  80b360:	10001715 	stw	zero,92(r2)
  80b364:	e0bff917 	ldw	r2,-28(fp)
  80b368:	10001805 	stb	zero,96(r2)
  80b36c:	e0bff917 	ldw	r2,-28(fp)
  80b370:	10801f04 	addi	r2,r2,124
  80b374:	10000015 	stw	zero,0(r2)
  80b378:	10000115 	stw	zero,4(r2)
  80b37c:	10000215 	stw	zero,8(r2)
  80b380:	10000315 	stw	zero,12(r2)
  80b384:	10000415 	stw	zero,16(r2)
  80b388:	10000515 	stw	zero,20(r2)
  80b38c:	10000615 	stw	zero,24(r2)
  80b390:	10000715 	stw	zero,28(r2)
  80b394:	10000815 	stw	zero,32(r2)
  80b398:	e0bff917 	ldw	r2,-28(fp)
  80b39c:	10002815 	stw	zero,160(r2)
  80b3a0:	e0fff917 	ldw	r3,-28(fp)
  80b3a4:	00800044 	movi	r2,1
  80b3a8:	18802915 	stw	r2,164(r3)
  80b3ac:	18002a15 	stw	zero,168(r3)
  80b3b0:	e0fff917 	ldw	r3,-28(fp)
  80b3b4:	008cc384 	movi	r2,13070
  80b3b8:	18802b0d 	sth	r2,172(r3)
  80b3bc:	e0fff917 	ldw	r3,-28(fp)
  80b3c0:	00aaf344 	movi	r2,-21555
  80b3c4:	18802b8d 	sth	r2,174(r3)
  80b3c8:	e0fff917 	ldw	r3,-28(fp)
  80b3cc:	00848d04 	movi	r2,4660
  80b3d0:	18802c0d 	sth	r2,176(r3)
  80b3d4:	e0fff917 	ldw	r3,-28(fp)
  80b3d8:	00b99b44 	movi	r2,-6547
  80b3dc:	18802c8d 	sth	r2,178(r3)
  80b3e0:	e0fff917 	ldw	r3,-28(fp)
  80b3e4:	00b7bb04 	movi	r2,-8468
  80b3e8:	18802d0d 	sth	r2,180(r3)
  80b3ec:	e0fff917 	ldw	r3,-28(fp)
  80b3f0:	00800144 	movi	r2,5
  80b3f4:	18802d8d 	sth	r2,182(r3)
  80b3f8:	e0fff917 	ldw	r3,-28(fp)
  80b3fc:	008002c4 	movi	r2,11
  80b400:	18802e0d 	sth	r2,184(r3)
  80b404:	e0bff917 	ldw	r2,-28(fp)
  80b408:	10002f15 	stw	zero,188(r2)
  80b40c:	e0bff917 	ldw	r2,-28(fp)
  80b410:	10003015 	stw	zero,192(r2)
  80b414:	e0bff917 	ldw	r2,-28(fp)
  80b418:	10003115 	stw	zero,196(r2)
  80b41c:	e0bff917 	ldw	r2,-28(fp)
  80b420:	10003215 	stw	zero,200(r2)
  80b424:	e0bff917 	ldw	r2,-28(fp)
  80b428:	10003315 	stw	zero,204(r2)
  80b42c:	e0bff917 	ldw	r2,-28(fp)
  80b430:	10003415 	stw	zero,208(r2)
  80b434:	e0bff917 	ldw	r2,-28(fp)
  80b438:	10003e15 	stw	zero,248(r2)
  80b43c:	e0bff917 	ldw	r2,-28(fp)
  80b440:	10003f15 	stw	zero,252(r2)
  80b444:	e0bff917 	ldw	r2,-28(fp)
  80b448:	10004015 	stw	zero,256(r2)
  80b44c:	e0bff917 	ldw	r2,-28(fp)
  80b450:	10004115 	stw	zero,260(r2)
  80b454:	e0bff917 	ldw	r2,-28(fp)
  80b458:	10004215 	stw	zero,264(r2)
  80b45c:	e0bff917 	ldw	r2,-28(fp)
  80b460:	10004315 	stw	zero,268(r2)
  80b464:	e0bff917 	ldw	r2,-28(fp)
  80b468:	10004415 	stw	zero,272(r2)
  80b46c:	e0bff917 	ldw	r2,-28(fp)
  80b470:	10004515 	stw	zero,276(r2)
  80b474:	e0bff917 	ldw	r2,-28(fp)
  80b478:	10004615 	stw	zero,280(r2)
  80b47c:	e0bff917 	ldw	r2,-28(fp)
  80b480:	10004715 	stw	zero,284(r2)
  80b484:	e0bff917 	ldw	r2,-28(fp)
  80b488:	10003505 	stb	zero,212(r2)
  80b48c:	e0bff917 	ldw	r2,-28(fp)
  80b490:	10003705 	stb	zero,220(r2)
  80b494:	e0bff917 	ldw	r2,-28(fp)
  80b498:	10003d15 	stw	zero,244(r2)
  80b49c:	e0bff917 	ldw	r2,-28(fp)
  80b4a0:	10005215 	stw	zero,328(r2)
  80b4a4:	e0bff917 	ldw	r2,-28(fp)
  80b4a8:	10005315 	stw	zero,332(r2)
  80b4ac:	e0bff917 	ldw	r2,-28(fp)
  80b4b0:	10005415 	stw	zero,336(r2)
  80b4b4:	e0bff917 	ldw	r2,-28(fp)
  80b4b8:	10005515 	stw	zero,340(r2)
  80b4bc:	e0bff917 	ldw	r2,-28(fp)
  80b4c0:	1000b515 	stw	zero,724(r2)
  80b4c4:	e0bff917 	ldw	r2,-28(fp)
  80b4c8:	10007515 	stw	zero,468(r2)
  80b4cc:	e0bff917 	ldw	r2,-28(fp)
  80b4d0:	1000b715 	stw	zero,732(r2)
  80b4d4:	e0bff917 	ldw	r2,-28(fp)
  80b4d8:	1000b815 	stw	zero,736(r2)
  80b4dc:	e0bff917 	ldw	r2,-28(fp)
  80b4e0:	1000b915 	stw	zero,740(r2)
  80b4e4:	e0bff917 	ldw	r2,-28(fp)
  80b4e8:	1000ba15 	stw	zero,744(r2)
  80b4ec:	e0bff917 	ldw	r2,-28(fp)
  80b4f0:	1080bb04 	addi	r2,r2,748
  80b4f4:	1009883a 	mov	r4,r2
  80b4f8:	01804504 	movi	r6,276
  80b4fc:	000b883a 	mov	r5,zero
  80b500:	080ba000 	call	80ba00 <memset>
   /* 
    * create a stack frame at the top of the stack (leaving space for the 
    * reentrant data structure).
    */

   frame_pointer = (INT32U*) local_impure_ptr;
  80b504:	e0bff917 	ldw	r2,-28(fp)
  80b508:	e0bffb15 	stw	r2,-20(fp)
#else
   frame_pointer =   (INT32U*) (((INT32U)(pstk)) & ~0x3);
#endif /* OS_THREAD_SAFE_NEWLIB */
   stk = frame_pointer - 13;
  80b50c:	e0bffb17 	ldw	r2,-20(fp)
  80b510:	10bff304 	addi	r2,r2,-52
  80b514:	e0bffa15 	stw	r2,-24(fp)

   /* Now fill the stack frame. */

   stk[12] = (INT32U)task;            /* task address (ra) */
  80b518:	e0bffa17 	ldw	r2,-24(fp)
  80b51c:	10c00c04 	addi	r3,r2,48
  80b520:	e0bffc17 	ldw	r2,-16(fp)
  80b524:	18800015 	stw	r2,0(r3)
   stk[11] = (INT32U) pdata;          /* first register argument (r4) */
  80b528:	e0bffa17 	ldw	r2,-24(fp)
  80b52c:	10c00b04 	addi	r3,r2,44
  80b530:	e0bffd17 	ldw	r2,-12(fp)
  80b534:	18800015 	stw	r2,0(r3)

#if OS_THREAD_SAFE_NEWLIB
   stk[10] = (INT32U) local_impure_ptr; /* value of _impure_ptr for this thread */
  80b538:	e0bffa17 	ldw	r2,-24(fp)
  80b53c:	10c00a04 	addi	r3,r2,40
  80b540:	e0bff917 	ldw	r2,-28(fp)
  80b544:	18800015 	stw	r2,0(r3)
#endif /* OS_THREAD_SAFE_NEWLIB */
   stk[0]  = ((INT32U)&OSStartTsk) + 4;/* exception return address (ea) */  
  80b548:	00802074 	movhi	r2,129
  80b54c:	10ac9004 	addi	r2,r2,-19904
  80b550:	10c00104 	addi	r3,r2,4
  80b554:	e0bffa17 	ldw	r2,-24(fp)
  80b558:	10c00015 	stw	r3,0(r2)
    */
   __asm__ (".set OSTCBNext_OFFSET,%0" :: "i" (offsetof(OS_TCB, OSTCBNext)));
   __asm__ (".set OSTCBPrio_OFFSET,%0" :: "i" (offsetof(OS_TCB, OSTCBPrio)));
   __asm__ (".set OSTCBStkPtr_OFFSET,%0" :: "i" (offsetof(OS_TCB, OSTCBStkPtr)));
  
   return((OS_STK *)stk);
  80b55c:	e0bffa17 	ldw	r2,-24(fp)
}
  80b560:	e037883a 	mov	sp,fp
  80b564:	dfc00117 	ldw	ra,4(sp)
  80b568:	df000017 	ldw	fp,0(sp)
  80b56c:	dec00204 	addi	sp,sp,8
  80b570:	f800283a 	ret

0080b574 <OSTaskCreateHook>:
*
* Note(s)    : 1) Interrupts are disabled during this call.
*********************************************************************************************************
*/
void OSTaskCreateHook (OS_TCB *ptcb)
{
  80b574:	defffe04 	addi	sp,sp,-8
  80b578:	df000115 	stw	fp,4(sp)
  80b57c:	df000104 	addi	fp,sp,4
  80b580:	e13fff15 	stw	r4,-4(fp)
    ptcb = ptcb;                       /* Prevent compiler warning */
}
  80b584:	e037883a 	mov	sp,fp
  80b588:	df000017 	ldw	fp,0(sp)
  80b58c:	dec00104 	addi	sp,sp,4
  80b590:	f800283a 	ret

0080b594 <OSTaskDelHook>:
*
* Note(s)    : 1) Interrupts are disabled during this call.
*********************************************************************************************************
*/
void OSTaskDelHook (OS_TCB *ptcb)
{
  80b594:	defffe04 	addi	sp,sp,-8
  80b598:	df000115 	stw	fp,4(sp)
  80b59c:	df000104 	addi	fp,sp,4
  80b5a0:	e13fff15 	stw	r4,-4(fp)
    ptcb = ptcb;                       /* Prevent compiler warning                                     */
}
  80b5a4:	e037883a 	mov	sp,fp
  80b5a8:	df000017 	ldw	fp,0(sp)
  80b5ac:	dec00104 	addi	sp,sp,4
  80b5b0:	f800283a 	ret

0080b5b4 <OSTaskSwHook>:
*                 will be 'switched in' (i.e. the highest priority task) and, 'OSTCBCur' points to the
*                 task being switched out (i.e. the preempted task).
*********************************************************************************************************
*/
void OSTaskSwHook (void)
{
  80b5b4:	deffff04 	addi	sp,sp,-4
  80b5b8:	df000015 	stw	fp,0(sp)
  80b5bc:	d839883a 	mov	fp,sp
}
  80b5c0:	e037883a 	mov	sp,fp
  80b5c4:	df000017 	ldw	fp,0(sp)
  80b5c8:	dec00104 	addi	sp,sp,4
  80b5cc:	f800283a 	ret

0080b5d0 <OSTaskStatHook>:
*
* Arguments  : none
*********************************************************************************************************
*/
void OSTaskStatHook (void)
{
  80b5d0:	deffff04 	addi	sp,sp,-4
  80b5d4:	df000015 	stw	fp,0(sp)
  80b5d8:	d839883a 	mov	fp,sp
}
  80b5dc:	e037883a 	mov	sp,fp
  80b5e0:	df000017 	ldw	fp,0(sp)
  80b5e4:	dec00104 	addi	sp,sp,4
  80b5e8:	f800283a 	ret

0080b5ec <OSTimeTickHook>:
#ifdef ALT_INICHE
void cticks_hook(void);
#endif

void OSTimeTickHook (void)
{
  80b5ec:	deffff04 	addi	sp,sp,-4
  80b5f0:	df000015 	stw	fp,0(sp)
  80b5f4:	d839883a 	mov	fp,sp
    
#ifdef ALT_INICHE
    /* Service the Interniche timer */
    cticks_hook();
#endif
}
  80b5f8:	e037883a 	mov	sp,fp
  80b5fc:	df000017 	ldw	fp,0(sp)
  80b600:	dec00104 	addi	sp,sp,4
  80b604:	f800283a 	ret

0080b608 <OSInitHookBegin>:

void OSInitHookBegin(void)
{
  80b608:	deffff04 	addi	sp,sp,-4
  80b60c:	df000015 	stw	fp,0(sp)
  80b610:	d839883a 	mov	fp,sp
#if OS_TMR_EN > 0
    OSTmrCtr = 0;
#endif
}
  80b614:	e037883a 	mov	sp,fp
  80b618:	df000017 	ldw	fp,0(sp)
  80b61c:	dec00104 	addi	sp,sp,4
  80b620:	f800283a 	ret

0080b624 <OSInitHookEnd>:

void OSInitHookEnd(void)
{
  80b624:	deffff04 	addi	sp,sp,-4
  80b628:	df000015 	stw	fp,0(sp)
  80b62c:	d839883a 	mov	fp,sp
}
  80b630:	e037883a 	mov	sp,fp
  80b634:	df000017 	ldw	fp,0(sp)
  80b638:	dec00104 	addi	sp,sp,4
  80b63c:	f800283a 	ret

0080b640 <OSTaskIdleHook>:

void OSTaskIdleHook(void)
{
  80b640:	deffff04 	addi	sp,sp,-4
  80b644:	df000015 	stw	fp,0(sp)
  80b648:	d839883a 	mov	fp,sp
}
  80b64c:	e037883a 	mov	sp,fp
  80b650:	df000017 	ldw	fp,0(sp)
  80b654:	dec00104 	addi	sp,sp,4
  80b658:	f800283a 	ret

0080b65c <OSTCBInitHook>:

void OSTCBInitHook(OS_TCB *ptcb)
{
  80b65c:	defffe04 	addi	sp,sp,-8
  80b660:	df000115 	stw	fp,4(sp)
  80b664:	df000104 	addi	fp,sp,4
  80b668:	e13fff15 	stw	r4,-4(fp)
}
  80b66c:	e037883a 	mov	sp,fp
  80b670:	df000017 	ldw	fp,0(sp)
  80b674:	dec00104 	addi	sp,sp,4
  80b678:	f800283a 	ret

0080b67c <alt_find_file>:
 * either '/' or '\0' is the prefix of the filename. For example the filename:
 * "/myfilesystem/junk.txt" would match: "/myfilesystem", but not: "/myfile". 
 */
 
alt_dev* alt_find_file (const char* name)
{
  80b67c:	defffa04 	addi	sp,sp,-24
  80b680:	dfc00515 	stw	ra,20(sp)
  80b684:	df000415 	stw	fp,16(sp)
  80b688:	df000404 	addi	fp,sp,16
  80b68c:	e13ffe15 	stw	r4,-8(fp)
  alt_dev* next = (alt_dev*) alt_fs_list.next;   
  80b690:	00802074 	movhi	r2,129
  80b694:	10807104 	addi	r2,r2,452
  80b698:	10800017 	ldw	r2,0(r2)
  80b69c:	e0bffd15 	stw	r2,-12(fp)
  /*
   * Check each list entry in turn, until a match is found, or we reach the
   * end of the list (i.e. next winds up pointing back to the list head).
   */ 
 
  while (next != (alt_dev*) &alt_fs_list)
  80b6a0:	00003306 	br	80b770 <alt_find_file+0xf4>
  {
    len = strlen(next->name);
  80b6a4:	e0bffd17 	ldw	r2,-12(fp)
  80b6a8:	11000217 	ldw	r4,8(r2)
  80b6ac:	080bc840 	call	80bc84 <strlen>
  80b6b0:	e0bffc15 	stw	r2,-16(fp)
    
    if (next->name[len-1] == '/')
  80b6b4:	e0bffd17 	ldw	r2,-12(fp)
  80b6b8:	10c00217 	ldw	r3,8(r2)
  80b6bc:	e0bffc17 	ldw	r2,-16(fp)
  80b6c0:	1885883a 	add	r2,r3,r2
  80b6c4:	10bfffc4 	addi	r2,r2,-1
  80b6c8:	10800003 	ldbu	r2,0(r2)
  80b6cc:	10803fcc 	andi	r2,r2,255
  80b6d0:	1080201c 	xori	r2,r2,128
  80b6d4:	10bfe004 	addi	r2,r2,-128
  80b6d8:	10800bd8 	cmpnei	r2,r2,47
  80b6dc:	1000031e 	bne	r2,zero,80b6ec <alt_find_file+0x70>
    {
      len -= 1;
  80b6e0:	e0bffc17 	ldw	r2,-16(fp)
  80b6e4:	10bfffc4 	addi	r2,r2,-1
  80b6e8:	e0bffc15 	stw	r2,-16(fp)
    }

    if (((name[len] == '/') || (name[len] == '\0')) && 
  80b6ec:	e0bffc17 	ldw	r2,-16(fp)
  80b6f0:	1007883a 	mov	r3,r2
  80b6f4:	e0bffe17 	ldw	r2,-8(fp)
  80b6f8:	1885883a 	add	r2,r3,r2
  80b6fc:	10800003 	ldbu	r2,0(r2)
  80b700:	10803fcc 	andi	r2,r2,255
  80b704:	1080201c 	xori	r2,r2,128
  80b708:	10bfe004 	addi	r2,r2,-128
  80b70c:	10800be0 	cmpeqi	r2,r2,47
  80b710:	10000a1e 	bne	r2,zero,80b73c <alt_find_file+0xc0>
  80b714:	e0bffc17 	ldw	r2,-16(fp)
  80b718:	1007883a 	mov	r3,r2
  80b71c:	e0bffe17 	ldw	r2,-8(fp)
  80b720:	1885883a 	add	r2,r3,r2
  80b724:	10800003 	ldbu	r2,0(r2)
  80b728:	10803fcc 	andi	r2,r2,255
  80b72c:	1080201c 	xori	r2,r2,128
  80b730:	10bfe004 	addi	r2,r2,-128
  80b734:	1004c03a 	cmpne	r2,r2,zero
  80b738:	10000a1e 	bne	r2,zero,80b764 <alt_find_file+0xe8>
  80b73c:	e0bffd17 	ldw	r2,-12(fp)
  80b740:	11000217 	ldw	r4,8(r2)
  80b744:	e1bffc17 	ldw	r6,-16(fp)
  80b748:	e17ffe17 	ldw	r5,-8(fp)
  80b74c:	080b8ec0 	call	80b8ec <memcmp>
  80b750:	1004c03a 	cmpne	r2,r2,zero
  80b754:	1000031e 	bne	r2,zero,80b764 <alt_find_file+0xe8>
        !memcmp (next->name, name, len))
    {
      /* match found */

      return next;
  80b758:	e0bffd17 	ldw	r2,-12(fp)
  80b75c:	e0bfff15 	stw	r2,-4(fp)
  80b760:	00000806 	br	80b784 <alt_find_file+0x108>
    }
    next = (alt_dev*) next->llist.next;
  80b764:	e0bffd17 	ldw	r2,-12(fp)
  80b768:	10800017 	ldw	r2,0(r2)
  80b76c:	e0bffd15 	stw	r2,-12(fp)
  /*
   * Check each list entry in turn, until a match is found, or we reach the
   * end of the list (i.e. next winds up pointing back to the list head).
   */ 
 
  while (next != (alt_dev*) &alt_fs_list)
  80b770:	00c02074 	movhi	r3,129
  80b774:	18c07104 	addi	r3,r3,452
  80b778:	e0bffd17 	ldw	r2,-12(fp)
  80b77c:	10ffc91e 	bne	r2,r3,80b6a4 <alt_find_file+0x28>
    next = (alt_dev*) next->llist.next;
  }
  
  /* No match found */
  
  return NULL;     
  80b780:	e03fff15 	stw	zero,-4(fp)
  80b784:	e0bfff17 	ldw	r2,-4(fp)
}
  80b788:	e037883a 	mov	sp,fp
  80b78c:	dfc00117 	ldw	ra,4(sp)
  80b790:	df000017 	ldw	fp,0(sp)
  80b794:	dec00204 	addi	sp,sp,8
  80b798:	f800283a 	ret

0080b79c <alt_get_fd>:
 * the offset of the file descriptor within the file descriptor array). A
 * negative value indicates failure.
 */

int alt_get_fd (alt_dev* dev)
{
  80b79c:	defff704 	addi	sp,sp,-36
  80b7a0:	dfc00815 	stw	ra,32(sp)
  80b7a4:	df000715 	stw	fp,28(sp)
  80b7a8:	dc000615 	stw	r16,24(sp)
  80b7ac:	df000604 	addi	fp,sp,24
  80b7b0:	e13fff15 	stw	r4,-4(fp)
  alt_32 i;
  int rc = -EMFILE;
  80b7b4:	00bffa04 	movi	r2,-24
  80b7b8:	e0bffc15 	stw	r2,-16(fp)
  /* 
   * Take the alt_fd_list_lock semaphore in order to avoid races when 
   * accessing the file descriptor pool.
   */
  
  ALT_SEM_PEND(alt_fd_list_lock, 0);
  80b7bc:	00802074 	movhi	r2,129
  80b7c0:	10875b04 	addi	r2,r2,7532
  80b7c4:	10800017 	ldw	r2,0(r2)
  80b7c8:	e0bffa15 	stw	r2,-24(fp)
  80b7cc:	e03ffb0d 	sth	zero,-20(fp)
  80b7d0:	e17ffb0b 	ldhu	r5,-20(fp)
  80b7d4:	e1bffe04 	addi	r6,fp,-8
  80b7d8:	e13ffa17 	ldw	r4,-24(fp)
  80b7dc:	08067180 	call	806718 <OSSemPend>
   * indicates the highest file descriptor ever allocated. This is used to
   * improve efficency when searching the file descriptor list, and 
   * therefore reduce contention on the alt_fd_list_lock semaphore. 
   */

  for (i = 0; i < ALT_MAX_FD; i++)
  80b7e0:	e03ffd15 	stw	zero,-12(fp)
  80b7e4:	00002006 	br	80b868 <alt_get_fd+0xcc>
  {
    if (!alt_fd_list[i].dev)
  80b7e8:	e13ffd17 	ldw	r4,-12(fp)
  80b7ec:	04002074 	movhi	r16,129
  80b7f0:	843df004 	addi	r16,r16,-2112
  80b7f4:	01400304 	movi	r5,12
  80b7f8:	080dd080 	call	80dd08 <__mulsi3>
  80b7fc:	1405883a 	add	r2,r2,r16
  80b800:	10800017 	ldw	r2,0(r2)
  80b804:	1004c03a 	cmpne	r2,r2,zero
  80b808:	1000141e 	bne	r2,zero,80b85c <alt_get_fd+0xc0>
    {
      alt_fd_list[i].dev = dev;
  80b80c:	e13ffd17 	ldw	r4,-12(fp)
  80b810:	04002074 	movhi	r16,129
  80b814:	843df004 	addi	r16,r16,-2112
  80b818:	01400304 	movi	r5,12
  80b81c:	080dd080 	call	80dd08 <__mulsi3>
  80b820:	1407883a 	add	r3,r2,r16
  80b824:	e0bfff17 	ldw	r2,-4(fp)
  80b828:	18800015 	stw	r2,0(r3)
      if (i > alt_max_fd)
  80b82c:	00802074 	movhi	r2,129
  80b830:	10807504 	addi	r2,r2,468
  80b834:	10c00017 	ldw	r3,0(r2)
  80b838:	e0bffd17 	ldw	r2,-12(fp)
  80b83c:	1880040e 	bge	r3,r2,80b850 <alt_get_fd+0xb4>
      {
        alt_max_fd = i;
  80b840:	00c02074 	movhi	r3,129
  80b844:	18c07504 	addi	r3,r3,468
  80b848:	e0bffd17 	ldw	r2,-12(fp)
  80b84c:	18800015 	stw	r2,0(r3)
      }
      rc = i;
  80b850:	e0bffd17 	ldw	r2,-12(fp)
  80b854:	e0bffc15 	stw	r2,-16(fp)
      goto alt_get_fd_exit;
  80b858:	00000606 	br	80b874 <alt_get_fd+0xd8>
   * indicates the highest file descriptor ever allocated. This is used to
   * improve efficency when searching the file descriptor list, and 
   * therefore reduce contention on the alt_fd_list_lock semaphore. 
   */

  for (i = 0; i < ALT_MAX_FD; i++)
  80b85c:	e0bffd17 	ldw	r2,-12(fp)
  80b860:	10800044 	addi	r2,r2,1
  80b864:	e0bffd15 	stw	r2,-12(fp)
  80b868:	e0bffd17 	ldw	r2,-12(fp)
  80b86c:	10800810 	cmplti	r2,r2,32
  80b870:	103fdd1e 	bne	r2,zero,80b7e8 <alt_get_fd+0x4c>
  /*
   * Release the alt_fd_list_lock semaphore now that we are done with the
   * file descriptor pool.
   */

  ALT_SEM_POST(alt_fd_list_lock);
  80b874:	00802074 	movhi	r2,129
  80b878:	10875b04 	addi	r2,r2,7532
  80b87c:	11000017 	ldw	r4,0(r2)
  80b880:	0806b100 	call	806b10 <OSSemPost>

  return rc;
  80b884:	e0bffc17 	ldw	r2,-16(fp)
}
  80b888:	e037883a 	mov	sp,fp
  80b88c:	dfc00217 	ldw	ra,8(sp)
  80b890:	df000117 	ldw	fp,4(sp)
  80b894:	dc000017 	ldw	r16,0(sp)
  80b898:	dec00304 	addi	sp,sp,12
  80b89c:	f800283a 	ret

0080b8a0 <atexit>:
  80b8a0:	200b883a 	mov	r5,r4
  80b8a4:	000d883a 	mov	r6,zero
  80b8a8:	0009883a 	mov	r4,zero
  80b8ac:	000f883a 	mov	r7,zero
  80b8b0:	080bf801 	jmpi	80bf80 <__register_exitproc>

0080b8b4 <exit>:
  80b8b4:	defffe04 	addi	sp,sp,-8
  80b8b8:	000b883a 	mov	r5,zero
  80b8bc:	dc000015 	stw	r16,0(sp)
  80b8c0:	dfc00115 	stw	ra,4(sp)
  80b8c4:	2021883a 	mov	r16,r4
  80b8c8:	080c0b80 	call	80c0b8 <__call_exitprocs>
  80b8cc:	00802074 	movhi	r2,129
  80b8d0:	10807b04 	addi	r2,r2,492
  80b8d4:	11000017 	ldw	r4,0(r2)
  80b8d8:	20800f17 	ldw	r2,60(r4)
  80b8dc:	10000126 	beq	r2,zero,80b8e4 <exit+0x30>
  80b8e0:	103ee83a 	callr	r2
  80b8e4:	8009883a 	mov	r4,r16
  80b8e8:	080dd800 	call	80dd80 <_exit>

0080b8ec <memcmp>:
  80b8ec:	00c000c4 	movi	r3,3
  80b8f0:	1980032e 	bgeu	r3,r6,80b900 <memcmp+0x14>
  80b8f4:	2144b03a 	or	r2,r4,r5
  80b8f8:	10c4703a 	and	r2,r2,r3
  80b8fc:	10000f26 	beq	r2,zero,80b93c <memcmp+0x50>
  80b900:	31ffffc4 	addi	r7,r6,-1
  80b904:	3000061e 	bne	r6,zero,80b920 <memcmp+0x34>
  80b908:	00000a06 	br	80b934 <memcmp+0x48>
  80b90c:	39ffffc4 	addi	r7,r7,-1
  80b910:	00bfffc4 	movi	r2,-1
  80b914:	21000044 	addi	r4,r4,1
  80b918:	29400044 	addi	r5,r5,1
  80b91c:	38800526 	beq	r7,r2,80b934 <memcmp+0x48>
  80b920:	20c00003 	ldbu	r3,0(r4)
  80b924:	28800003 	ldbu	r2,0(r5)
  80b928:	18bff826 	beq	r3,r2,80b90c <memcmp+0x20>
  80b92c:	1885c83a 	sub	r2,r3,r2
  80b930:	f800283a 	ret
  80b934:	0005883a 	mov	r2,zero
  80b938:	f800283a 	ret
  80b93c:	180f883a 	mov	r7,r3
  80b940:	20c00017 	ldw	r3,0(r4)
  80b944:	28800017 	ldw	r2,0(r5)
  80b948:	18bfed1e 	bne	r3,r2,80b900 <memcmp+0x14>
  80b94c:	31bfff04 	addi	r6,r6,-4
  80b950:	21000104 	addi	r4,r4,4
  80b954:	29400104 	addi	r5,r5,4
  80b958:	39bff936 	bltu	r7,r6,80b940 <memcmp+0x54>
  80b95c:	003fe806 	br	80b900 <memcmp+0x14>

0080b960 <memcpy>:
  80b960:	01c003c4 	movi	r7,15
  80b964:	2007883a 	mov	r3,r4
  80b968:	3980032e 	bgeu	r7,r6,80b978 <memcpy+0x18>
  80b96c:	2904b03a 	or	r2,r5,r4
  80b970:	108000cc 	andi	r2,r2,3
  80b974:	10000926 	beq	r2,zero,80b99c <memcpy+0x3c>
  80b978:	30000626 	beq	r6,zero,80b994 <memcpy+0x34>
  80b97c:	30cd883a 	add	r6,r6,r3
  80b980:	28800003 	ldbu	r2,0(r5)
  80b984:	29400044 	addi	r5,r5,1
  80b988:	18800005 	stb	r2,0(r3)
  80b98c:	18c00044 	addi	r3,r3,1
  80b990:	30fffb1e 	bne	r6,r3,80b980 <memcpy+0x20>
  80b994:	2005883a 	mov	r2,r4
  80b998:	f800283a 	ret
  80b99c:	3811883a 	mov	r8,r7
  80b9a0:	200f883a 	mov	r7,r4
  80b9a4:	28c00017 	ldw	r3,0(r5)
  80b9a8:	31bffc04 	addi	r6,r6,-16
  80b9ac:	38c00015 	stw	r3,0(r7)
  80b9b0:	28800117 	ldw	r2,4(r5)
  80b9b4:	38800115 	stw	r2,4(r7)
  80b9b8:	28c00217 	ldw	r3,8(r5)
  80b9bc:	38c00215 	stw	r3,8(r7)
  80b9c0:	28800317 	ldw	r2,12(r5)
  80b9c4:	29400404 	addi	r5,r5,16
  80b9c8:	38800315 	stw	r2,12(r7)
  80b9cc:	39c00404 	addi	r7,r7,16
  80b9d0:	41bff436 	bltu	r8,r6,80b9a4 <memcpy+0x44>
  80b9d4:	008000c4 	movi	r2,3
  80b9d8:	1180072e 	bgeu	r2,r6,80b9f8 <memcpy+0x98>
  80b9dc:	1007883a 	mov	r3,r2
  80b9e0:	28800017 	ldw	r2,0(r5)
  80b9e4:	31bfff04 	addi	r6,r6,-4
  80b9e8:	29400104 	addi	r5,r5,4
  80b9ec:	38800015 	stw	r2,0(r7)
  80b9f0:	39c00104 	addi	r7,r7,4
  80b9f4:	19bffa36 	bltu	r3,r6,80b9e0 <memcpy+0x80>
  80b9f8:	3807883a 	mov	r3,r7
  80b9fc:	003fde06 	br	80b978 <memcpy+0x18>

0080ba00 <memset>:
  80ba00:	008000c4 	movi	r2,3
  80ba04:	29403fcc 	andi	r5,r5,255
  80ba08:	2007883a 	mov	r3,r4
  80ba0c:	1180022e 	bgeu	r2,r6,80ba18 <memset+0x18>
  80ba10:	2084703a 	and	r2,r4,r2
  80ba14:	10000826 	beq	r2,zero,80ba38 <memset+0x38>
  80ba18:	30000526 	beq	r6,zero,80ba30 <memset+0x30>
  80ba1c:	2805883a 	mov	r2,r5
  80ba20:	30cd883a 	add	r6,r6,r3
  80ba24:	18800005 	stb	r2,0(r3)
  80ba28:	18c00044 	addi	r3,r3,1
  80ba2c:	19bffd1e 	bne	r3,r6,80ba24 <memset+0x24>
  80ba30:	2005883a 	mov	r2,r4
  80ba34:	f800283a 	ret
  80ba38:	2804923a 	slli	r2,r5,8
  80ba3c:	020003c4 	movi	r8,15
  80ba40:	200f883a 	mov	r7,r4
  80ba44:	2884b03a 	or	r2,r5,r2
  80ba48:	1006943a 	slli	r3,r2,16
  80ba4c:	10c6b03a 	or	r3,r2,r3
  80ba50:	41800a2e 	bgeu	r8,r6,80ba7c <memset+0x7c>
  80ba54:	4005883a 	mov	r2,r8
  80ba58:	31bffc04 	addi	r6,r6,-16
  80ba5c:	38c00015 	stw	r3,0(r7)
  80ba60:	38c00115 	stw	r3,4(r7)
  80ba64:	38c00215 	stw	r3,8(r7)
  80ba68:	38c00315 	stw	r3,12(r7)
  80ba6c:	39c00404 	addi	r7,r7,16
  80ba70:	11bff936 	bltu	r2,r6,80ba58 <memset+0x58>
  80ba74:	008000c4 	movi	r2,3
  80ba78:	1180052e 	bgeu	r2,r6,80ba90 <memset+0x90>
  80ba7c:	31bfff04 	addi	r6,r6,-4
  80ba80:	008000c4 	movi	r2,3
  80ba84:	38c00015 	stw	r3,0(r7)
  80ba88:	39c00104 	addi	r7,r7,4
  80ba8c:	11bffb36 	bltu	r2,r6,80ba7c <memset+0x7c>
  80ba90:	3807883a 	mov	r3,r7
  80ba94:	003fe006 	br	80ba18 <memset+0x18>

0080ba98 <putc>:
  80ba98:	defffc04 	addi	sp,sp,-16
  80ba9c:	dc800215 	stw	r18,8(sp)
  80baa0:	04802074 	movhi	r18,129
  80baa4:	94807a04 	addi	r18,r18,488
  80baa8:	90c00017 	ldw	r3,0(r18)
  80baac:	dc400115 	stw	r17,4(sp)
  80bab0:	dc000015 	stw	r16,0(sp)
  80bab4:	dfc00315 	stw	ra,12(sp)
  80bab8:	2023883a 	mov	r17,r4
  80babc:	2821883a 	mov	r16,r5
  80bac0:	18000226 	beq	r3,zero,80bacc <putc+0x34>
  80bac4:	18800e17 	ldw	r2,56(r3)
  80bac8:	10001126 	beq	r2,zero,80bb10 <putc+0x78>
  80bacc:	80800217 	ldw	r2,8(r16)
  80bad0:	10ffffc4 	addi	r3,r2,-1
  80bad4:	80c00215 	stw	r3,8(r16)
  80bad8:	18001316 	blt	r3,zero,80bb28 <putc+0x90>
  80badc:	80800017 	ldw	r2,0(r16)
  80bae0:	14400005 	stb	r17,0(r2)
  80bae4:	80c00017 	ldw	r3,0(r16)
  80bae8:	18800044 	addi	r2,r3,1
  80baec:	18c00003 	ldbu	r3,0(r3)
  80baf0:	80800015 	stw	r2,0(r16)
  80baf4:	1805883a 	mov	r2,r3
  80baf8:	dfc00317 	ldw	ra,12(sp)
  80bafc:	dc800217 	ldw	r18,8(sp)
  80bb00:	dc400117 	ldw	r17,4(sp)
  80bb04:	dc000017 	ldw	r16,0(sp)
  80bb08:	dec00404 	addi	sp,sp,16
  80bb0c:	f800283a 	ret
  80bb10:	1809883a 	mov	r4,r3
  80bb14:	080c5000 	call	80c500 <__sinit>
  80bb18:	80800217 	ldw	r2,8(r16)
  80bb1c:	10ffffc4 	addi	r3,r2,-1
  80bb20:	80c00215 	stw	r3,8(r16)
  80bb24:	183fed0e 	bge	r3,zero,80badc <putc+0x44>
  80bb28:	80800617 	ldw	r2,24(r16)
  80bb2c:	18800f16 	blt	r3,r2,80bb6c <putc+0xd4>
  80bb30:	80800017 	ldw	r2,0(r16)
  80bb34:	14400005 	stb	r17,0(r2)
  80bb38:	81000017 	ldw	r4,0(r16)
  80bb3c:	00800284 	movi	r2,10
  80bb40:	20c00003 	ldbu	r3,0(r4)
  80bb44:	18801226 	beq	r3,r2,80bb90 <putc+0xf8>
  80bb48:	20800044 	addi	r2,r4,1
  80bb4c:	80800015 	stw	r2,0(r16)
  80bb50:	1805883a 	mov	r2,r3
  80bb54:	dfc00317 	ldw	ra,12(sp)
  80bb58:	dc800217 	ldw	r18,8(sp)
  80bb5c:	dc400117 	ldw	r17,4(sp)
  80bb60:	dc000017 	ldw	r16,0(sp)
  80bb64:	dec00404 	addi	sp,sp,16
  80bb68:	f800283a 	ret
  80bb6c:	91000017 	ldw	r4,0(r18)
  80bb70:	880b883a 	mov	r5,r17
  80bb74:	800d883a 	mov	r6,r16
  80bb78:	dfc00317 	ldw	ra,12(sp)
  80bb7c:	dc800217 	ldw	r18,8(sp)
  80bb80:	dc400117 	ldw	r17,4(sp)
  80bb84:	dc000017 	ldw	r16,0(sp)
  80bb88:	dec00404 	addi	sp,sp,16
  80bb8c:	080bcf81 	jmpi	80bcf8 <__swbuf_r>
  80bb90:	91000017 	ldw	r4,0(r18)
  80bb94:	180b883a 	mov	r5,r3
  80bb98:	003ff606 	br	80bb74 <putc+0xdc>

0080bb9c <_putc_r>:
  80bb9c:	defffc04 	addi	sp,sp,-16
  80bba0:	dc400215 	stw	r17,8(sp)
  80bba4:	dc000115 	stw	r16,4(sp)
  80bba8:	dfc00315 	stw	ra,12(sp)
  80bbac:	2021883a 	mov	r16,r4
  80bbb0:	2823883a 	mov	r17,r5
  80bbb4:	20000226 	beq	r4,zero,80bbc0 <_putc_r+0x24>
  80bbb8:	20800e17 	ldw	r2,56(r4)
  80bbbc:	10001026 	beq	r2,zero,80bc00 <_putc_r+0x64>
  80bbc0:	30800217 	ldw	r2,8(r6)
  80bbc4:	10ffffc4 	addi	r3,r2,-1
  80bbc8:	30c00215 	stw	r3,8(r6)
  80bbcc:	18001316 	blt	r3,zero,80bc1c <_putc_r+0x80>
  80bbd0:	30800017 	ldw	r2,0(r6)
  80bbd4:	14400005 	stb	r17,0(r2)
  80bbd8:	30c00017 	ldw	r3,0(r6)
  80bbdc:	18800044 	addi	r2,r3,1
  80bbe0:	18c00003 	ldbu	r3,0(r3)
  80bbe4:	30800015 	stw	r2,0(r6)
  80bbe8:	1805883a 	mov	r2,r3
  80bbec:	dfc00317 	ldw	ra,12(sp)
  80bbf0:	dc400217 	ldw	r17,8(sp)
  80bbf4:	dc000117 	ldw	r16,4(sp)
  80bbf8:	dec00404 	addi	sp,sp,16
  80bbfc:	f800283a 	ret
  80bc00:	d9800015 	stw	r6,0(sp)
  80bc04:	080c5000 	call	80c500 <__sinit>
  80bc08:	d9800017 	ldw	r6,0(sp)
  80bc0c:	30800217 	ldw	r2,8(r6)
  80bc10:	10ffffc4 	addi	r3,r2,-1
  80bc14:	30c00215 	stw	r3,8(r6)
  80bc18:	183fed0e 	bge	r3,zero,80bbd0 <_putc_r+0x34>
  80bc1c:	30800617 	ldw	r2,24(r6)
  80bc20:	18800e16 	blt	r3,r2,80bc5c <_putc_r+0xc0>
  80bc24:	30800017 	ldw	r2,0(r6)
  80bc28:	14400005 	stb	r17,0(r2)
  80bc2c:	31000017 	ldw	r4,0(r6)
  80bc30:	00800284 	movi	r2,10
  80bc34:	20c00003 	ldbu	r3,0(r4)
  80bc38:	18800f26 	beq	r3,r2,80bc78 <_putc_r+0xdc>
  80bc3c:	20800044 	addi	r2,r4,1
  80bc40:	30800015 	stw	r2,0(r6)
  80bc44:	1805883a 	mov	r2,r3
  80bc48:	dfc00317 	ldw	ra,12(sp)
  80bc4c:	dc400217 	ldw	r17,8(sp)
  80bc50:	dc000117 	ldw	r16,4(sp)
  80bc54:	dec00404 	addi	sp,sp,16
  80bc58:	f800283a 	ret
  80bc5c:	8009883a 	mov	r4,r16
  80bc60:	880b883a 	mov	r5,r17
  80bc64:	dfc00317 	ldw	ra,12(sp)
  80bc68:	dc400217 	ldw	r17,8(sp)
  80bc6c:	dc000117 	ldw	r16,4(sp)
  80bc70:	dec00404 	addi	sp,sp,16
  80bc74:	080bcf81 	jmpi	80bcf8 <__swbuf_r>
  80bc78:	8009883a 	mov	r4,r16
  80bc7c:	180b883a 	mov	r5,r3
  80bc80:	003ff806 	br	80bc64 <_putc_r+0xc8>

0080bc84 <strlen>:
  80bc84:	208000cc 	andi	r2,r4,3
  80bc88:	2011883a 	mov	r8,r4
  80bc8c:	1000161e 	bne	r2,zero,80bce8 <strlen+0x64>
  80bc90:	20c00017 	ldw	r3,0(r4)
  80bc94:	017fbff4 	movhi	r5,65279
  80bc98:	297fbfc4 	addi	r5,r5,-257
  80bc9c:	01e02074 	movhi	r7,32897
  80bca0:	39e02004 	addi	r7,r7,-32640
  80bca4:	1945883a 	add	r2,r3,r5
  80bca8:	11c4703a 	and	r2,r2,r7
  80bcac:	00c6303a 	nor	r3,zero,r3
  80bcb0:	1886703a 	and	r3,r3,r2
  80bcb4:	18000c1e 	bne	r3,zero,80bce8 <strlen+0x64>
  80bcb8:	280d883a 	mov	r6,r5
  80bcbc:	380b883a 	mov	r5,r7
  80bcc0:	21000104 	addi	r4,r4,4
  80bcc4:	20800017 	ldw	r2,0(r4)
  80bcc8:	1187883a 	add	r3,r2,r6
  80bccc:	1946703a 	and	r3,r3,r5
  80bcd0:	0084303a 	nor	r2,zero,r2
  80bcd4:	10c4703a 	and	r2,r2,r3
  80bcd8:	103ff926 	beq	r2,zero,80bcc0 <strlen+0x3c>
  80bcdc:	20800007 	ldb	r2,0(r4)
  80bce0:	10000326 	beq	r2,zero,80bcf0 <strlen+0x6c>
  80bce4:	21000044 	addi	r4,r4,1
  80bce8:	20800007 	ldb	r2,0(r4)
  80bcec:	103ffd1e 	bne	r2,zero,80bce4 <strlen+0x60>
  80bcf0:	2205c83a 	sub	r2,r4,r8
  80bcf4:	f800283a 	ret

0080bcf8 <__swbuf_r>:
  80bcf8:	defffc04 	addi	sp,sp,-16
  80bcfc:	dc400215 	stw	r17,8(sp)
  80bd00:	dc000115 	stw	r16,4(sp)
  80bd04:	dfc00315 	stw	ra,12(sp)
  80bd08:	2023883a 	mov	r17,r4
  80bd0c:	2821883a 	mov	r16,r5
  80bd10:	20000226 	beq	r4,zero,80bd1c <__swbuf_r+0x24>
  80bd14:	20800e17 	ldw	r2,56(r4)
  80bd18:	10002f26 	beq	r2,zero,80bdd8 <__swbuf_r+0xe0>
  80bd1c:	3080030b 	ldhu	r2,12(r6)
  80bd20:	30c00617 	ldw	r3,24(r6)
  80bd24:	1080020c 	andi	r2,r2,8
  80bd28:	30c00215 	stw	r3,8(r6)
  80bd2c:	10002226 	beq	r2,zero,80bdb8 <__swbuf_r+0xc0>
  80bd30:	30c00417 	ldw	r3,16(r6)
  80bd34:	18002026 	beq	r3,zero,80bdb8 <__swbuf_r+0xc0>
  80bd38:	31000017 	ldw	r4,0(r6)
  80bd3c:	30800517 	ldw	r2,20(r6)
  80bd40:	20c7c83a 	sub	r3,r4,r3
  80bd44:	18802f0e 	bge	r3,r2,80be04 <__swbuf_r+0x10c>
  80bd48:	19400044 	addi	r5,r3,1
  80bd4c:	30800217 	ldw	r2,8(r6)
  80bd50:	84003fcc 	andi	r16,r16,255
  80bd54:	20c00044 	addi	r3,r4,1
  80bd58:	10bfffc4 	addi	r2,r2,-1
  80bd5c:	30800215 	stw	r2,8(r6)
  80bd60:	24000005 	stb	r16,0(r4)
  80bd64:	30800517 	ldw	r2,20(r6)
  80bd68:	30c00015 	stw	r3,0(r6)
  80bd6c:	11400c26 	beq	r2,r5,80bda0 <__swbuf_r+0xa8>
  80bd70:	3080030b 	ldhu	r2,12(r6)
  80bd74:	1080004c 	andi	r2,r2,1
  80bd78:	1005003a 	cmpeq	r2,r2,zero
  80bd7c:	10000626 	beq	r2,zero,80bd98 <__swbuf_r+0xa0>
  80bd80:	8005883a 	mov	r2,r16
  80bd84:	dfc00317 	ldw	ra,12(sp)
  80bd88:	dc400217 	ldw	r17,8(sp)
  80bd8c:	dc000117 	ldw	r16,4(sp)
  80bd90:	dec00404 	addi	sp,sp,16
  80bd94:	f800283a 	ret
  80bd98:	00800284 	movi	r2,10
  80bd9c:	80bff81e 	bne	r16,r2,80bd80 <__swbuf_r+0x88>
  80bda0:	8809883a 	mov	r4,r17
  80bda4:	300b883a 	mov	r5,r6
  80bda8:	080c2680 	call	80c268 <_fflush_r>
  80bdac:	103ff426 	beq	r2,zero,80bd80 <__swbuf_r+0x88>
  80bdb0:	043fffc4 	movi	r16,-1
  80bdb4:	003ff206 	br	80bd80 <__swbuf_r+0x88>
  80bdb8:	300b883a 	mov	r5,r6
  80bdbc:	8809883a 	mov	r4,r17
  80bdc0:	d9800015 	stw	r6,0(sp)
  80bdc4:	080be440 	call	80be44 <__swsetup_r>
  80bdc8:	d9800017 	ldw	r6,0(sp)
  80bdcc:	1000061e 	bne	r2,zero,80bde8 <__swbuf_r+0xf0>
  80bdd0:	30c00417 	ldw	r3,16(r6)
  80bdd4:	003fd806 	br	80bd38 <__swbuf_r+0x40>
  80bdd8:	d9800015 	stw	r6,0(sp)
  80bddc:	080c5000 	call	80c500 <__sinit>
  80bde0:	d9800017 	ldw	r6,0(sp)
  80bde4:	003fcd06 	br	80bd1c <__swbuf_r+0x24>
  80bde8:	3080030b 	ldhu	r2,12(r6)
  80bdec:	00c00244 	movi	r3,9
  80bdf0:	043fffc4 	movi	r16,-1
  80bdf4:	10801014 	ori	r2,r2,64
  80bdf8:	3080030d 	sth	r2,12(r6)
  80bdfc:	88c00015 	stw	r3,0(r17)
  80be00:	003fdf06 	br	80bd80 <__swbuf_r+0x88>
  80be04:	300b883a 	mov	r5,r6
  80be08:	8809883a 	mov	r4,r17
  80be0c:	d9800015 	stw	r6,0(sp)
  80be10:	080c2680 	call	80c268 <_fflush_r>
  80be14:	d9800017 	ldw	r6,0(sp)
  80be18:	103fe51e 	bne	r2,zero,80bdb0 <__swbuf_r+0xb8>
  80be1c:	31000017 	ldw	r4,0(r6)
  80be20:	01400044 	movi	r5,1
  80be24:	003fc906 	br	80bd4c <__swbuf_r+0x54>

0080be28 <__swbuf>:
  80be28:	01802074 	movhi	r6,129
  80be2c:	31807a04 	addi	r6,r6,488
  80be30:	2007883a 	mov	r3,r4
  80be34:	31000017 	ldw	r4,0(r6)
  80be38:	280d883a 	mov	r6,r5
  80be3c:	180b883a 	mov	r5,r3
  80be40:	080bcf81 	jmpi	80bcf8 <__swbuf_r>

0080be44 <__swsetup_r>:
  80be44:	00802074 	movhi	r2,129
  80be48:	10807a04 	addi	r2,r2,488
  80be4c:	10c00017 	ldw	r3,0(r2)
  80be50:	defffd04 	addi	sp,sp,-12
  80be54:	dc400115 	stw	r17,4(sp)
  80be58:	dc000015 	stw	r16,0(sp)
  80be5c:	dfc00215 	stw	ra,8(sp)
  80be60:	2023883a 	mov	r17,r4
  80be64:	2821883a 	mov	r16,r5
  80be68:	18000226 	beq	r3,zero,80be74 <__swsetup_r+0x30>
  80be6c:	18800e17 	ldw	r2,56(r3)
  80be70:	10001f26 	beq	r2,zero,80bef0 <__swsetup_r+0xac>
  80be74:	8100030b 	ldhu	r4,12(r16)
  80be78:	2080020c 	andi	r2,r4,8
  80be7c:	10002826 	beq	r2,zero,80bf20 <__swsetup_r+0xdc>
  80be80:	81400417 	ldw	r5,16(r16)
  80be84:	28001d26 	beq	r5,zero,80befc <__swsetup_r+0xb8>
  80be88:	2080004c 	andi	r2,r4,1
  80be8c:	1005003a 	cmpeq	r2,r2,zero
  80be90:	10000b26 	beq	r2,zero,80bec0 <__swsetup_r+0x7c>
  80be94:	2080008c 	andi	r2,r4,2
  80be98:	10001226 	beq	r2,zero,80bee4 <__swsetup_r+0xa0>
  80be9c:	0005883a 	mov	r2,zero
  80bea0:	80800215 	stw	r2,8(r16)
  80bea4:	28000b26 	beq	r5,zero,80bed4 <__swsetup_r+0x90>
  80bea8:	0005883a 	mov	r2,zero
  80beac:	dfc00217 	ldw	ra,8(sp)
  80beb0:	dc400117 	ldw	r17,4(sp)
  80beb4:	dc000017 	ldw	r16,0(sp)
  80beb8:	dec00304 	addi	sp,sp,12
  80bebc:	f800283a 	ret
  80bec0:	80800517 	ldw	r2,20(r16)
  80bec4:	80000215 	stw	zero,8(r16)
  80bec8:	0085c83a 	sub	r2,zero,r2
  80becc:	80800615 	stw	r2,24(r16)
  80bed0:	283ff51e 	bne	r5,zero,80bea8 <__swsetup_r+0x64>
  80bed4:	2080200c 	andi	r2,r4,128
  80bed8:	103ff326 	beq	r2,zero,80bea8 <__swsetup_r+0x64>
  80bedc:	00bfffc4 	movi	r2,-1
  80bee0:	003ff206 	br	80beac <__swsetup_r+0x68>
  80bee4:	80800517 	ldw	r2,20(r16)
  80bee8:	80800215 	stw	r2,8(r16)
  80beec:	003fed06 	br	80bea4 <__swsetup_r+0x60>
  80bef0:	1809883a 	mov	r4,r3
  80bef4:	080c5000 	call	80c500 <__sinit>
  80bef8:	003fde06 	br	80be74 <__swsetup_r+0x30>
  80befc:	20c0a00c 	andi	r3,r4,640
  80bf00:	00808004 	movi	r2,512
  80bf04:	18bfe026 	beq	r3,r2,80be88 <__swsetup_r+0x44>
  80bf08:	8809883a 	mov	r4,r17
  80bf0c:	800b883a 	mov	r5,r16
  80bf10:	080cd4c0 	call	80cd4c <__smakebuf_r>
  80bf14:	8100030b 	ldhu	r4,12(r16)
  80bf18:	81400417 	ldw	r5,16(r16)
  80bf1c:	003fda06 	br	80be88 <__swsetup_r+0x44>
  80bf20:	2080040c 	andi	r2,r4,16
  80bf24:	103fed26 	beq	r2,zero,80bedc <__swsetup_r+0x98>
  80bf28:	2080010c 	andi	r2,r4,4
  80bf2c:	10001226 	beq	r2,zero,80bf78 <__swsetup_r+0x134>
  80bf30:	81400c17 	ldw	r5,48(r16)
  80bf34:	28000526 	beq	r5,zero,80bf4c <__swsetup_r+0x108>
  80bf38:	80801004 	addi	r2,r16,64
  80bf3c:	28800226 	beq	r5,r2,80bf48 <__swsetup_r+0x104>
  80bf40:	8809883a 	mov	r4,r17
  80bf44:	080c8b80 	call	80c8b8 <_free_r>
  80bf48:	80000c15 	stw	zero,48(r16)
  80bf4c:	8080030b 	ldhu	r2,12(r16)
  80bf50:	81400417 	ldw	r5,16(r16)
  80bf54:	80000115 	stw	zero,4(r16)
  80bf58:	10bff6cc 	andi	r2,r2,65499
  80bf5c:	8080030d 	sth	r2,12(r16)
  80bf60:	81400015 	stw	r5,0(r16)
  80bf64:	8080030b 	ldhu	r2,12(r16)
  80bf68:	10800214 	ori	r2,r2,8
  80bf6c:	113fffcc 	andi	r4,r2,65535
  80bf70:	8080030d 	sth	r2,12(r16)
  80bf74:	003fc306 	br	80be84 <__swsetup_r+0x40>
  80bf78:	81400417 	ldw	r5,16(r16)
  80bf7c:	003ff906 	br	80bf64 <__swsetup_r+0x120>

0080bf80 <__register_exitproc>:
  80bf80:	defffa04 	addi	sp,sp,-24
  80bf84:	00802074 	movhi	r2,129
  80bf88:	10807b04 	addi	r2,r2,492
  80bf8c:	dc000015 	stw	r16,0(sp)
  80bf90:	14000017 	ldw	r16,0(r2)
  80bf94:	dd000415 	stw	r20,16(sp)
  80bf98:	2829883a 	mov	r20,r5
  80bf9c:	81405217 	ldw	r5,328(r16)
  80bfa0:	dcc00315 	stw	r19,12(sp)
  80bfa4:	dc800215 	stw	r18,8(sp)
  80bfa8:	dc400115 	stw	r17,4(sp)
  80bfac:	dfc00515 	stw	ra,20(sp)
  80bfb0:	2023883a 	mov	r17,r4
  80bfb4:	3027883a 	mov	r19,r6
  80bfb8:	3825883a 	mov	r18,r7
  80bfbc:	28002526 	beq	r5,zero,80c054 <__register_exitproc+0xd4>
  80bfc0:	29000117 	ldw	r4,4(r5)
  80bfc4:	008007c4 	movi	r2,31
  80bfc8:	11002716 	blt	r2,r4,80c068 <__register_exitproc+0xe8>
  80bfcc:	8800101e 	bne	r17,zero,80c010 <__register_exitproc+0x90>
  80bfd0:	2105883a 	add	r2,r4,r4
  80bfd4:	1085883a 	add	r2,r2,r2
  80bfd8:	20c00044 	addi	r3,r4,1
  80bfdc:	1145883a 	add	r2,r2,r5
  80bfe0:	0009883a 	mov	r4,zero
  80bfe4:	15000215 	stw	r20,8(r2)
  80bfe8:	28c00115 	stw	r3,4(r5)
  80bfec:	2005883a 	mov	r2,r4
  80bff0:	dfc00517 	ldw	ra,20(sp)
  80bff4:	dd000417 	ldw	r20,16(sp)
  80bff8:	dcc00317 	ldw	r19,12(sp)
  80bffc:	dc800217 	ldw	r18,8(sp)
  80c000:	dc400117 	ldw	r17,4(sp)
  80c004:	dc000017 	ldw	r16,0(sp)
  80c008:	dec00604 	addi	sp,sp,24
  80c00c:	f800283a 	ret
  80c010:	29802204 	addi	r6,r5,136
  80c014:	00800044 	movi	r2,1
  80c018:	110e983a 	sll	r7,r2,r4
  80c01c:	30c04017 	ldw	r3,256(r6)
  80c020:	2105883a 	add	r2,r4,r4
  80c024:	1085883a 	add	r2,r2,r2
  80c028:	1185883a 	add	r2,r2,r6
  80c02c:	19c6b03a 	or	r3,r3,r7
  80c030:	14802015 	stw	r18,128(r2)
  80c034:	14c00015 	stw	r19,0(r2)
  80c038:	00800084 	movi	r2,2
  80c03c:	30c04015 	stw	r3,256(r6)
  80c040:	88bfe31e 	bne	r17,r2,80bfd0 <__register_exitproc+0x50>
  80c044:	30804117 	ldw	r2,260(r6)
  80c048:	11c4b03a 	or	r2,r2,r7
  80c04c:	30804115 	stw	r2,260(r6)
  80c050:	003fdf06 	br	80bfd0 <__register_exitproc+0x50>
  80c054:	008020b4 	movhi	r2,130
  80c058:	10ac3604 	addi	r2,r2,-20264
  80c05c:	100b883a 	mov	r5,r2
  80c060:	80805215 	stw	r2,328(r16)
  80c064:	003fd606 	br	80bfc0 <__register_exitproc+0x40>
  80c068:	00800034 	movhi	r2,0
  80c06c:	10800004 	addi	r2,r2,0
  80c070:	1000021e 	bne	r2,zero,80c07c <__register_exitproc+0xfc>
  80c074:	013fffc4 	movi	r4,-1
  80c078:	003fdc06 	br	80bfec <__register_exitproc+0x6c>
  80c07c:	01006404 	movi	r4,400
  80c080:	103ee83a 	callr	r2
  80c084:	1007883a 	mov	r3,r2
  80c088:	103ffa26 	beq	r2,zero,80c074 <__register_exitproc+0xf4>
  80c08c:	80805217 	ldw	r2,328(r16)
  80c090:	180b883a 	mov	r5,r3
  80c094:	18000115 	stw	zero,4(r3)
  80c098:	18800015 	stw	r2,0(r3)
  80c09c:	80c05215 	stw	r3,328(r16)
  80c0a0:	18006215 	stw	zero,392(r3)
  80c0a4:	18006315 	stw	zero,396(r3)
  80c0a8:	0009883a 	mov	r4,zero
  80c0ac:	883fc826 	beq	r17,zero,80bfd0 <__register_exitproc+0x50>
  80c0b0:	003fd706 	br	80c010 <__register_exitproc+0x90>

0080c0b4 <register_fini>:
  80c0b4:	f800283a 	ret

0080c0b8 <__call_exitprocs>:
  80c0b8:	00802074 	movhi	r2,129
  80c0bc:	10807b04 	addi	r2,r2,492
  80c0c0:	10800017 	ldw	r2,0(r2)
  80c0c4:	defff304 	addi	sp,sp,-52
  80c0c8:	df000b15 	stw	fp,44(sp)
  80c0cc:	d8800115 	stw	r2,4(sp)
  80c0d0:	00800034 	movhi	r2,0
  80c0d4:	10800004 	addi	r2,r2,0
  80c0d8:	1005003a 	cmpeq	r2,r2,zero
  80c0dc:	d8800215 	stw	r2,8(sp)
  80c0e0:	d8800117 	ldw	r2,4(sp)
  80c0e4:	dd400815 	stw	r21,32(sp)
  80c0e8:	dd000715 	stw	r20,28(sp)
  80c0ec:	10805204 	addi	r2,r2,328
  80c0f0:	dfc00c15 	stw	ra,48(sp)
  80c0f4:	ddc00a15 	stw	r23,40(sp)
  80c0f8:	dd800915 	stw	r22,36(sp)
  80c0fc:	dcc00615 	stw	r19,24(sp)
  80c100:	dc800515 	stw	r18,20(sp)
  80c104:	dc400415 	stw	r17,16(sp)
  80c108:	dc000315 	stw	r16,12(sp)
  80c10c:	282b883a 	mov	r21,r5
  80c110:	2039883a 	mov	fp,r4
  80c114:	d8800015 	stw	r2,0(sp)
  80c118:	2829003a 	cmpeq	r20,r5,zero
  80c11c:	d8800117 	ldw	r2,4(sp)
  80c120:	14405217 	ldw	r17,328(r2)
  80c124:	88001026 	beq	r17,zero,80c168 <__call_exitprocs+0xb0>
  80c128:	ddc00017 	ldw	r23,0(sp)
  80c12c:	88800117 	ldw	r2,4(r17)
  80c130:	8c802204 	addi	r18,r17,136
  80c134:	143fffc4 	addi	r16,r2,-1
  80c138:	80000916 	blt	r16,zero,80c160 <__call_exitprocs+0xa8>
  80c13c:	05bfffc4 	movi	r22,-1
  80c140:	a000151e 	bne	r20,zero,80c198 <__call_exitprocs+0xe0>
  80c144:	8409883a 	add	r4,r16,r16
  80c148:	2105883a 	add	r2,r4,r4
  80c14c:	1485883a 	add	r2,r2,r18
  80c150:	10c02017 	ldw	r3,128(r2)
  80c154:	a8c01126 	beq	r21,r3,80c19c <__call_exitprocs+0xe4>
  80c158:	843fffc4 	addi	r16,r16,-1
  80c15c:	85bff81e 	bne	r16,r22,80c140 <__call_exitprocs+0x88>
  80c160:	d8800217 	ldw	r2,8(sp)
  80c164:	10003126 	beq	r2,zero,80c22c <__call_exitprocs+0x174>
  80c168:	dfc00c17 	ldw	ra,48(sp)
  80c16c:	df000b17 	ldw	fp,44(sp)
  80c170:	ddc00a17 	ldw	r23,40(sp)
  80c174:	dd800917 	ldw	r22,36(sp)
  80c178:	dd400817 	ldw	r21,32(sp)
  80c17c:	dd000717 	ldw	r20,28(sp)
  80c180:	dcc00617 	ldw	r19,24(sp)
  80c184:	dc800517 	ldw	r18,20(sp)
  80c188:	dc400417 	ldw	r17,16(sp)
  80c18c:	dc000317 	ldw	r16,12(sp)
  80c190:	dec00d04 	addi	sp,sp,52
  80c194:	f800283a 	ret
  80c198:	8409883a 	add	r4,r16,r16
  80c19c:	88c00117 	ldw	r3,4(r17)
  80c1a0:	2105883a 	add	r2,r4,r4
  80c1a4:	1445883a 	add	r2,r2,r17
  80c1a8:	18ffffc4 	addi	r3,r3,-1
  80c1ac:	11800217 	ldw	r6,8(r2)
  80c1b0:	1c001526 	beq	r3,r16,80c208 <__call_exitprocs+0x150>
  80c1b4:	10000215 	stw	zero,8(r2)
  80c1b8:	303fe726 	beq	r6,zero,80c158 <__call_exitprocs+0xa0>
  80c1bc:	00c00044 	movi	r3,1
  80c1c0:	1c06983a 	sll	r3,r3,r16
  80c1c4:	90804017 	ldw	r2,256(r18)
  80c1c8:	8cc00117 	ldw	r19,4(r17)
  80c1cc:	1884703a 	and	r2,r3,r2
  80c1d0:	10001426 	beq	r2,zero,80c224 <__call_exitprocs+0x16c>
  80c1d4:	90804117 	ldw	r2,260(r18)
  80c1d8:	1884703a 	and	r2,r3,r2
  80c1dc:	10000c1e 	bne	r2,zero,80c210 <__call_exitprocs+0x158>
  80c1e0:	2105883a 	add	r2,r4,r4
  80c1e4:	1485883a 	add	r2,r2,r18
  80c1e8:	11400017 	ldw	r5,0(r2)
  80c1ec:	e009883a 	mov	r4,fp
  80c1f0:	303ee83a 	callr	r6
  80c1f4:	88800117 	ldw	r2,4(r17)
  80c1f8:	98bfc81e 	bne	r19,r2,80c11c <__call_exitprocs+0x64>
  80c1fc:	b8800017 	ldw	r2,0(r23)
  80c200:	147fd526 	beq	r2,r17,80c158 <__call_exitprocs+0xa0>
  80c204:	003fc506 	br	80c11c <__call_exitprocs+0x64>
  80c208:	8c000115 	stw	r16,4(r17)
  80c20c:	003fea06 	br	80c1b8 <__call_exitprocs+0x100>
  80c210:	2105883a 	add	r2,r4,r4
  80c214:	1485883a 	add	r2,r2,r18
  80c218:	11000017 	ldw	r4,0(r2)
  80c21c:	303ee83a 	callr	r6
  80c220:	003ff406 	br	80c1f4 <__call_exitprocs+0x13c>
  80c224:	303ee83a 	callr	r6
  80c228:	003ff206 	br	80c1f4 <__call_exitprocs+0x13c>
  80c22c:	88800117 	ldw	r2,4(r17)
  80c230:	1000081e 	bne	r2,zero,80c254 <__call_exitprocs+0x19c>
  80c234:	89000017 	ldw	r4,0(r17)
  80c238:	20000726 	beq	r4,zero,80c258 <__call_exitprocs+0x1a0>
  80c23c:	b9000015 	stw	r4,0(r23)
  80c240:	8809883a 	mov	r4,r17
  80c244:	00000000 	call	0 <OSTCBStkPtr_OFFSET>
  80c248:	bc400017 	ldw	r17,0(r23)
  80c24c:	883fb71e 	bne	r17,zero,80c12c <__call_exitprocs+0x74>
  80c250:	003fc506 	br	80c168 <__call_exitprocs+0xb0>
  80c254:	89000017 	ldw	r4,0(r17)
  80c258:	882f883a 	mov	r23,r17
  80c25c:	2023883a 	mov	r17,r4
  80c260:	883fb21e 	bne	r17,zero,80c12c <__call_exitprocs+0x74>
  80c264:	003fc006 	br	80c168 <__call_exitprocs+0xb0>

0080c268 <_fflush_r>:
  80c268:	defffb04 	addi	sp,sp,-20
  80c26c:	dcc00315 	stw	r19,12(sp)
  80c270:	dc800215 	stw	r18,8(sp)
  80c274:	dfc00415 	stw	ra,16(sp)
  80c278:	dc400115 	stw	r17,4(sp)
  80c27c:	dc000015 	stw	r16,0(sp)
  80c280:	2027883a 	mov	r19,r4
  80c284:	2825883a 	mov	r18,r5
  80c288:	20000226 	beq	r4,zero,80c294 <_fflush_r+0x2c>
  80c28c:	20800e17 	ldw	r2,56(r4)
  80c290:	10005626 	beq	r2,zero,80c3ec <_fflush_r+0x184>
  80c294:	9100030b 	ldhu	r4,12(r18)
  80c298:	20ffffcc 	andi	r3,r4,65535
  80c29c:	18e0001c 	xori	r3,r3,32768
  80c2a0:	18e00004 	addi	r3,r3,-32768
  80c2a4:	1880020c 	andi	r2,r3,8
  80c2a8:	1000261e 	bne	r2,zero,80c344 <_fflush_r+0xdc>
  80c2ac:	90c00117 	ldw	r3,4(r18)
  80c2b0:	20820014 	ori	r2,r4,2048
  80c2b4:	9080030d 	sth	r2,12(r18)
  80c2b8:	1009883a 	mov	r4,r2
  80c2bc:	00c0400e 	bge	zero,r3,80c3c0 <_fflush_r+0x158>
  80c2c0:	92000a17 	ldw	r8,40(r18)
  80c2c4:	40004026 	beq	r8,zero,80c3c8 <_fflush_r+0x160>
  80c2c8:	2084000c 	andi	r2,r4,4096
  80c2cc:	10005326 	beq	r2,zero,80c41c <_fflush_r+0x1b4>
  80c2d0:	94001417 	ldw	r16,80(r18)
  80c2d4:	9080030b 	ldhu	r2,12(r18)
  80c2d8:	1080010c 	andi	r2,r2,4
  80c2dc:	1000481e 	bne	r2,zero,80c400 <_fflush_r+0x198>
  80c2e0:	91400717 	ldw	r5,28(r18)
  80c2e4:	9809883a 	mov	r4,r19
  80c2e8:	800d883a 	mov	r6,r16
  80c2ec:	000f883a 	mov	r7,zero
  80c2f0:	403ee83a 	callr	r8
  80c2f4:	8080261e 	bne	r16,r2,80c390 <_fflush_r+0x128>
  80c2f8:	9080030b 	ldhu	r2,12(r18)
  80c2fc:	91000417 	ldw	r4,16(r18)
  80c300:	90000115 	stw	zero,4(r18)
  80c304:	10bdffcc 	andi	r2,r2,63487
  80c308:	10ffffcc 	andi	r3,r2,65535
  80c30c:	18c4000c 	andi	r3,r3,4096
  80c310:	9080030d 	sth	r2,12(r18)
  80c314:	91000015 	stw	r4,0(r18)
  80c318:	18002b26 	beq	r3,zero,80c3c8 <_fflush_r+0x160>
  80c31c:	0007883a 	mov	r3,zero
  80c320:	1805883a 	mov	r2,r3
  80c324:	94001415 	stw	r16,80(r18)
  80c328:	dfc00417 	ldw	ra,16(sp)
  80c32c:	dcc00317 	ldw	r19,12(sp)
  80c330:	dc800217 	ldw	r18,8(sp)
  80c334:	dc400117 	ldw	r17,4(sp)
  80c338:	dc000017 	ldw	r16,0(sp)
  80c33c:	dec00504 	addi	sp,sp,20
  80c340:	f800283a 	ret
  80c344:	94400417 	ldw	r17,16(r18)
  80c348:	88001f26 	beq	r17,zero,80c3c8 <_fflush_r+0x160>
  80c34c:	90800017 	ldw	r2,0(r18)
  80c350:	18c000cc 	andi	r3,r3,3
  80c354:	94400015 	stw	r17,0(r18)
  80c358:	1461c83a 	sub	r16,r2,r17
  80c35c:	18002526 	beq	r3,zero,80c3f4 <_fflush_r+0x18c>
  80c360:	0005883a 	mov	r2,zero
  80c364:	90800215 	stw	r2,8(r18)
  80c368:	0400170e 	bge	zero,r16,80c3c8 <_fflush_r+0x160>
  80c36c:	90c00917 	ldw	r3,36(r18)
  80c370:	91400717 	ldw	r5,28(r18)
  80c374:	880d883a 	mov	r6,r17
  80c378:	800f883a 	mov	r7,r16
  80c37c:	9809883a 	mov	r4,r19
  80c380:	183ee83a 	callr	r3
  80c384:	88a3883a 	add	r17,r17,r2
  80c388:	80a1c83a 	sub	r16,r16,r2
  80c38c:	00bff616 	blt	zero,r2,80c368 <_fflush_r+0x100>
  80c390:	9080030b 	ldhu	r2,12(r18)
  80c394:	00ffffc4 	movi	r3,-1
  80c398:	10801014 	ori	r2,r2,64
  80c39c:	9080030d 	sth	r2,12(r18)
  80c3a0:	1805883a 	mov	r2,r3
  80c3a4:	dfc00417 	ldw	ra,16(sp)
  80c3a8:	dcc00317 	ldw	r19,12(sp)
  80c3ac:	dc800217 	ldw	r18,8(sp)
  80c3b0:	dc400117 	ldw	r17,4(sp)
  80c3b4:	dc000017 	ldw	r16,0(sp)
  80c3b8:	dec00504 	addi	sp,sp,20
  80c3bc:	f800283a 	ret
  80c3c0:	90800f17 	ldw	r2,60(r18)
  80c3c4:	00bfbe16 	blt	zero,r2,80c2c0 <_fflush_r+0x58>
  80c3c8:	0007883a 	mov	r3,zero
  80c3cc:	1805883a 	mov	r2,r3
  80c3d0:	dfc00417 	ldw	ra,16(sp)
  80c3d4:	dcc00317 	ldw	r19,12(sp)
  80c3d8:	dc800217 	ldw	r18,8(sp)
  80c3dc:	dc400117 	ldw	r17,4(sp)
  80c3e0:	dc000017 	ldw	r16,0(sp)
  80c3e4:	dec00504 	addi	sp,sp,20
  80c3e8:	f800283a 	ret
  80c3ec:	080c5000 	call	80c500 <__sinit>
  80c3f0:	003fa806 	br	80c294 <_fflush_r+0x2c>
  80c3f4:	90800517 	ldw	r2,20(r18)
  80c3f8:	90800215 	stw	r2,8(r18)
  80c3fc:	003fda06 	br	80c368 <_fflush_r+0x100>
  80c400:	90800117 	ldw	r2,4(r18)
  80c404:	90c00c17 	ldw	r3,48(r18)
  80c408:	80a1c83a 	sub	r16,r16,r2
  80c40c:	183fb426 	beq	r3,zero,80c2e0 <_fflush_r+0x78>
  80c410:	90800f17 	ldw	r2,60(r18)
  80c414:	80a1c83a 	sub	r16,r16,r2
  80c418:	003fb106 	br	80c2e0 <_fflush_r+0x78>
  80c41c:	91400717 	ldw	r5,28(r18)
  80c420:	9809883a 	mov	r4,r19
  80c424:	000d883a 	mov	r6,zero
  80c428:	01c00044 	movi	r7,1
  80c42c:	403ee83a 	callr	r8
  80c430:	1021883a 	mov	r16,r2
  80c434:	00bfffc4 	movi	r2,-1
  80c438:	80800226 	beq	r16,r2,80c444 <_fflush_r+0x1dc>
  80c43c:	92000a17 	ldw	r8,40(r18)
  80c440:	003fa406 	br	80c2d4 <_fflush_r+0x6c>
  80c444:	98c00017 	ldw	r3,0(r19)
  80c448:	00800744 	movi	r2,29
  80c44c:	18bfde26 	beq	r3,r2,80c3c8 <_fflush_r+0x160>
  80c450:	9080030b 	ldhu	r2,12(r18)
  80c454:	8007883a 	mov	r3,r16
  80c458:	10801014 	ori	r2,r2,64
  80c45c:	9080030d 	sth	r2,12(r18)
  80c460:	003fcf06 	br	80c3a0 <_fflush_r+0x138>

0080c464 <fflush>:
  80c464:	01402074 	movhi	r5,129
  80c468:	29709a04 	addi	r5,r5,-15768
  80c46c:	2007883a 	mov	r3,r4
  80c470:	20000526 	beq	r4,zero,80c488 <fflush+0x24>
  80c474:	00802074 	movhi	r2,129
  80c478:	10807a04 	addi	r2,r2,488
  80c47c:	11000017 	ldw	r4,0(r2)
  80c480:	180b883a 	mov	r5,r3
  80c484:	080c2681 	jmpi	80c268 <_fflush_r>
  80c488:	00802074 	movhi	r2,129
  80c48c:	10807b04 	addi	r2,r2,492
  80c490:	11000017 	ldw	r4,0(r2)
  80c494:	080cbcc1 	jmpi	80cbcc <_fwalk_reent>

0080c498 <std>:
  80c498:	00802074 	movhi	r2,129
  80c49c:	10b5a404 	addi	r2,r2,-10608
  80c4a0:	20800b15 	stw	r2,44(r4)
  80c4a4:	00802074 	movhi	r2,129
  80c4a8:	10b5df04 	addi	r2,r2,-10372
  80c4ac:	20800815 	stw	r2,32(r4)
  80c4b0:	00c02074 	movhi	r3,129
  80c4b4:	18f5c004 	addi	r3,r3,-10496
  80c4b8:	00802074 	movhi	r2,129
  80c4bc:	10b5a604 	addi	r2,r2,-10600
  80c4c0:	2140030d 	sth	r5,12(r4)
  80c4c4:	2180038d 	sth	r6,14(r4)
  80c4c8:	20c00915 	stw	r3,36(r4)
  80c4cc:	20800a15 	stw	r2,40(r4)
  80c4d0:	20000015 	stw	zero,0(r4)
  80c4d4:	20000115 	stw	zero,4(r4)
  80c4d8:	20000215 	stw	zero,8(r4)
  80c4dc:	20000415 	stw	zero,16(r4)
  80c4e0:	20000515 	stw	zero,20(r4)
  80c4e4:	20000615 	stw	zero,24(r4)
  80c4e8:	21000715 	stw	r4,28(r4)
  80c4ec:	f800283a 	ret

0080c4f0 <__sfp_lock_acquire>:
  80c4f0:	f800283a 	ret

0080c4f4 <__sfp_lock_release>:
  80c4f4:	f800283a 	ret

0080c4f8 <__sinit_lock_acquire>:
  80c4f8:	f800283a 	ret

0080c4fc <__sinit_lock_release>:
  80c4fc:	f800283a 	ret

0080c500 <__sinit>:
  80c500:	20800e17 	ldw	r2,56(r4)
  80c504:	defffd04 	addi	sp,sp,-12
  80c508:	dc400115 	stw	r17,4(sp)
  80c50c:	dc000015 	stw	r16,0(sp)
  80c510:	dfc00215 	stw	ra,8(sp)
  80c514:	04400044 	movi	r17,1
  80c518:	01400104 	movi	r5,4
  80c51c:	000d883a 	mov	r6,zero
  80c520:	2021883a 	mov	r16,r4
  80c524:	2200bb04 	addi	r8,r4,748
  80c528:	200f883a 	mov	r7,r4
  80c52c:	10000526 	beq	r2,zero,80c544 <__sinit+0x44>
  80c530:	dfc00217 	ldw	ra,8(sp)
  80c534:	dc400117 	ldw	r17,4(sp)
  80c538:	dc000017 	ldw	r16,0(sp)
  80c53c:	dec00304 	addi	sp,sp,12
  80c540:	f800283a 	ret
  80c544:	21000117 	ldw	r4,4(r4)
  80c548:	00802074 	movhi	r2,129
  80c54c:	10b17904 	addi	r2,r2,-14876
  80c550:	00c000c4 	movi	r3,3
  80c554:	80800f15 	stw	r2,60(r16)
  80c558:	80c0b915 	stw	r3,740(r16)
  80c55c:	8200ba15 	stw	r8,744(r16)
  80c560:	84400e15 	stw	r17,56(r16)
  80c564:	8000b815 	stw	zero,736(r16)
  80c568:	080c4980 	call	80c498 <std>
  80c56c:	81000217 	ldw	r4,8(r16)
  80c570:	880d883a 	mov	r6,r17
  80c574:	800f883a 	mov	r7,r16
  80c578:	01400284 	movi	r5,10
  80c57c:	080c4980 	call	80c498 <std>
  80c580:	81000317 	ldw	r4,12(r16)
  80c584:	800f883a 	mov	r7,r16
  80c588:	01400484 	movi	r5,18
  80c58c:	01800084 	movi	r6,2
  80c590:	dfc00217 	ldw	ra,8(sp)
  80c594:	dc400117 	ldw	r17,4(sp)
  80c598:	dc000017 	ldw	r16,0(sp)
  80c59c:	dec00304 	addi	sp,sp,12
  80c5a0:	080c4981 	jmpi	80c498 <std>

0080c5a4 <__fp_lock>:
  80c5a4:	0005883a 	mov	r2,zero
  80c5a8:	f800283a 	ret

0080c5ac <__fp_unlock>:
  80c5ac:	0005883a 	mov	r2,zero
  80c5b0:	f800283a 	ret

0080c5b4 <__fp_unlock_all>:
  80c5b4:	00802074 	movhi	r2,129
  80c5b8:	10807a04 	addi	r2,r2,488
  80c5bc:	11000017 	ldw	r4,0(r2)
  80c5c0:	01402074 	movhi	r5,129
  80c5c4:	29716b04 	addi	r5,r5,-14932
  80c5c8:	080cc941 	jmpi	80cc94 <_fwalk>

0080c5cc <__fp_lock_all>:
  80c5cc:	00802074 	movhi	r2,129
  80c5d0:	10807a04 	addi	r2,r2,488
  80c5d4:	11000017 	ldw	r4,0(r2)
  80c5d8:	01402074 	movhi	r5,129
  80c5dc:	29716904 	addi	r5,r5,-14940
  80c5e0:	080cc941 	jmpi	80cc94 <_fwalk>

0080c5e4 <_cleanup_r>:
  80c5e4:	01402074 	movhi	r5,129
  80c5e8:	29767504 	addi	r5,r5,-9772
  80c5ec:	080cc941 	jmpi	80cc94 <_fwalk>

0080c5f0 <_cleanup>:
  80c5f0:	00802074 	movhi	r2,129
  80c5f4:	10807b04 	addi	r2,r2,492
  80c5f8:	11000017 	ldw	r4,0(r2)
  80c5fc:	080c5e41 	jmpi	80c5e4 <_cleanup_r>

0080c600 <__sfmoreglue>:
  80c600:	defffc04 	addi	sp,sp,-16
  80c604:	dc000015 	stw	r16,0(sp)
  80c608:	2821883a 	mov	r16,r5
  80c60c:	dc400115 	stw	r17,4(sp)
  80c610:	01401704 	movi	r5,92
  80c614:	2023883a 	mov	r17,r4
  80c618:	8009883a 	mov	r4,r16
  80c61c:	dfc00315 	stw	ra,12(sp)
  80c620:	dcc00215 	stw	r19,8(sp)
  80c624:	080dd080 	call	80dd08 <__mulsi3>
  80c628:	11400304 	addi	r5,r2,12
  80c62c:	8809883a 	mov	r4,r17
  80c630:	1027883a 	mov	r19,r2
  80c634:	080cee00 	call	80cee0 <_malloc_r>
  80c638:	10c00304 	addi	r3,r2,12
  80c63c:	1023883a 	mov	r17,r2
  80c640:	1809883a 	mov	r4,r3
  80c644:	980d883a 	mov	r6,r19
  80c648:	000b883a 	mov	r5,zero
  80c64c:	10000b26 	beq	r2,zero,80c67c <__sfmoreglue+0x7c>
  80c650:	14000115 	stw	r16,4(r2)
  80c654:	10c00215 	stw	r3,8(r2)
  80c658:	10000015 	stw	zero,0(r2)
  80c65c:	080ba000 	call	80ba00 <memset>
  80c660:	8805883a 	mov	r2,r17
  80c664:	dfc00317 	ldw	ra,12(sp)
  80c668:	dcc00217 	ldw	r19,8(sp)
  80c66c:	dc400117 	ldw	r17,4(sp)
  80c670:	dc000017 	ldw	r16,0(sp)
  80c674:	dec00404 	addi	sp,sp,16
  80c678:	f800283a 	ret
  80c67c:	0023883a 	mov	r17,zero
  80c680:	8805883a 	mov	r2,r17
  80c684:	dfc00317 	ldw	ra,12(sp)
  80c688:	dcc00217 	ldw	r19,8(sp)
  80c68c:	dc400117 	ldw	r17,4(sp)
  80c690:	dc000017 	ldw	r16,0(sp)
  80c694:	dec00404 	addi	sp,sp,16
  80c698:	f800283a 	ret

0080c69c <__sfp>:
  80c69c:	defffd04 	addi	sp,sp,-12
  80c6a0:	00802074 	movhi	r2,129
  80c6a4:	10807b04 	addi	r2,r2,492
  80c6a8:	dc000015 	stw	r16,0(sp)
  80c6ac:	14000017 	ldw	r16,0(r2)
  80c6b0:	dc400115 	stw	r17,4(sp)
  80c6b4:	dfc00215 	stw	ra,8(sp)
  80c6b8:	80800e17 	ldw	r2,56(r16)
  80c6bc:	2023883a 	mov	r17,r4
  80c6c0:	10002626 	beq	r2,zero,80c75c <__sfp+0xc0>
  80c6c4:	8400b804 	addi	r16,r16,736
  80c6c8:	80800117 	ldw	r2,4(r16)
  80c6cc:	81000217 	ldw	r4,8(r16)
  80c6d0:	10ffffc4 	addi	r3,r2,-1
  80c6d4:	18000916 	blt	r3,zero,80c6fc <__sfp+0x60>
  80c6d8:	2080030f 	ldh	r2,12(r4)
  80c6dc:	10000b26 	beq	r2,zero,80c70c <__sfp+0x70>
  80c6e0:	017fffc4 	movi	r5,-1
  80c6e4:	00000206 	br	80c6f0 <__sfp+0x54>
  80c6e8:	2080030f 	ldh	r2,12(r4)
  80c6ec:	10000726 	beq	r2,zero,80c70c <__sfp+0x70>
  80c6f0:	18ffffc4 	addi	r3,r3,-1
  80c6f4:	21001704 	addi	r4,r4,92
  80c6f8:	197ffb1e 	bne	r3,r5,80c6e8 <__sfp+0x4c>
  80c6fc:	80800017 	ldw	r2,0(r16)
  80c700:	10001926 	beq	r2,zero,80c768 <__sfp+0xcc>
  80c704:	1021883a 	mov	r16,r2
  80c708:	003fef06 	br	80c6c8 <__sfp+0x2c>
  80c70c:	00bfffc4 	movi	r2,-1
  80c710:	00c00044 	movi	r3,1
  80c714:	2080038d 	sth	r2,14(r4)
  80c718:	20c0030d 	sth	r3,12(r4)
  80c71c:	20000015 	stw	zero,0(r4)
  80c720:	20000215 	stw	zero,8(r4)
  80c724:	20000115 	stw	zero,4(r4)
  80c728:	20000415 	stw	zero,16(r4)
  80c72c:	20000515 	stw	zero,20(r4)
  80c730:	20000615 	stw	zero,24(r4)
  80c734:	20000c15 	stw	zero,48(r4)
  80c738:	20000d15 	stw	zero,52(r4)
  80c73c:	20001115 	stw	zero,68(r4)
  80c740:	20001215 	stw	zero,72(r4)
  80c744:	2005883a 	mov	r2,r4
  80c748:	dfc00217 	ldw	ra,8(sp)
  80c74c:	dc400117 	ldw	r17,4(sp)
  80c750:	dc000017 	ldw	r16,0(sp)
  80c754:	dec00304 	addi	sp,sp,12
  80c758:	f800283a 	ret
  80c75c:	8009883a 	mov	r4,r16
  80c760:	080c5000 	call	80c500 <__sinit>
  80c764:	003fd706 	br	80c6c4 <__sfp+0x28>
  80c768:	8809883a 	mov	r4,r17
  80c76c:	01400104 	movi	r5,4
  80c770:	080c6000 	call	80c600 <__sfmoreglue>
  80c774:	80800015 	stw	r2,0(r16)
  80c778:	103fe21e 	bne	r2,zero,80c704 <__sfp+0x68>
  80c77c:	00800304 	movi	r2,12
  80c780:	0009883a 	mov	r4,zero
  80c784:	88800015 	stw	r2,0(r17)
  80c788:	003fee06 	br	80c744 <__sfp+0xa8>

0080c78c <_malloc_trim_r>:
  80c78c:	defffb04 	addi	sp,sp,-20
  80c790:	dcc00315 	stw	r19,12(sp)
  80c794:	04c02074 	movhi	r19,129
  80c798:	9cff5004 	addi	r19,r19,-704
  80c79c:	dc800215 	stw	r18,8(sp)
  80c7a0:	dc400115 	stw	r17,4(sp)
  80c7a4:	dc000015 	stw	r16,0(sp)
  80c7a8:	2823883a 	mov	r17,r5
  80c7ac:	2025883a 	mov	r18,r4
  80c7b0:	dfc00415 	stw	ra,16(sp)
  80c7b4:	080099c0 	call	80099c <__malloc_lock>
  80c7b8:	98800217 	ldw	r2,8(r19)
  80c7bc:	9009883a 	mov	r4,r18
  80c7c0:	000b883a 	mov	r5,zero
  80c7c4:	10c00117 	ldw	r3,4(r2)
  80c7c8:	00bfff04 	movi	r2,-4
  80c7cc:	18a0703a 	and	r16,r3,r2
  80c7d0:	8463c83a 	sub	r17,r16,r17
  80c7d4:	8c43fbc4 	addi	r17,r17,4079
  80c7d8:	8822d33a 	srli	r17,r17,12
  80c7dc:	0083ffc4 	movi	r2,4095
  80c7e0:	8c7fffc4 	addi	r17,r17,-1
  80c7e4:	8822933a 	slli	r17,r17,12
  80c7e8:	1440060e 	bge	r2,r17,80c804 <_malloc_trim_r+0x78>
  80c7ec:	080d6200 	call	80d620 <_sbrk_r>
  80c7f0:	98c00217 	ldw	r3,8(r19)
  80c7f4:	9009883a 	mov	r4,r18
  80c7f8:	044bc83a 	sub	r5,zero,r17
  80c7fc:	80c7883a 	add	r3,r16,r3
  80c800:	10c00926 	beq	r2,r3,80c828 <_malloc_trim_r+0x9c>
  80c804:	0800aa40 	call	800aa4 <__malloc_unlock>
  80c808:	0005883a 	mov	r2,zero
  80c80c:	dfc00417 	ldw	ra,16(sp)
  80c810:	dcc00317 	ldw	r19,12(sp)
  80c814:	dc800217 	ldw	r18,8(sp)
  80c818:	dc400117 	ldw	r17,4(sp)
  80c81c:	dc000017 	ldw	r16,0(sp)
  80c820:	dec00504 	addi	sp,sp,20
  80c824:	f800283a 	ret
  80c828:	9009883a 	mov	r4,r18
  80c82c:	080d6200 	call	80d620 <_sbrk_r>
  80c830:	844dc83a 	sub	r6,r16,r17
  80c834:	00ffffc4 	movi	r3,-1
  80c838:	9009883a 	mov	r4,r18
  80c83c:	000b883a 	mov	r5,zero
  80c840:	01c02074 	movhi	r7,129
  80c844:	39c76304 	addi	r7,r7,7564
  80c848:	31800054 	ori	r6,r6,1
  80c84c:	10c00926 	beq	r2,r3,80c874 <_malloc_trim_r+0xe8>
  80c850:	38800017 	ldw	r2,0(r7)
  80c854:	98c00217 	ldw	r3,8(r19)
  80c858:	9009883a 	mov	r4,r18
  80c85c:	1445c83a 	sub	r2,r2,r17
  80c860:	38800015 	stw	r2,0(r7)
  80c864:	19800115 	stw	r6,4(r3)
  80c868:	0800aa40 	call	800aa4 <__malloc_unlock>
  80c86c:	00800044 	movi	r2,1
  80c870:	003fe606 	br	80c80c <_malloc_trim_r+0x80>
  80c874:	080d6200 	call	80d620 <_sbrk_r>
  80c878:	99800217 	ldw	r6,8(r19)
  80c87c:	100f883a 	mov	r7,r2
  80c880:	9009883a 	mov	r4,r18
  80c884:	1187c83a 	sub	r3,r2,r6
  80c888:	008003c4 	movi	r2,15
  80c88c:	19400054 	ori	r5,r3,1
  80c890:	10ffdc0e 	bge	r2,r3,80c804 <_malloc_trim_r+0x78>
  80c894:	00802074 	movhi	r2,129
  80c898:	10807d04 	addi	r2,r2,500
  80c89c:	10c00017 	ldw	r3,0(r2)
  80c8a0:	00802074 	movhi	r2,129
  80c8a4:	10876304 	addi	r2,r2,7564
  80c8a8:	31400115 	stw	r5,4(r6)
  80c8ac:	38c7c83a 	sub	r3,r7,r3
  80c8b0:	10c00015 	stw	r3,0(r2)
  80c8b4:	003fd306 	br	80c804 <_malloc_trim_r+0x78>

0080c8b8 <_free_r>:
  80c8b8:	defffd04 	addi	sp,sp,-12
  80c8bc:	dc400115 	stw	r17,4(sp)
  80c8c0:	dc000015 	stw	r16,0(sp)
  80c8c4:	dfc00215 	stw	ra,8(sp)
  80c8c8:	2821883a 	mov	r16,r5
  80c8cc:	2023883a 	mov	r17,r4
  80c8d0:	28005a26 	beq	r5,zero,80ca3c <_free_r+0x184>
  80c8d4:	080099c0 	call	80099c <__malloc_lock>
  80c8d8:	823ffe04 	addi	r8,r16,-8
  80c8dc:	41400117 	ldw	r5,4(r8)
  80c8e0:	00bfff84 	movi	r2,-2
  80c8e4:	02802074 	movhi	r10,129
  80c8e8:	52bf5004 	addi	r10,r10,-704
  80c8ec:	288e703a 	and	r7,r5,r2
  80c8f0:	41cd883a 	add	r6,r8,r7
  80c8f4:	30c00117 	ldw	r3,4(r6)
  80c8f8:	51000217 	ldw	r4,8(r10)
  80c8fc:	00bfff04 	movi	r2,-4
  80c900:	1892703a 	and	r9,r3,r2
  80c904:	5017883a 	mov	r11,r10
  80c908:	31006726 	beq	r6,r4,80caa8 <_free_r+0x1f0>
  80c90c:	2880004c 	andi	r2,r5,1
  80c910:	1005003a 	cmpeq	r2,r2,zero
  80c914:	32400115 	stw	r9,4(r6)
  80c918:	10001a1e 	bne	r2,zero,80c984 <_free_r+0xcc>
  80c91c:	000b883a 	mov	r5,zero
  80c920:	3247883a 	add	r3,r6,r9
  80c924:	18800117 	ldw	r2,4(r3)
  80c928:	1080004c 	andi	r2,r2,1
  80c92c:	1000231e 	bne	r2,zero,80c9bc <_free_r+0x104>
  80c930:	280ac03a 	cmpne	r5,r5,zero
  80c934:	3a4f883a 	add	r7,r7,r9
  80c938:	2800451e 	bne	r5,zero,80ca50 <_free_r+0x198>
  80c93c:	31000217 	ldw	r4,8(r6)
  80c940:	00802074 	movhi	r2,129
  80c944:	10bf5204 	addi	r2,r2,-696
  80c948:	20807b26 	beq	r4,r2,80cb38 <_free_r+0x280>
  80c94c:	30800317 	ldw	r2,12(r6)
  80c950:	3a07883a 	add	r3,r7,r8
  80c954:	19c00015 	stw	r7,0(r3)
  80c958:	11000215 	stw	r4,8(r2)
  80c95c:	20800315 	stw	r2,12(r4)
  80c960:	38800054 	ori	r2,r7,1
  80c964:	40800115 	stw	r2,4(r8)
  80c968:	28001a26 	beq	r5,zero,80c9d4 <_free_r+0x11c>
  80c96c:	8809883a 	mov	r4,r17
  80c970:	dfc00217 	ldw	ra,8(sp)
  80c974:	dc400117 	ldw	r17,4(sp)
  80c978:	dc000017 	ldw	r16,0(sp)
  80c97c:	dec00304 	addi	sp,sp,12
  80c980:	0800aa41 	jmpi	800aa4 <__malloc_unlock>
  80c984:	80bffe17 	ldw	r2,-8(r16)
  80c988:	50c00204 	addi	r3,r10,8
  80c98c:	4091c83a 	sub	r8,r8,r2
  80c990:	41000217 	ldw	r4,8(r8)
  80c994:	388f883a 	add	r7,r7,r2
  80c998:	20c06126 	beq	r4,r3,80cb20 <_free_r+0x268>
  80c99c:	40800317 	ldw	r2,12(r8)
  80c9a0:	3247883a 	add	r3,r6,r9
  80c9a4:	000b883a 	mov	r5,zero
  80c9a8:	11000215 	stw	r4,8(r2)
  80c9ac:	20800315 	stw	r2,12(r4)
  80c9b0:	18800117 	ldw	r2,4(r3)
  80c9b4:	1080004c 	andi	r2,r2,1
  80c9b8:	103fdd26 	beq	r2,zero,80c930 <_free_r+0x78>
  80c9bc:	38800054 	ori	r2,r7,1
  80c9c0:	3a07883a 	add	r3,r7,r8
  80c9c4:	280ac03a 	cmpne	r5,r5,zero
  80c9c8:	40800115 	stw	r2,4(r8)
  80c9cc:	19c00015 	stw	r7,0(r3)
  80c9d0:	283fe61e 	bne	r5,zero,80c96c <_free_r+0xb4>
  80c9d4:	00807fc4 	movi	r2,511
  80c9d8:	11c01f2e 	bgeu	r2,r7,80ca58 <_free_r+0x1a0>
  80c9dc:	3806d27a 	srli	r3,r7,9
  80c9e0:	1800481e 	bne	r3,zero,80cb04 <_free_r+0x24c>
  80c9e4:	3804d0fa 	srli	r2,r7,3
  80c9e8:	100690fa 	slli	r3,r2,3
  80c9ec:	1acd883a 	add	r6,r3,r11
  80c9f0:	31400217 	ldw	r5,8(r6)
  80c9f4:	31405926 	beq	r6,r5,80cb5c <_free_r+0x2a4>
  80c9f8:	28800117 	ldw	r2,4(r5)
  80c9fc:	00ffff04 	movi	r3,-4
  80ca00:	10c4703a 	and	r2,r2,r3
  80ca04:	3880022e 	bgeu	r7,r2,80ca10 <_free_r+0x158>
  80ca08:	29400217 	ldw	r5,8(r5)
  80ca0c:	317ffa1e 	bne	r6,r5,80c9f8 <_free_r+0x140>
  80ca10:	29800317 	ldw	r6,12(r5)
  80ca14:	41800315 	stw	r6,12(r8)
  80ca18:	41400215 	stw	r5,8(r8)
  80ca1c:	8809883a 	mov	r4,r17
  80ca20:	2a000315 	stw	r8,12(r5)
  80ca24:	32000215 	stw	r8,8(r6)
  80ca28:	dfc00217 	ldw	ra,8(sp)
  80ca2c:	dc400117 	ldw	r17,4(sp)
  80ca30:	dc000017 	ldw	r16,0(sp)
  80ca34:	dec00304 	addi	sp,sp,12
  80ca38:	0800aa41 	jmpi	800aa4 <__malloc_unlock>
  80ca3c:	dfc00217 	ldw	ra,8(sp)
  80ca40:	dc400117 	ldw	r17,4(sp)
  80ca44:	dc000017 	ldw	r16,0(sp)
  80ca48:	dec00304 	addi	sp,sp,12
  80ca4c:	f800283a 	ret
  80ca50:	31000217 	ldw	r4,8(r6)
  80ca54:	003fbd06 	br	80c94c <_free_r+0x94>
  80ca58:	3806d0fa 	srli	r3,r7,3
  80ca5c:	00800044 	movi	r2,1
  80ca60:	51400117 	ldw	r5,4(r10)
  80ca64:	180890fa 	slli	r4,r3,3
  80ca68:	1807d0ba 	srai	r3,r3,2
  80ca6c:	22c9883a 	add	r4,r4,r11
  80ca70:	21800217 	ldw	r6,8(r4)
  80ca74:	10c4983a 	sll	r2,r2,r3
  80ca78:	41000315 	stw	r4,12(r8)
  80ca7c:	41800215 	stw	r6,8(r8)
  80ca80:	288ab03a 	or	r5,r5,r2
  80ca84:	22000215 	stw	r8,8(r4)
  80ca88:	8809883a 	mov	r4,r17
  80ca8c:	51400115 	stw	r5,4(r10)
  80ca90:	32000315 	stw	r8,12(r6)
  80ca94:	dfc00217 	ldw	ra,8(sp)
  80ca98:	dc400117 	ldw	r17,4(sp)
  80ca9c:	dc000017 	ldw	r16,0(sp)
  80caa0:	dec00304 	addi	sp,sp,12
  80caa4:	0800aa41 	jmpi	800aa4 <__malloc_unlock>
  80caa8:	2880004c 	andi	r2,r5,1
  80caac:	3a4d883a 	add	r6,r7,r9
  80cab0:	1000071e 	bne	r2,zero,80cad0 <_free_r+0x218>
  80cab4:	80bffe17 	ldw	r2,-8(r16)
  80cab8:	4091c83a 	sub	r8,r8,r2
  80cabc:	41000317 	ldw	r4,12(r8)
  80cac0:	40c00217 	ldw	r3,8(r8)
  80cac4:	308d883a 	add	r6,r6,r2
  80cac8:	20c00215 	stw	r3,8(r4)
  80cacc:	19000315 	stw	r4,12(r3)
  80cad0:	00802074 	movhi	r2,129
  80cad4:	10807c04 	addi	r2,r2,496
  80cad8:	11000017 	ldw	r4,0(r2)
  80cadc:	30c00054 	ori	r3,r6,1
  80cae0:	52000215 	stw	r8,8(r10)
  80cae4:	40c00115 	stw	r3,4(r8)
  80cae8:	313fa036 	bltu	r6,r4,80c96c <_free_r+0xb4>
  80caec:	00802074 	movhi	r2,129
  80caf0:	10876004 	addi	r2,r2,7552
  80caf4:	11400017 	ldw	r5,0(r2)
  80caf8:	8809883a 	mov	r4,r17
  80cafc:	080c78c0 	call	80c78c <_malloc_trim_r>
  80cb00:	003f9a06 	br	80c96c <_free_r+0xb4>
  80cb04:	00800104 	movi	r2,4
  80cb08:	10c0072e 	bgeu	r2,r3,80cb28 <_free_r+0x270>
  80cb0c:	00800504 	movi	r2,20
  80cb10:	10c01936 	bltu	r2,r3,80cb78 <_free_r+0x2c0>
  80cb14:	188016c4 	addi	r2,r3,91
  80cb18:	100690fa 	slli	r3,r2,3
  80cb1c:	003fb306 	br	80c9ec <_free_r+0x134>
  80cb20:	01400044 	movi	r5,1
  80cb24:	003f7e06 	br	80c920 <_free_r+0x68>
  80cb28:	3804d1ba 	srli	r2,r7,6
  80cb2c:	10800e04 	addi	r2,r2,56
  80cb30:	100690fa 	slli	r3,r2,3
  80cb34:	003fad06 	br	80c9ec <_free_r+0x134>
  80cb38:	22000315 	stw	r8,12(r4)
  80cb3c:	22000215 	stw	r8,8(r4)
  80cb40:	3a05883a 	add	r2,r7,r8
  80cb44:	38c00054 	ori	r3,r7,1
  80cb48:	11c00015 	stw	r7,0(r2)
  80cb4c:	41000215 	stw	r4,8(r8)
  80cb50:	40c00115 	stw	r3,4(r8)
  80cb54:	41000315 	stw	r4,12(r8)
  80cb58:	003f8406 	br	80c96c <_free_r+0xb4>
  80cb5c:	1005d0ba 	srai	r2,r2,2
  80cb60:	00c00044 	movi	r3,1
  80cb64:	51000117 	ldw	r4,4(r10)
  80cb68:	1886983a 	sll	r3,r3,r2
  80cb6c:	20c8b03a 	or	r4,r4,r3
  80cb70:	51000115 	stw	r4,4(r10)
  80cb74:	003fa706 	br	80ca14 <_free_r+0x15c>
  80cb78:	00801504 	movi	r2,84
  80cb7c:	10c00436 	bltu	r2,r3,80cb90 <_free_r+0x2d8>
  80cb80:	3804d33a 	srli	r2,r7,12
  80cb84:	10801b84 	addi	r2,r2,110
  80cb88:	100690fa 	slli	r3,r2,3
  80cb8c:	003f9706 	br	80c9ec <_free_r+0x134>
  80cb90:	00805504 	movi	r2,340
  80cb94:	10c00436 	bltu	r2,r3,80cba8 <_free_r+0x2f0>
  80cb98:	3804d3fa 	srli	r2,r7,15
  80cb9c:	10801dc4 	addi	r2,r2,119
  80cba0:	100690fa 	slli	r3,r2,3
  80cba4:	003f9106 	br	80c9ec <_free_r+0x134>
  80cba8:	00815504 	movi	r2,1364
  80cbac:	10c0032e 	bgeu	r2,r3,80cbbc <_free_r+0x304>
  80cbb0:	00801f84 	movi	r2,126
  80cbb4:	00c0fc04 	movi	r3,1008
  80cbb8:	003f8c06 	br	80c9ec <_free_r+0x134>
  80cbbc:	3804d4ba 	srli	r2,r7,18
  80cbc0:	10801f04 	addi	r2,r2,124
  80cbc4:	100690fa 	slli	r3,r2,3
  80cbc8:	003f8806 	br	80c9ec <_free_r+0x134>

0080cbcc <_fwalk_reent>:
  80cbcc:	defff704 	addi	sp,sp,-36
  80cbd0:	dcc00315 	stw	r19,12(sp)
  80cbd4:	24c0b804 	addi	r19,r4,736
  80cbd8:	dd800615 	stw	r22,24(sp)
  80cbdc:	dd400515 	stw	r21,20(sp)
  80cbe0:	dfc00815 	stw	ra,32(sp)
  80cbe4:	ddc00715 	stw	r23,28(sp)
  80cbe8:	dd000415 	stw	r20,16(sp)
  80cbec:	dc800215 	stw	r18,8(sp)
  80cbf0:	dc400115 	stw	r17,4(sp)
  80cbf4:	dc000015 	stw	r16,0(sp)
  80cbf8:	202b883a 	mov	r21,r4
  80cbfc:	282d883a 	mov	r22,r5
  80cc00:	080c4f00 	call	80c4f0 <__sfp_lock_acquire>
  80cc04:	98002126 	beq	r19,zero,80cc8c <_fwalk_reent+0xc0>
  80cc08:	002f883a 	mov	r23,zero
  80cc0c:	9c800117 	ldw	r18,4(r19)
  80cc10:	9c000217 	ldw	r16,8(r19)
  80cc14:	90bfffc4 	addi	r2,r18,-1
  80cc18:	10000d16 	blt	r2,zero,80cc50 <_fwalk_reent+0x84>
  80cc1c:	0023883a 	mov	r17,zero
  80cc20:	053fffc4 	movi	r20,-1
  80cc24:	8080030f 	ldh	r2,12(r16)
  80cc28:	8c400044 	addi	r17,r17,1
  80cc2c:	10000626 	beq	r2,zero,80cc48 <_fwalk_reent+0x7c>
  80cc30:	8080038f 	ldh	r2,14(r16)
  80cc34:	800b883a 	mov	r5,r16
  80cc38:	a809883a 	mov	r4,r21
  80cc3c:	15000226 	beq	r2,r20,80cc48 <_fwalk_reent+0x7c>
  80cc40:	b03ee83a 	callr	r22
  80cc44:	b8aeb03a 	or	r23,r23,r2
  80cc48:	84001704 	addi	r16,r16,92
  80cc4c:	947ff51e 	bne	r18,r17,80cc24 <_fwalk_reent+0x58>
  80cc50:	9cc00017 	ldw	r19,0(r19)
  80cc54:	983fed1e 	bne	r19,zero,80cc0c <_fwalk_reent+0x40>
  80cc58:	080c4f40 	call	80c4f4 <__sfp_lock_release>
  80cc5c:	b805883a 	mov	r2,r23
  80cc60:	dfc00817 	ldw	ra,32(sp)
  80cc64:	ddc00717 	ldw	r23,28(sp)
  80cc68:	dd800617 	ldw	r22,24(sp)
  80cc6c:	dd400517 	ldw	r21,20(sp)
  80cc70:	dd000417 	ldw	r20,16(sp)
  80cc74:	dcc00317 	ldw	r19,12(sp)
  80cc78:	dc800217 	ldw	r18,8(sp)
  80cc7c:	dc400117 	ldw	r17,4(sp)
  80cc80:	dc000017 	ldw	r16,0(sp)
  80cc84:	dec00904 	addi	sp,sp,36
  80cc88:	f800283a 	ret
  80cc8c:	002f883a 	mov	r23,zero
  80cc90:	003ff106 	br	80cc58 <_fwalk_reent+0x8c>

0080cc94 <_fwalk>:
  80cc94:	defff804 	addi	sp,sp,-32
  80cc98:	dcc00315 	stw	r19,12(sp)
  80cc9c:	24c0b804 	addi	r19,r4,736
  80cca0:	dd400515 	stw	r21,20(sp)
  80cca4:	dfc00715 	stw	ra,28(sp)
  80cca8:	dd800615 	stw	r22,24(sp)
  80ccac:	dd000415 	stw	r20,16(sp)
  80ccb0:	dc800215 	stw	r18,8(sp)
  80ccb4:	dc400115 	stw	r17,4(sp)
  80ccb8:	dc000015 	stw	r16,0(sp)
  80ccbc:	282b883a 	mov	r21,r5
  80ccc0:	080c4f00 	call	80c4f0 <__sfp_lock_acquire>
  80ccc4:	98001f26 	beq	r19,zero,80cd44 <_fwalk+0xb0>
  80ccc8:	002d883a 	mov	r22,zero
  80cccc:	9c800117 	ldw	r18,4(r19)
  80ccd0:	9c000217 	ldw	r16,8(r19)
  80ccd4:	90bfffc4 	addi	r2,r18,-1
  80ccd8:	10000c16 	blt	r2,zero,80cd0c <_fwalk+0x78>
  80ccdc:	0023883a 	mov	r17,zero
  80cce0:	053fffc4 	movi	r20,-1
  80cce4:	8080030f 	ldh	r2,12(r16)
  80cce8:	8c400044 	addi	r17,r17,1
  80ccec:	10000526 	beq	r2,zero,80cd04 <_fwalk+0x70>
  80ccf0:	8080038f 	ldh	r2,14(r16)
  80ccf4:	8009883a 	mov	r4,r16
  80ccf8:	15000226 	beq	r2,r20,80cd04 <_fwalk+0x70>
  80ccfc:	a83ee83a 	callr	r21
  80cd00:	b0acb03a 	or	r22,r22,r2
  80cd04:	84001704 	addi	r16,r16,92
  80cd08:	947ff61e 	bne	r18,r17,80cce4 <_fwalk+0x50>
  80cd0c:	9cc00017 	ldw	r19,0(r19)
  80cd10:	983fee1e 	bne	r19,zero,80cccc <_fwalk+0x38>
  80cd14:	080c4f40 	call	80c4f4 <__sfp_lock_release>
  80cd18:	b005883a 	mov	r2,r22
  80cd1c:	dfc00717 	ldw	ra,28(sp)
  80cd20:	dd800617 	ldw	r22,24(sp)
  80cd24:	dd400517 	ldw	r21,20(sp)
  80cd28:	dd000417 	ldw	r20,16(sp)
  80cd2c:	dcc00317 	ldw	r19,12(sp)
  80cd30:	dc800217 	ldw	r18,8(sp)
  80cd34:	dc400117 	ldw	r17,4(sp)
  80cd38:	dc000017 	ldw	r16,0(sp)
  80cd3c:	dec00804 	addi	sp,sp,32
  80cd40:	f800283a 	ret
  80cd44:	002d883a 	mov	r22,zero
  80cd48:	003ff206 	br	80cd14 <_fwalk+0x80>

0080cd4c <__smakebuf_r>:
  80cd4c:	2880030b 	ldhu	r2,12(r5)
  80cd50:	deffed04 	addi	sp,sp,-76
  80cd54:	dc401015 	stw	r17,64(sp)
  80cd58:	1080008c 	andi	r2,r2,2
  80cd5c:	dc000f15 	stw	r16,60(sp)
  80cd60:	dfc01215 	stw	ra,72(sp)
  80cd64:	dc801115 	stw	r18,68(sp)
  80cd68:	2821883a 	mov	r16,r5
  80cd6c:	2023883a 	mov	r17,r4
  80cd70:	10000b26 	beq	r2,zero,80cda0 <__smakebuf_r+0x54>
  80cd74:	28c010c4 	addi	r3,r5,67
  80cd78:	00800044 	movi	r2,1
  80cd7c:	28800515 	stw	r2,20(r5)
  80cd80:	28c00415 	stw	r3,16(r5)
  80cd84:	28c00015 	stw	r3,0(r5)
  80cd88:	dfc01217 	ldw	ra,72(sp)
  80cd8c:	dc801117 	ldw	r18,68(sp)
  80cd90:	dc401017 	ldw	r17,64(sp)
  80cd94:	dc000f17 	ldw	r16,60(sp)
  80cd98:	dec01304 	addi	sp,sp,76
  80cd9c:	f800283a 	ret
  80cda0:	2940038f 	ldh	r5,14(r5)
  80cda4:	28002116 	blt	r5,zero,80ce2c <__smakebuf_r+0xe0>
  80cda8:	d80d883a 	mov	r6,sp
  80cdac:	080d9e80 	call	80d9e8 <_fstat_r>
  80cdb0:	10001e16 	blt	r2,zero,80ce2c <__smakebuf_r+0xe0>
  80cdb4:	d8800117 	ldw	r2,4(sp)
  80cdb8:	00e00014 	movui	r3,32768
  80cdbc:	113c000c 	andi	r4,r2,61440
  80cdc0:	20c03126 	beq	r4,r3,80ce88 <__smakebuf_r+0x13c>
  80cdc4:	8080030b 	ldhu	r2,12(r16)
  80cdc8:	00c80004 	movi	r3,8192
  80cdcc:	10820014 	ori	r2,r2,2048
  80cdd0:	8080030d 	sth	r2,12(r16)
  80cdd4:	20c01e26 	beq	r4,r3,80ce50 <__smakebuf_r+0x104>
  80cdd8:	04810004 	movi	r18,1024
  80cddc:	8809883a 	mov	r4,r17
  80cde0:	900b883a 	mov	r5,r18
  80cde4:	080cee00 	call	80cee0 <_malloc_r>
  80cde8:	1009883a 	mov	r4,r2
  80cdec:	10003126 	beq	r2,zero,80ceb4 <__smakebuf_r+0x168>
  80cdf0:	80c0030b 	ldhu	r3,12(r16)
  80cdf4:	00802074 	movhi	r2,129
  80cdf8:	10b17904 	addi	r2,r2,-14876
  80cdfc:	88800f15 	stw	r2,60(r17)
  80ce00:	18c02014 	ori	r3,r3,128
  80ce04:	84800515 	stw	r18,20(r16)
  80ce08:	80c0030d 	sth	r3,12(r16)
  80ce0c:	81000415 	stw	r4,16(r16)
  80ce10:	81000015 	stw	r4,0(r16)
  80ce14:	dfc01217 	ldw	ra,72(sp)
  80ce18:	dc801117 	ldw	r18,68(sp)
  80ce1c:	dc401017 	ldw	r17,64(sp)
  80ce20:	dc000f17 	ldw	r16,60(sp)
  80ce24:	dec01304 	addi	sp,sp,76
  80ce28:	f800283a 	ret
  80ce2c:	80c0030b 	ldhu	r3,12(r16)
  80ce30:	1880200c 	andi	r2,r3,128
  80ce34:	10000426 	beq	r2,zero,80ce48 <__smakebuf_r+0xfc>
  80ce38:	04801004 	movi	r18,64
  80ce3c:	18820014 	ori	r2,r3,2048
  80ce40:	8080030d 	sth	r2,12(r16)
  80ce44:	003fe506 	br	80cddc <__smakebuf_r+0x90>
  80ce48:	04810004 	movi	r18,1024
  80ce4c:	003ffb06 	br	80ce3c <__smakebuf_r+0xf0>
  80ce50:	8140038f 	ldh	r5,14(r16)
  80ce54:	8809883a 	mov	r4,r17
  80ce58:	080da5c0 	call	80da5c <_isatty_r>
  80ce5c:	103fde26 	beq	r2,zero,80cdd8 <__smakebuf_r+0x8c>
  80ce60:	8080030b 	ldhu	r2,12(r16)
  80ce64:	80c010c4 	addi	r3,r16,67
  80ce68:	04810004 	movi	r18,1024
  80ce6c:	10800054 	ori	r2,r2,1
  80ce70:	8080030d 	sth	r2,12(r16)
  80ce74:	00800044 	movi	r2,1
  80ce78:	80c00415 	stw	r3,16(r16)
  80ce7c:	80800515 	stw	r2,20(r16)
  80ce80:	80c00015 	stw	r3,0(r16)
  80ce84:	003fd506 	br	80cddc <__smakebuf_r+0x90>
  80ce88:	80c00a17 	ldw	r3,40(r16)
  80ce8c:	00802074 	movhi	r2,129
  80ce90:	10b5a604 	addi	r2,r2,-10600
  80ce94:	18bfcb1e 	bne	r3,r2,80cdc4 <__smakebuf_r+0x78>
  80ce98:	8080030b 	ldhu	r2,12(r16)
  80ce9c:	00c10004 	movi	r3,1024
  80cea0:	1825883a 	mov	r18,r3
  80cea4:	10c4b03a 	or	r2,r2,r3
  80cea8:	8080030d 	sth	r2,12(r16)
  80ceac:	80c01315 	stw	r3,76(r16)
  80ceb0:	003fca06 	br	80cddc <__smakebuf_r+0x90>
  80ceb4:	8100030b 	ldhu	r4,12(r16)
  80ceb8:	2080800c 	andi	r2,r4,512
  80cebc:	103fb21e 	bne	r2,zero,80cd88 <__smakebuf_r+0x3c>
  80cec0:	80c010c4 	addi	r3,r16,67
  80cec4:	21000094 	ori	r4,r4,2
  80cec8:	00800044 	movi	r2,1
  80cecc:	80800515 	stw	r2,20(r16)
  80ced0:	8100030d 	sth	r4,12(r16)
  80ced4:	80c00415 	stw	r3,16(r16)
  80ced8:	80c00015 	stw	r3,0(r16)
  80cedc:	003faa06 	br	80cd88 <__smakebuf_r+0x3c>

0080cee0 <_malloc_r>:
  80cee0:	defff604 	addi	sp,sp,-40
  80cee4:	28c002c4 	addi	r3,r5,11
  80cee8:	00800584 	movi	r2,22
  80ceec:	dc800215 	stw	r18,8(sp)
  80cef0:	dfc00915 	stw	ra,36(sp)
  80cef4:	df000815 	stw	fp,32(sp)
  80cef8:	ddc00715 	stw	r23,28(sp)
  80cefc:	dd800615 	stw	r22,24(sp)
  80cf00:	dd400515 	stw	r21,20(sp)
  80cf04:	dd000415 	stw	r20,16(sp)
  80cf08:	dcc00315 	stw	r19,12(sp)
  80cf0c:	dc400115 	stw	r17,4(sp)
  80cf10:	dc000015 	stw	r16,0(sp)
  80cf14:	2025883a 	mov	r18,r4
  80cf18:	10c01236 	bltu	r2,r3,80cf64 <_malloc_r+0x84>
  80cf1c:	04400404 	movi	r17,16
  80cf20:	8940142e 	bgeu	r17,r5,80cf74 <_malloc_r+0x94>
  80cf24:	00800304 	movi	r2,12
  80cf28:	0007883a 	mov	r3,zero
  80cf2c:	90800015 	stw	r2,0(r18)
  80cf30:	1805883a 	mov	r2,r3
  80cf34:	dfc00917 	ldw	ra,36(sp)
  80cf38:	df000817 	ldw	fp,32(sp)
  80cf3c:	ddc00717 	ldw	r23,28(sp)
  80cf40:	dd800617 	ldw	r22,24(sp)
  80cf44:	dd400517 	ldw	r21,20(sp)
  80cf48:	dd000417 	ldw	r20,16(sp)
  80cf4c:	dcc00317 	ldw	r19,12(sp)
  80cf50:	dc800217 	ldw	r18,8(sp)
  80cf54:	dc400117 	ldw	r17,4(sp)
  80cf58:	dc000017 	ldw	r16,0(sp)
  80cf5c:	dec00a04 	addi	sp,sp,40
  80cf60:	f800283a 	ret
  80cf64:	00bffe04 	movi	r2,-8
  80cf68:	18a2703a 	and	r17,r3,r2
  80cf6c:	883fed16 	blt	r17,zero,80cf24 <_malloc_r+0x44>
  80cf70:	897fec36 	bltu	r17,r5,80cf24 <_malloc_r+0x44>
  80cf74:	9009883a 	mov	r4,r18
  80cf78:	080099c0 	call	80099c <__malloc_lock>
  80cf7c:	00807dc4 	movi	r2,503
  80cf80:	14402b2e 	bgeu	r2,r17,80d030 <_malloc_r+0x150>
  80cf84:	8806d27a 	srli	r3,r17,9
  80cf88:	18003f1e 	bne	r3,zero,80d088 <_malloc_r+0x1a8>
  80cf8c:	880cd0fa 	srli	r6,r17,3
  80cf90:	300490fa 	slli	r2,r6,3
  80cf94:	02c02074 	movhi	r11,129
  80cf98:	5aff5004 	addi	r11,r11,-704
  80cf9c:	12cb883a 	add	r5,r2,r11
  80cfa0:	2c000317 	ldw	r16,12(r5)
  80cfa4:	580f883a 	mov	r7,r11
  80cfa8:	2c00041e 	bne	r5,r16,80cfbc <_malloc_r+0xdc>
  80cfac:	00000a06 	br	80cfd8 <_malloc_r+0xf8>
  80cfb0:	1800860e 	bge	r3,zero,80d1cc <_malloc_r+0x2ec>
  80cfb4:	84000317 	ldw	r16,12(r16)
  80cfb8:	2c000726 	beq	r5,r16,80cfd8 <_malloc_r+0xf8>
  80cfbc:	80800117 	ldw	r2,4(r16)
  80cfc0:	00ffff04 	movi	r3,-4
  80cfc4:	10c8703a 	and	r4,r2,r3
  80cfc8:	2447c83a 	sub	r3,r4,r17
  80cfcc:	008003c4 	movi	r2,15
  80cfd0:	10fff70e 	bge	r2,r3,80cfb0 <_malloc_r+0xd0>
  80cfd4:	31bfffc4 	addi	r6,r6,-1
  80cfd8:	32400044 	addi	r9,r6,1
  80cfdc:	02802074 	movhi	r10,129
  80cfe0:	52bf5204 	addi	r10,r10,-696
  80cfe4:	54000217 	ldw	r16,8(r10)
  80cfe8:	8280a026 	beq	r16,r10,80d26c <_malloc_r+0x38c>
  80cfec:	80800117 	ldw	r2,4(r16)
  80cff0:	00ffff04 	movi	r3,-4
  80cff4:	10ca703a 	and	r5,r2,r3
  80cff8:	2c4dc83a 	sub	r6,r5,r17
  80cffc:	008003c4 	movi	r2,15
  80d000:	11808316 	blt	r2,r6,80d210 <_malloc_r+0x330>
  80d004:	52800315 	stw	r10,12(r10)
  80d008:	52800215 	stw	r10,8(r10)
  80d00c:	30002916 	blt	r6,zero,80d0b4 <_malloc_r+0x1d4>
  80d010:	8147883a 	add	r3,r16,r5
  80d014:	18800117 	ldw	r2,4(r3)
  80d018:	9009883a 	mov	r4,r18
  80d01c:	10800054 	ori	r2,r2,1
  80d020:	18800115 	stw	r2,4(r3)
  80d024:	0800aa40 	call	800aa4 <__malloc_unlock>
  80d028:	80c00204 	addi	r3,r16,8
  80d02c:	003fc006 	br	80cf30 <_malloc_r+0x50>
  80d030:	02c02074 	movhi	r11,129
  80d034:	5aff5004 	addi	r11,r11,-704
  80d038:	8ac5883a 	add	r2,r17,r11
  80d03c:	14000317 	ldw	r16,12(r2)
  80d040:	580f883a 	mov	r7,r11
  80d044:	8806d0fa 	srli	r3,r17,3
  80d048:	14006c26 	beq	r2,r16,80d1fc <_malloc_r+0x31c>
  80d04c:	80c00117 	ldw	r3,4(r16)
  80d050:	00bfff04 	movi	r2,-4
  80d054:	81800317 	ldw	r6,12(r16)
  80d058:	1886703a 	and	r3,r3,r2
  80d05c:	80c7883a 	add	r3,r16,r3
  80d060:	18800117 	ldw	r2,4(r3)
  80d064:	81400217 	ldw	r5,8(r16)
  80d068:	9009883a 	mov	r4,r18
  80d06c:	10800054 	ori	r2,r2,1
  80d070:	18800115 	stw	r2,4(r3)
  80d074:	31400215 	stw	r5,8(r6)
  80d078:	29800315 	stw	r6,12(r5)
  80d07c:	0800aa40 	call	800aa4 <__malloc_unlock>
  80d080:	80c00204 	addi	r3,r16,8
  80d084:	003faa06 	br	80cf30 <_malloc_r+0x50>
  80d088:	00800104 	movi	r2,4
  80d08c:	10c0052e 	bgeu	r2,r3,80d0a4 <_malloc_r+0x1c4>
  80d090:	00800504 	movi	r2,20
  80d094:	10c07836 	bltu	r2,r3,80d278 <_malloc_r+0x398>
  80d098:	198016c4 	addi	r6,r3,91
  80d09c:	300490fa 	slli	r2,r6,3
  80d0a0:	003fbc06 	br	80cf94 <_malloc_r+0xb4>
  80d0a4:	8804d1ba 	srli	r2,r17,6
  80d0a8:	11800e04 	addi	r6,r2,56
  80d0ac:	300490fa 	slli	r2,r6,3
  80d0b0:	003fb806 	br	80cf94 <_malloc_r+0xb4>
  80d0b4:	00807fc4 	movi	r2,511
  80d0b8:	1140bb36 	bltu	r2,r5,80d3a8 <_malloc_r+0x4c8>
  80d0bc:	2806d0fa 	srli	r3,r5,3
  80d0c0:	573ffe04 	addi	fp,r10,-8
  80d0c4:	00800044 	movi	r2,1
  80d0c8:	180890fa 	slli	r4,r3,3
  80d0cc:	1807d0ba 	srai	r3,r3,2
  80d0d0:	e1c00117 	ldw	r7,4(fp)
  80d0d4:	5909883a 	add	r4,r11,r4
  80d0d8:	21400217 	ldw	r5,8(r4)
  80d0dc:	10c4983a 	sll	r2,r2,r3
  80d0e0:	81000315 	stw	r4,12(r16)
  80d0e4:	81400215 	stw	r5,8(r16)
  80d0e8:	388eb03a 	or	r7,r7,r2
  80d0ec:	2c000315 	stw	r16,12(r5)
  80d0f0:	24000215 	stw	r16,8(r4)
  80d0f4:	e1c00115 	stw	r7,4(fp)
  80d0f8:	4807883a 	mov	r3,r9
  80d0fc:	4800cd16 	blt	r9,zero,80d434 <_malloc_r+0x554>
  80d100:	1807d0ba 	srai	r3,r3,2
  80d104:	00800044 	movi	r2,1
  80d108:	10c8983a 	sll	r4,r2,r3
  80d10c:	39004436 	bltu	r7,r4,80d220 <_malloc_r+0x340>
  80d110:	21c4703a 	and	r2,r4,r7
  80d114:	10000a1e 	bne	r2,zero,80d140 <_malloc_r+0x260>
  80d118:	2109883a 	add	r4,r4,r4
  80d11c:	00bfff04 	movi	r2,-4
  80d120:	4884703a 	and	r2,r9,r2
  80d124:	3906703a 	and	r3,r7,r4
  80d128:	12400104 	addi	r9,r2,4
  80d12c:	1800041e 	bne	r3,zero,80d140 <_malloc_r+0x260>
  80d130:	2109883a 	add	r4,r4,r4
  80d134:	3904703a 	and	r2,r7,r4
  80d138:	4a400104 	addi	r9,r9,4
  80d13c:	103ffc26 	beq	r2,zero,80d130 <_malloc_r+0x250>
  80d140:	480490fa 	slli	r2,r9,3
  80d144:	4819883a 	mov	r12,r9
  80d148:	023fff04 	movi	r8,-4
  80d14c:	589b883a 	add	r13,r11,r2
  80d150:	6807883a 	mov	r3,r13
  80d154:	014003c4 	movi	r5,15
  80d158:	1c000317 	ldw	r16,12(r3)
  80d15c:	1c00041e 	bne	r3,r16,80d170 <_malloc_r+0x290>
  80d160:	0000a706 	br	80d400 <_malloc_r+0x520>
  80d164:	3000ab0e 	bge	r6,zero,80d414 <_malloc_r+0x534>
  80d168:	84000317 	ldw	r16,12(r16)
  80d16c:	1c00a426 	beq	r3,r16,80d400 <_malloc_r+0x520>
  80d170:	80800117 	ldw	r2,4(r16)
  80d174:	1204703a 	and	r2,r2,r8
  80d178:	144dc83a 	sub	r6,r2,r17
  80d17c:	29bff90e 	bge	r5,r6,80d164 <_malloc_r+0x284>
  80d180:	81000317 	ldw	r4,12(r16)
  80d184:	80c00217 	ldw	r3,8(r16)
  80d188:	89400054 	ori	r5,r17,1
  80d18c:	8445883a 	add	r2,r16,r17
  80d190:	20c00215 	stw	r3,8(r4)
  80d194:	19000315 	stw	r4,12(r3)
  80d198:	81400115 	stw	r5,4(r16)
  80d19c:	1187883a 	add	r3,r2,r6
  80d1a0:	31000054 	ori	r4,r6,1
  80d1a4:	50800315 	stw	r2,12(r10)
  80d1a8:	50800215 	stw	r2,8(r10)
  80d1ac:	19800015 	stw	r6,0(r3)
  80d1b0:	11000115 	stw	r4,4(r2)
  80d1b4:	12800215 	stw	r10,8(r2)
  80d1b8:	12800315 	stw	r10,12(r2)
  80d1bc:	9009883a 	mov	r4,r18
  80d1c0:	0800aa40 	call	800aa4 <__malloc_unlock>
  80d1c4:	80c00204 	addi	r3,r16,8
  80d1c8:	003f5906 	br	80cf30 <_malloc_r+0x50>
  80d1cc:	8109883a 	add	r4,r16,r4
  80d1d0:	20800117 	ldw	r2,4(r4)
  80d1d4:	80c00217 	ldw	r3,8(r16)
  80d1d8:	81400317 	ldw	r5,12(r16)
  80d1dc:	10800054 	ori	r2,r2,1
  80d1e0:	20800115 	stw	r2,4(r4)
  80d1e4:	28c00215 	stw	r3,8(r5)
  80d1e8:	19400315 	stw	r5,12(r3)
  80d1ec:	9009883a 	mov	r4,r18
  80d1f0:	0800aa40 	call	800aa4 <__malloc_unlock>
  80d1f4:	80c00204 	addi	r3,r16,8
  80d1f8:	003f4d06 	br	80cf30 <_malloc_r+0x50>
  80d1fc:	80800204 	addi	r2,r16,8
  80d200:	14000317 	ldw	r16,12(r2)
  80d204:	143f911e 	bne	r2,r16,80d04c <_malloc_r+0x16c>
  80d208:	1a400084 	addi	r9,r3,2
  80d20c:	003f7306 	br	80cfdc <_malloc_r+0xfc>
  80d210:	88c00054 	ori	r3,r17,1
  80d214:	8445883a 	add	r2,r16,r17
  80d218:	80c00115 	stw	r3,4(r16)
  80d21c:	003fdf06 	br	80d19c <_malloc_r+0x2bc>
  80d220:	e4000217 	ldw	r16,8(fp)
  80d224:	00bfff04 	movi	r2,-4
  80d228:	80c00117 	ldw	r3,4(r16)
  80d22c:	802d883a 	mov	r22,r16
  80d230:	18aa703a 	and	r21,r3,r2
  80d234:	ac401636 	bltu	r21,r17,80d290 <_malloc_r+0x3b0>
  80d238:	ac49c83a 	sub	r4,r21,r17
  80d23c:	008003c4 	movi	r2,15
  80d240:	1100130e 	bge	r2,r4,80d290 <_malloc_r+0x3b0>
  80d244:	88800054 	ori	r2,r17,1
  80d248:	8447883a 	add	r3,r16,r17
  80d24c:	80800115 	stw	r2,4(r16)
  80d250:	20800054 	ori	r2,r4,1
  80d254:	18800115 	stw	r2,4(r3)
  80d258:	e0c00215 	stw	r3,8(fp)
  80d25c:	9009883a 	mov	r4,r18
  80d260:	0800aa40 	call	800aa4 <__malloc_unlock>
  80d264:	80c00204 	addi	r3,r16,8
  80d268:	003f3106 	br	80cf30 <_malloc_r+0x50>
  80d26c:	39c00117 	ldw	r7,4(r7)
  80d270:	573ffe04 	addi	fp,r10,-8
  80d274:	003fa006 	br	80d0f8 <_malloc_r+0x218>
  80d278:	00801504 	movi	r2,84
  80d27c:	10c06736 	bltu	r2,r3,80d41c <_malloc_r+0x53c>
  80d280:	8804d33a 	srli	r2,r17,12
  80d284:	11801b84 	addi	r6,r2,110
  80d288:	300490fa 	slli	r2,r6,3
  80d28c:	003f4106 	br	80cf94 <_malloc_r+0xb4>
  80d290:	d0a70e17 	ldw	r2,-25544(gp)
  80d294:	d0e02b17 	ldw	r3,-32596(gp)
  80d298:	053fffc4 	movi	r20,-1
  80d29c:	10800404 	addi	r2,r2,16
  80d2a0:	88a7883a 	add	r19,r17,r2
  80d2a4:	1d000326 	beq	r3,r20,80d2b4 <_malloc_r+0x3d4>
  80d2a8:	98c3ffc4 	addi	r3,r19,4095
  80d2ac:	00bc0004 	movi	r2,-4096
  80d2b0:	18a6703a 	and	r19,r3,r2
  80d2b4:	9009883a 	mov	r4,r18
  80d2b8:	980b883a 	mov	r5,r19
  80d2bc:	080d6200 	call	80d620 <_sbrk_r>
  80d2c0:	1009883a 	mov	r4,r2
  80d2c4:	15000426 	beq	r2,r20,80d2d8 <_malloc_r+0x3f8>
  80d2c8:	854b883a 	add	r5,r16,r21
  80d2cc:	1029883a 	mov	r20,r2
  80d2d0:	11405a2e 	bgeu	r2,r5,80d43c <_malloc_r+0x55c>
  80d2d4:	87000c26 	beq	r16,fp,80d308 <_malloc_r+0x428>
  80d2d8:	e4000217 	ldw	r16,8(fp)
  80d2dc:	80c00117 	ldw	r3,4(r16)
  80d2e0:	00bfff04 	movi	r2,-4
  80d2e4:	1884703a 	and	r2,r3,r2
  80d2e8:	14400336 	bltu	r2,r17,80d2f8 <_malloc_r+0x418>
  80d2ec:	1449c83a 	sub	r4,r2,r17
  80d2f0:	008003c4 	movi	r2,15
  80d2f4:	113fd316 	blt	r2,r4,80d244 <_malloc_r+0x364>
  80d2f8:	9009883a 	mov	r4,r18
  80d2fc:	0800aa40 	call	800aa4 <__malloc_unlock>
  80d300:	0007883a 	mov	r3,zero
  80d304:	003f0a06 	br	80cf30 <_malloc_r+0x50>
  80d308:	05c02074 	movhi	r23,129
  80d30c:	bdc76304 	addi	r23,r23,7564
  80d310:	b8800017 	ldw	r2,0(r23)
  80d314:	988d883a 	add	r6,r19,r2
  80d318:	b9800015 	stw	r6,0(r23)
  80d31c:	d0e02b17 	ldw	r3,-32596(gp)
  80d320:	00bfffc4 	movi	r2,-1
  80d324:	18808e26 	beq	r3,r2,80d560 <_malloc_r+0x680>
  80d328:	2145c83a 	sub	r2,r4,r5
  80d32c:	3085883a 	add	r2,r6,r2
  80d330:	b8800015 	stw	r2,0(r23)
  80d334:	20c001cc 	andi	r3,r4,7
  80d338:	18005f1e 	bne	r3,zero,80d4b8 <_malloc_r+0x5d8>
  80d33c:	000b883a 	mov	r5,zero
  80d340:	a4c5883a 	add	r2,r20,r19
  80d344:	1083ffcc 	andi	r2,r2,4095
  80d348:	00c40004 	movi	r3,4096
  80d34c:	1887c83a 	sub	r3,r3,r2
  80d350:	28e7883a 	add	r19,r5,r3
  80d354:	9009883a 	mov	r4,r18
  80d358:	980b883a 	mov	r5,r19
  80d35c:	080d6200 	call	80d620 <_sbrk_r>
  80d360:	1007883a 	mov	r3,r2
  80d364:	00bfffc4 	movi	r2,-1
  80d368:	18807a26 	beq	r3,r2,80d554 <_malloc_r+0x674>
  80d36c:	1d05c83a 	sub	r2,r3,r20
  80d370:	9885883a 	add	r2,r19,r2
  80d374:	10c00054 	ori	r3,r2,1
  80d378:	b8800017 	ldw	r2,0(r23)
  80d37c:	a021883a 	mov	r16,r20
  80d380:	a0c00115 	stw	r3,4(r20)
  80d384:	9885883a 	add	r2,r19,r2
  80d388:	b8800015 	stw	r2,0(r23)
  80d38c:	e5000215 	stw	r20,8(fp)
  80d390:	b7003626 	beq	r22,fp,80d46c <_malloc_r+0x58c>
  80d394:	018003c4 	movi	r6,15
  80d398:	35404b36 	bltu	r6,r21,80d4c8 <_malloc_r+0x5e8>
  80d39c:	00800044 	movi	r2,1
  80d3a0:	a0800115 	stw	r2,4(r20)
  80d3a4:	003fcd06 	br	80d2dc <_malloc_r+0x3fc>
  80d3a8:	2808d27a 	srli	r4,r5,9
  80d3ac:	2000371e 	bne	r4,zero,80d48c <_malloc_r+0x5ac>
  80d3b0:	2808d0fa 	srli	r4,r5,3
  80d3b4:	200690fa 	slli	r3,r4,3
  80d3b8:	1ad1883a 	add	r8,r3,r11
  80d3bc:	41800217 	ldw	r6,8(r8)
  80d3c0:	41805b26 	beq	r8,r6,80d530 <_malloc_r+0x650>
  80d3c4:	30800117 	ldw	r2,4(r6)
  80d3c8:	00ffff04 	movi	r3,-4
  80d3cc:	10c4703a 	and	r2,r2,r3
  80d3d0:	2880022e 	bgeu	r5,r2,80d3dc <_malloc_r+0x4fc>
  80d3d4:	31800217 	ldw	r6,8(r6)
  80d3d8:	41bffa1e 	bne	r8,r6,80d3c4 <_malloc_r+0x4e4>
  80d3dc:	32000317 	ldw	r8,12(r6)
  80d3e0:	39c00117 	ldw	r7,4(r7)
  80d3e4:	82000315 	stw	r8,12(r16)
  80d3e8:	81800215 	stw	r6,8(r16)
  80d3ec:	07002074 	movhi	fp,129
  80d3f0:	e73f5004 	addi	fp,fp,-704
  80d3f4:	34000315 	stw	r16,12(r6)
  80d3f8:	44000215 	stw	r16,8(r8)
  80d3fc:	003f3e06 	br	80d0f8 <_malloc_r+0x218>
  80d400:	63000044 	addi	r12,r12,1
  80d404:	608000cc 	andi	r2,r12,3
  80d408:	10005d26 	beq	r2,zero,80d580 <_malloc_r+0x6a0>
  80d40c:	18c00204 	addi	r3,r3,8
  80d410:	003f5106 	br	80d158 <_malloc_r+0x278>
  80d414:	8089883a 	add	r4,r16,r2
  80d418:	003f6d06 	br	80d1d0 <_malloc_r+0x2f0>
  80d41c:	00805504 	movi	r2,340
  80d420:	10c02036 	bltu	r2,r3,80d4a4 <_malloc_r+0x5c4>
  80d424:	8804d3fa 	srli	r2,r17,15
  80d428:	11801dc4 	addi	r6,r2,119
  80d42c:	300490fa 	slli	r2,r6,3
  80d430:	003ed806 	br	80cf94 <_malloc_r+0xb4>
  80d434:	48c000c4 	addi	r3,r9,3
  80d438:	003f3106 	br	80d100 <_malloc_r+0x220>
  80d43c:	05c02074 	movhi	r23,129
  80d440:	bdc76304 	addi	r23,r23,7564
  80d444:	b8800017 	ldw	r2,0(r23)
  80d448:	988d883a 	add	r6,r19,r2
  80d44c:	b9800015 	stw	r6,0(r23)
  80d450:	293fb21e 	bne	r5,r4,80d31c <_malloc_r+0x43c>
  80d454:	2083ffcc 	andi	r2,r4,4095
  80d458:	103fb01e 	bne	r2,zero,80d31c <_malloc_r+0x43c>
  80d45c:	e4000217 	ldw	r16,8(fp)
  80d460:	9d45883a 	add	r2,r19,r21
  80d464:	10800054 	ori	r2,r2,1
  80d468:	80800115 	stw	r2,4(r16)
  80d46c:	b8c00017 	ldw	r3,0(r23)
  80d470:	d0a70f17 	ldw	r2,-25540(gp)
  80d474:	10c0012e 	bgeu	r2,r3,80d47c <_malloc_r+0x59c>
  80d478:	d0e70f15 	stw	r3,-25540(gp)
  80d47c:	d0a71017 	ldw	r2,-25536(gp)
  80d480:	10ff962e 	bgeu	r2,r3,80d2dc <_malloc_r+0x3fc>
  80d484:	d0e71015 	stw	r3,-25536(gp)
  80d488:	003f9406 	br	80d2dc <_malloc_r+0x3fc>
  80d48c:	00800104 	movi	r2,4
  80d490:	11001e36 	bltu	r2,r4,80d50c <_malloc_r+0x62c>
  80d494:	2804d1ba 	srli	r2,r5,6
  80d498:	11000e04 	addi	r4,r2,56
  80d49c:	200690fa 	slli	r3,r4,3
  80d4a0:	003fc506 	br	80d3b8 <_malloc_r+0x4d8>
  80d4a4:	00815504 	movi	r2,1364
  80d4a8:	10c01d2e 	bgeu	r2,r3,80d520 <_malloc_r+0x640>
  80d4ac:	01801f84 	movi	r6,126
  80d4b0:	0080fc04 	movi	r2,1008
  80d4b4:	003eb706 	br	80cf94 <_malloc_r+0xb4>
  80d4b8:	00800204 	movi	r2,8
  80d4bc:	10cbc83a 	sub	r5,r2,r3
  80d4c0:	2169883a 	add	r20,r4,r5
  80d4c4:	003f9e06 	br	80d340 <_malloc_r+0x460>
  80d4c8:	00bffe04 	movi	r2,-8
  80d4cc:	a93ffd04 	addi	r4,r21,-12
  80d4d0:	2088703a 	and	r4,r4,r2
  80d4d4:	b10b883a 	add	r5,r22,r4
  80d4d8:	00c00144 	movi	r3,5
  80d4dc:	28c00215 	stw	r3,8(r5)
  80d4e0:	28c00115 	stw	r3,4(r5)
  80d4e4:	b0800117 	ldw	r2,4(r22)
  80d4e8:	1080004c 	andi	r2,r2,1
  80d4ec:	2084b03a 	or	r2,r4,r2
  80d4f0:	b0800115 	stw	r2,4(r22)
  80d4f4:	313fdd2e 	bgeu	r6,r4,80d46c <_malloc_r+0x58c>
  80d4f8:	b1400204 	addi	r5,r22,8
  80d4fc:	9009883a 	mov	r4,r18
  80d500:	080c8b80 	call	80c8b8 <_free_r>
  80d504:	e4000217 	ldw	r16,8(fp)
  80d508:	003fd806 	br	80d46c <_malloc_r+0x58c>
  80d50c:	00800504 	movi	r2,20
  80d510:	11001536 	bltu	r2,r4,80d568 <_malloc_r+0x688>
  80d514:	210016c4 	addi	r4,r4,91
  80d518:	200690fa 	slli	r3,r4,3
  80d51c:	003fa606 	br	80d3b8 <_malloc_r+0x4d8>
  80d520:	8804d4ba 	srli	r2,r17,18
  80d524:	11801f04 	addi	r6,r2,124
  80d528:	300490fa 	slli	r2,r6,3
  80d52c:	003e9906 	br	80cf94 <_malloc_r+0xb4>
  80d530:	2009d0ba 	srai	r4,r4,2
  80d534:	01402074 	movhi	r5,129
  80d538:	297f5004 	addi	r5,r5,-704
  80d53c:	00c00044 	movi	r3,1
  80d540:	28800117 	ldw	r2,4(r5)
  80d544:	1906983a 	sll	r3,r3,r4
  80d548:	10c4b03a 	or	r2,r2,r3
  80d54c:	28800115 	stw	r2,4(r5)
  80d550:	003fa306 	br	80d3e0 <_malloc_r+0x500>
  80d554:	0027883a 	mov	r19,zero
  80d558:	00c00044 	movi	r3,1
  80d55c:	003f8606 	br	80d378 <_malloc_r+0x498>
  80d560:	d1202b15 	stw	r4,-32596(gp)
  80d564:	003f7306 	br	80d334 <_malloc_r+0x454>
  80d568:	00801504 	movi	r2,84
  80d56c:	11001936 	bltu	r2,r4,80d5d4 <_malloc_r+0x6f4>
  80d570:	2804d33a 	srli	r2,r5,12
  80d574:	11001b84 	addi	r4,r2,110
  80d578:	200690fa 	slli	r3,r4,3
  80d57c:	003f8e06 	br	80d3b8 <_malloc_r+0x4d8>
  80d580:	480b883a 	mov	r5,r9
  80d584:	6807883a 	mov	r3,r13
  80d588:	288000cc 	andi	r2,r5,3
  80d58c:	18fffe04 	addi	r3,r3,-8
  80d590:	297fffc4 	addi	r5,r5,-1
  80d594:	10001526 	beq	r2,zero,80d5ec <_malloc_r+0x70c>
  80d598:	18800217 	ldw	r2,8(r3)
  80d59c:	10fffa26 	beq	r2,r3,80d588 <_malloc_r+0x6a8>
  80d5a0:	2109883a 	add	r4,r4,r4
  80d5a4:	393f1e36 	bltu	r7,r4,80d220 <_malloc_r+0x340>
  80d5a8:	203f1d26 	beq	r4,zero,80d220 <_malloc_r+0x340>
  80d5ac:	21c4703a 	and	r2,r4,r7
  80d5b0:	10000226 	beq	r2,zero,80d5bc <_malloc_r+0x6dc>
  80d5b4:	6013883a 	mov	r9,r12
  80d5b8:	003ee106 	br	80d140 <_malloc_r+0x260>
  80d5bc:	2109883a 	add	r4,r4,r4
  80d5c0:	3904703a 	and	r2,r7,r4
  80d5c4:	63000104 	addi	r12,r12,4
  80d5c8:	103ffc26 	beq	r2,zero,80d5bc <_malloc_r+0x6dc>
  80d5cc:	6013883a 	mov	r9,r12
  80d5d0:	003edb06 	br	80d140 <_malloc_r+0x260>
  80d5d4:	00805504 	movi	r2,340
  80d5d8:	11000836 	bltu	r2,r4,80d5fc <_malloc_r+0x71c>
  80d5dc:	2804d3fa 	srli	r2,r5,15
  80d5e0:	11001dc4 	addi	r4,r2,119
  80d5e4:	200690fa 	slli	r3,r4,3
  80d5e8:	003f7306 	br	80d3b8 <_malloc_r+0x4d8>
  80d5ec:	0104303a 	nor	r2,zero,r4
  80d5f0:	388e703a 	and	r7,r7,r2
  80d5f4:	e1c00115 	stw	r7,4(fp)
  80d5f8:	003fe906 	br	80d5a0 <_malloc_r+0x6c0>
  80d5fc:	00815504 	movi	r2,1364
  80d600:	1100032e 	bgeu	r2,r4,80d610 <_malloc_r+0x730>
  80d604:	01001f84 	movi	r4,126
  80d608:	00c0fc04 	movi	r3,1008
  80d60c:	003f6a06 	br	80d3b8 <_malloc_r+0x4d8>
  80d610:	2804d4ba 	srli	r2,r5,18
  80d614:	11001f04 	addi	r4,r2,124
  80d618:	200690fa 	slli	r3,r4,3
  80d61c:	003f6606 	br	80d3b8 <_malloc_r+0x4d8>

0080d620 <_sbrk_r>:
  80d620:	defffd04 	addi	sp,sp,-12
  80d624:	dc000015 	stw	r16,0(sp)
  80d628:	04002074 	movhi	r16,129
  80d62c:	84075f04 	addi	r16,r16,7548
  80d630:	dc400115 	stw	r17,4(sp)
  80d634:	80000015 	stw	zero,0(r16)
  80d638:	2023883a 	mov	r17,r4
  80d63c:	2809883a 	mov	r4,r5
  80d640:	dfc00215 	stw	ra,8(sp)
  80d644:	080e2e00 	call	80e2e0 <sbrk>
  80d648:	1007883a 	mov	r3,r2
  80d64c:	00bfffc4 	movi	r2,-1
  80d650:	18800626 	beq	r3,r2,80d66c <_sbrk_r+0x4c>
  80d654:	1805883a 	mov	r2,r3
  80d658:	dfc00217 	ldw	ra,8(sp)
  80d65c:	dc400117 	ldw	r17,4(sp)
  80d660:	dc000017 	ldw	r16,0(sp)
  80d664:	dec00304 	addi	sp,sp,12
  80d668:	f800283a 	ret
  80d66c:	80800017 	ldw	r2,0(r16)
  80d670:	103ff826 	beq	r2,zero,80d654 <_sbrk_r+0x34>
  80d674:	88800015 	stw	r2,0(r17)
  80d678:	1805883a 	mov	r2,r3
  80d67c:	dfc00217 	ldw	ra,8(sp)
  80d680:	dc400117 	ldw	r17,4(sp)
  80d684:	dc000017 	ldw	r16,0(sp)
  80d688:	dec00304 	addi	sp,sp,12
  80d68c:	f800283a 	ret

0080d690 <__sclose>:
  80d690:	2940038f 	ldh	r5,14(r5)
  80d694:	080d8541 	jmpi	80d854 <_close_r>

0080d698 <__sseek>:
  80d698:	defffe04 	addi	sp,sp,-8
  80d69c:	dc000015 	stw	r16,0(sp)
  80d6a0:	2821883a 	mov	r16,r5
  80d6a4:	2940038f 	ldh	r5,14(r5)
  80d6a8:	dfc00115 	stw	ra,4(sp)
  80d6ac:	080dacc0 	call	80dacc <_lseek_r>
  80d6b0:	1007883a 	mov	r3,r2
  80d6b4:	00bfffc4 	movi	r2,-1
  80d6b8:	18800926 	beq	r3,r2,80d6e0 <__sseek+0x48>
  80d6bc:	8080030b 	ldhu	r2,12(r16)
  80d6c0:	80c01415 	stw	r3,80(r16)
  80d6c4:	10840014 	ori	r2,r2,4096
  80d6c8:	8080030d 	sth	r2,12(r16)
  80d6cc:	1805883a 	mov	r2,r3
  80d6d0:	dfc00117 	ldw	ra,4(sp)
  80d6d4:	dc000017 	ldw	r16,0(sp)
  80d6d8:	dec00204 	addi	sp,sp,8
  80d6dc:	f800283a 	ret
  80d6e0:	8080030b 	ldhu	r2,12(r16)
  80d6e4:	10bbffcc 	andi	r2,r2,61439
  80d6e8:	8080030d 	sth	r2,12(r16)
  80d6ec:	1805883a 	mov	r2,r3
  80d6f0:	dfc00117 	ldw	ra,4(sp)
  80d6f4:	dc000017 	ldw	r16,0(sp)
  80d6f8:	dec00204 	addi	sp,sp,8
  80d6fc:	f800283a 	ret

0080d700 <__swrite>:
  80d700:	2880030b 	ldhu	r2,12(r5)
  80d704:	defffb04 	addi	sp,sp,-20
  80d708:	dcc00315 	stw	r19,12(sp)
  80d70c:	1080400c 	andi	r2,r2,256
  80d710:	dc800215 	stw	r18,8(sp)
  80d714:	dc400115 	stw	r17,4(sp)
  80d718:	dc000015 	stw	r16,0(sp)
  80d71c:	3027883a 	mov	r19,r6
  80d720:	3825883a 	mov	r18,r7
  80d724:	dfc00415 	stw	ra,16(sp)
  80d728:	2821883a 	mov	r16,r5
  80d72c:	000d883a 	mov	r6,zero
  80d730:	01c00084 	movi	r7,2
  80d734:	2023883a 	mov	r17,r4
  80d738:	10000226 	beq	r2,zero,80d744 <__swrite+0x44>
  80d73c:	2940038f 	ldh	r5,14(r5)
  80d740:	080dacc0 	call	80dacc <_lseek_r>
  80d744:	8080030b 	ldhu	r2,12(r16)
  80d748:	8140038f 	ldh	r5,14(r16)
  80d74c:	8809883a 	mov	r4,r17
  80d750:	10bbffcc 	andi	r2,r2,61439
  80d754:	980d883a 	mov	r6,r19
  80d758:	900f883a 	mov	r7,r18
  80d75c:	8080030d 	sth	r2,12(r16)
  80d760:	dfc00417 	ldw	ra,16(sp)
  80d764:	dcc00317 	ldw	r19,12(sp)
  80d768:	dc800217 	ldw	r18,8(sp)
  80d76c:	dc400117 	ldw	r17,4(sp)
  80d770:	dc000017 	ldw	r16,0(sp)
  80d774:	dec00504 	addi	sp,sp,20
  80d778:	080d7dc1 	jmpi	80d7dc <_write_r>

0080d77c <__sread>:
  80d77c:	defffe04 	addi	sp,sp,-8
  80d780:	dc000015 	stw	r16,0(sp)
  80d784:	2821883a 	mov	r16,r5
  80d788:	2940038f 	ldh	r5,14(r5)
  80d78c:	dfc00115 	stw	ra,4(sp)
  80d790:	080db440 	call	80db44 <_read_r>
  80d794:	1007883a 	mov	r3,r2
  80d798:	10000816 	blt	r2,zero,80d7bc <__sread+0x40>
  80d79c:	80801417 	ldw	r2,80(r16)
  80d7a0:	10c5883a 	add	r2,r2,r3
  80d7a4:	80801415 	stw	r2,80(r16)
  80d7a8:	1805883a 	mov	r2,r3
  80d7ac:	dfc00117 	ldw	ra,4(sp)
  80d7b0:	dc000017 	ldw	r16,0(sp)
  80d7b4:	dec00204 	addi	sp,sp,8
  80d7b8:	f800283a 	ret
  80d7bc:	8080030b 	ldhu	r2,12(r16)
  80d7c0:	10bbffcc 	andi	r2,r2,61439
  80d7c4:	8080030d 	sth	r2,12(r16)
  80d7c8:	1805883a 	mov	r2,r3
  80d7cc:	dfc00117 	ldw	ra,4(sp)
  80d7d0:	dc000017 	ldw	r16,0(sp)
  80d7d4:	dec00204 	addi	sp,sp,8
  80d7d8:	f800283a 	ret

0080d7dc <_write_r>:
  80d7dc:	defffd04 	addi	sp,sp,-12
  80d7e0:	dc000015 	stw	r16,0(sp)
  80d7e4:	04002074 	movhi	r16,129
  80d7e8:	84075f04 	addi	r16,r16,7548
  80d7ec:	dc400115 	stw	r17,4(sp)
  80d7f0:	80000015 	stw	zero,0(r16)
  80d7f4:	2023883a 	mov	r17,r4
  80d7f8:	2809883a 	mov	r4,r5
  80d7fc:	300b883a 	mov	r5,r6
  80d800:	380d883a 	mov	r6,r7
  80d804:	dfc00215 	stw	ra,8(sp)
  80d808:	080e39c0 	call	80e39c <write>
  80d80c:	1007883a 	mov	r3,r2
  80d810:	00bfffc4 	movi	r2,-1
  80d814:	18800626 	beq	r3,r2,80d830 <_write_r+0x54>
  80d818:	1805883a 	mov	r2,r3
  80d81c:	dfc00217 	ldw	ra,8(sp)
  80d820:	dc400117 	ldw	r17,4(sp)
  80d824:	dc000017 	ldw	r16,0(sp)
  80d828:	dec00304 	addi	sp,sp,12
  80d82c:	f800283a 	ret
  80d830:	80800017 	ldw	r2,0(r16)
  80d834:	103ff826 	beq	r2,zero,80d818 <_write_r+0x3c>
  80d838:	88800015 	stw	r2,0(r17)
  80d83c:	1805883a 	mov	r2,r3
  80d840:	dfc00217 	ldw	ra,8(sp)
  80d844:	dc400117 	ldw	r17,4(sp)
  80d848:	dc000017 	ldw	r16,0(sp)
  80d84c:	dec00304 	addi	sp,sp,12
  80d850:	f800283a 	ret

0080d854 <_close_r>:
  80d854:	defffd04 	addi	sp,sp,-12
  80d858:	dc000015 	stw	r16,0(sp)
  80d85c:	04002074 	movhi	r16,129
  80d860:	84075f04 	addi	r16,r16,7548
  80d864:	dc400115 	stw	r17,4(sp)
  80d868:	80000015 	stw	zero,0(r16)
  80d86c:	2023883a 	mov	r17,r4
  80d870:	2809883a 	mov	r4,r5
  80d874:	dfc00215 	stw	ra,8(sp)
  80d878:	080a4200 	call	80a420 <close>
  80d87c:	1007883a 	mov	r3,r2
  80d880:	00bfffc4 	movi	r2,-1
  80d884:	18800626 	beq	r3,r2,80d8a0 <_close_r+0x4c>
  80d888:	1805883a 	mov	r2,r3
  80d88c:	dfc00217 	ldw	ra,8(sp)
  80d890:	dc400117 	ldw	r17,4(sp)
  80d894:	dc000017 	ldw	r16,0(sp)
  80d898:	dec00304 	addi	sp,sp,12
  80d89c:	f800283a 	ret
  80d8a0:	80800017 	ldw	r2,0(r16)
  80d8a4:	103ff826 	beq	r2,zero,80d888 <_close_r+0x34>
  80d8a8:	88800015 	stw	r2,0(r17)
  80d8ac:	1805883a 	mov	r2,r3
  80d8b0:	dfc00217 	ldw	ra,8(sp)
  80d8b4:	dc400117 	ldw	r17,4(sp)
  80d8b8:	dc000017 	ldw	r16,0(sp)
  80d8bc:	dec00304 	addi	sp,sp,12
  80d8c0:	f800283a 	ret

0080d8c4 <_fclose_r>:
  80d8c4:	defffc04 	addi	sp,sp,-16
  80d8c8:	dc400115 	stw	r17,4(sp)
  80d8cc:	dc000015 	stw	r16,0(sp)
  80d8d0:	dfc00315 	stw	ra,12(sp)
  80d8d4:	dc800215 	stw	r18,8(sp)
  80d8d8:	2821883a 	mov	r16,r5
  80d8dc:	2023883a 	mov	r17,r4
  80d8e0:	28002926 	beq	r5,zero,80d988 <_fclose_r+0xc4>
  80d8e4:	080c4f00 	call	80c4f0 <__sfp_lock_acquire>
  80d8e8:	88000226 	beq	r17,zero,80d8f4 <_fclose_r+0x30>
  80d8ec:	88800e17 	ldw	r2,56(r17)
  80d8f0:	10002d26 	beq	r2,zero,80d9a8 <_fclose_r+0xe4>
  80d8f4:	8080030f 	ldh	r2,12(r16)
  80d8f8:	10002226 	beq	r2,zero,80d984 <_fclose_r+0xc0>
  80d8fc:	8809883a 	mov	r4,r17
  80d900:	800b883a 	mov	r5,r16
  80d904:	080c2680 	call	80c268 <_fflush_r>
  80d908:	1025883a 	mov	r18,r2
  80d90c:	80800b17 	ldw	r2,44(r16)
  80d910:	10000426 	beq	r2,zero,80d924 <_fclose_r+0x60>
  80d914:	81400717 	ldw	r5,28(r16)
  80d918:	8809883a 	mov	r4,r17
  80d91c:	103ee83a 	callr	r2
  80d920:	10002a16 	blt	r2,zero,80d9cc <_fclose_r+0x108>
  80d924:	8080030b 	ldhu	r2,12(r16)
  80d928:	1080200c 	andi	r2,r2,128
  80d92c:	1000231e 	bne	r2,zero,80d9bc <_fclose_r+0xf8>
  80d930:	81400c17 	ldw	r5,48(r16)
  80d934:	28000526 	beq	r5,zero,80d94c <_fclose_r+0x88>
  80d938:	80801004 	addi	r2,r16,64
  80d93c:	28800226 	beq	r5,r2,80d948 <_fclose_r+0x84>
  80d940:	8809883a 	mov	r4,r17
  80d944:	080c8b80 	call	80c8b8 <_free_r>
  80d948:	80000c15 	stw	zero,48(r16)
  80d94c:	81401117 	ldw	r5,68(r16)
  80d950:	28000326 	beq	r5,zero,80d960 <_fclose_r+0x9c>
  80d954:	8809883a 	mov	r4,r17
  80d958:	080c8b80 	call	80c8b8 <_free_r>
  80d95c:	80001115 	stw	zero,68(r16)
  80d960:	8000030d 	sth	zero,12(r16)
  80d964:	080c4f40 	call	80c4f4 <__sfp_lock_release>
  80d968:	9005883a 	mov	r2,r18
  80d96c:	dfc00317 	ldw	ra,12(sp)
  80d970:	dc800217 	ldw	r18,8(sp)
  80d974:	dc400117 	ldw	r17,4(sp)
  80d978:	dc000017 	ldw	r16,0(sp)
  80d97c:	dec00404 	addi	sp,sp,16
  80d980:	f800283a 	ret
  80d984:	080c4f40 	call	80c4f4 <__sfp_lock_release>
  80d988:	0025883a 	mov	r18,zero
  80d98c:	9005883a 	mov	r2,r18
  80d990:	dfc00317 	ldw	ra,12(sp)
  80d994:	dc800217 	ldw	r18,8(sp)
  80d998:	dc400117 	ldw	r17,4(sp)
  80d99c:	dc000017 	ldw	r16,0(sp)
  80d9a0:	dec00404 	addi	sp,sp,16
  80d9a4:	f800283a 	ret
  80d9a8:	8809883a 	mov	r4,r17
  80d9ac:	080c5000 	call	80c500 <__sinit>
  80d9b0:	8080030f 	ldh	r2,12(r16)
  80d9b4:	103fd11e 	bne	r2,zero,80d8fc <_fclose_r+0x38>
  80d9b8:	003ff206 	br	80d984 <_fclose_r+0xc0>
  80d9bc:	81400417 	ldw	r5,16(r16)
  80d9c0:	8809883a 	mov	r4,r17
  80d9c4:	080c8b80 	call	80c8b8 <_free_r>
  80d9c8:	003fd906 	br	80d930 <_fclose_r+0x6c>
  80d9cc:	04bfffc4 	movi	r18,-1
  80d9d0:	003fd406 	br	80d924 <_fclose_r+0x60>

0080d9d4 <fclose>:
  80d9d4:	00802074 	movhi	r2,129
  80d9d8:	10807a04 	addi	r2,r2,488
  80d9dc:	200b883a 	mov	r5,r4
  80d9e0:	11000017 	ldw	r4,0(r2)
  80d9e4:	080d8c41 	jmpi	80d8c4 <_fclose_r>

0080d9e8 <_fstat_r>:
  80d9e8:	defffd04 	addi	sp,sp,-12
  80d9ec:	dc000015 	stw	r16,0(sp)
  80d9f0:	04002074 	movhi	r16,129
  80d9f4:	84075f04 	addi	r16,r16,7548
  80d9f8:	dc400115 	stw	r17,4(sp)
  80d9fc:	80000015 	stw	zero,0(r16)
  80da00:	2023883a 	mov	r17,r4
  80da04:	2809883a 	mov	r4,r5
  80da08:	300b883a 	mov	r5,r6
  80da0c:	dfc00215 	stw	ra,8(sp)
  80da10:	080ddac0 	call	80ddac <fstat>
  80da14:	1007883a 	mov	r3,r2
  80da18:	00bfffc4 	movi	r2,-1
  80da1c:	18800626 	beq	r3,r2,80da38 <_fstat_r+0x50>
  80da20:	1805883a 	mov	r2,r3
  80da24:	dfc00217 	ldw	ra,8(sp)
  80da28:	dc400117 	ldw	r17,4(sp)
  80da2c:	dc000017 	ldw	r16,0(sp)
  80da30:	dec00304 	addi	sp,sp,12
  80da34:	f800283a 	ret
  80da38:	80800017 	ldw	r2,0(r16)
  80da3c:	103ff826 	beq	r2,zero,80da20 <_fstat_r+0x38>
  80da40:	88800015 	stw	r2,0(r17)
  80da44:	1805883a 	mov	r2,r3
  80da48:	dfc00217 	ldw	ra,8(sp)
  80da4c:	dc400117 	ldw	r17,4(sp)
  80da50:	dc000017 	ldw	r16,0(sp)
  80da54:	dec00304 	addi	sp,sp,12
  80da58:	f800283a 	ret

0080da5c <_isatty_r>:
  80da5c:	defffd04 	addi	sp,sp,-12
  80da60:	dc000015 	stw	r16,0(sp)
  80da64:	04002074 	movhi	r16,129
  80da68:	84075f04 	addi	r16,r16,7548
  80da6c:	dc400115 	stw	r17,4(sp)
  80da70:	80000015 	stw	zero,0(r16)
  80da74:	2023883a 	mov	r17,r4
  80da78:	2809883a 	mov	r4,r5
  80da7c:	dfc00215 	stw	ra,8(sp)
  80da80:	080dee40 	call	80dee4 <isatty>
  80da84:	1007883a 	mov	r3,r2
  80da88:	00bfffc4 	movi	r2,-1
  80da8c:	18800626 	beq	r3,r2,80daa8 <_isatty_r+0x4c>
  80da90:	1805883a 	mov	r2,r3
  80da94:	dfc00217 	ldw	ra,8(sp)
  80da98:	dc400117 	ldw	r17,4(sp)
  80da9c:	dc000017 	ldw	r16,0(sp)
  80daa0:	dec00304 	addi	sp,sp,12
  80daa4:	f800283a 	ret
  80daa8:	80800017 	ldw	r2,0(r16)
  80daac:	103ff826 	beq	r2,zero,80da90 <_isatty_r+0x34>
  80dab0:	88800015 	stw	r2,0(r17)
  80dab4:	1805883a 	mov	r2,r3
  80dab8:	dfc00217 	ldw	ra,8(sp)
  80dabc:	dc400117 	ldw	r17,4(sp)
  80dac0:	dc000017 	ldw	r16,0(sp)
  80dac4:	dec00304 	addi	sp,sp,12
  80dac8:	f800283a 	ret

0080dacc <_lseek_r>:
  80dacc:	defffd04 	addi	sp,sp,-12
  80dad0:	dc000015 	stw	r16,0(sp)
  80dad4:	04002074 	movhi	r16,129
  80dad8:	84075f04 	addi	r16,r16,7548
  80dadc:	dc400115 	stw	r17,4(sp)
  80dae0:	80000015 	stw	zero,0(r16)
  80dae4:	2023883a 	mov	r17,r4
  80dae8:	2809883a 	mov	r4,r5
  80daec:	300b883a 	mov	r5,r6
  80daf0:	380d883a 	mov	r6,r7
  80daf4:	dfc00215 	stw	ra,8(sp)
  80daf8:	080e0080 	call	80e008 <lseek>
  80dafc:	1007883a 	mov	r3,r2
  80db00:	00bfffc4 	movi	r2,-1
  80db04:	18800626 	beq	r3,r2,80db20 <_lseek_r+0x54>
  80db08:	1805883a 	mov	r2,r3
  80db0c:	dfc00217 	ldw	ra,8(sp)
  80db10:	dc400117 	ldw	r17,4(sp)
  80db14:	dc000017 	ldw	r16,0(sp)
  80db18:	dec00304 	addi	sp,sp,12
  80db1c:	f800283a 	ret
  80db20:	80800017 	ldw	r2,0(r16)
  80db24:	103ff826 	beq	r2,zero,80db08 <_lseek_r+0x3c>
  80db28:	88800015 	stw	r2,0(r17)
  80db2c:	1805883a 	mov	r2,r3
  80db30:	dfc00217 	ldw	ra,8(sp)
  80db34:	dc400117 	ldw	r17,4(sp)
  80db38:	dc000017 	ldw	r16,0(sp)
  80db3c:	dec00304 	addi	sp,sp,12
  80db40:	f800283a 	ret

0080db44 <_read_r>:
  80db44:	defffd04 	addi	sp,sp,-12
  80db48:	dc000015 	stw	r16,0(sp)
  80db4c:	04002074 	movhi	r16,129
  80db50:	84075f04 	addi	r16,r16,7548
  80db54:	dc400115 	stw	r17,4(sp)
  80db58:	80000015 	stw	zero,0(r16)
  80db5c:	2023883a 	mov	r17,r4
  80db60:	2809883a 	mov	r4,r5
  80db64:	300b883a 	mov	r5,r6
  80db68:	380d883a 	mov	r6,r7
  80db6c:	dfc00215 	stw	ra,8(sp)
  80db70:	080e15c0 	call	80e15c <read>
  80db74:	1007883a 	mov	r3,r2
  80db78:	00bfffc4 	movi	r2,-1
  80db7c:	18800626 	beq	r3,r2,80db98 <_read_r+0x54>
  80db80:	1805883a 	mov	r2,r3
  80db84:	dfc00217 	ldw	ra,8(sp)
  80db88:	dc400117 	ldw	r17,4(sp)
  80db8c:	dc000017 	ldw	r16,0(sp)
  80db90:	dec00304 	addi	sp,sp,12
  80db94:	f800283a 	ret
  80db98:	80800017 	ldw	r2,0(r16)
  80db9c:	103ff826 	beq	r2,zero,80db80 <_read_r+0x3c>
  80dba0:	88800015 	stw	r2,0(r17)
  80dba4:	1805883a 	mov	r2,r3
  80dba8:	dfc00217 	ldw	ra,8(sp)
  80dbac:	dc400117 	ldw	r17,4(sp)
  80dbb0:	dc000017 	ldw	r16,0(sp)
  80dbb4:	dec00304 	addi	sp,sp,12
  80dbb8:	f800283a 	ret

0080dbbc <udivmodsi4>:
  80dbbc:	29001b2e 	bgeu	r5,r4,80dc2c <udivmodsi4+0x70>
  80dbc0:	28001a16 	blt	r5,zero,80dc2c <udivmodsi4+0x70>
  80dbc4:	00800044 	movi	r2,1
  80dbc8:	0007883a 	mov	r3,zero
  80dbcc:	01c007c4 	movi	r7,31
  80dbd0:	00000306 	br	80dbe0 <udivmodsi4+0x24>
  80dbd4:	19c01326 	beq	r3,r7,80dc24 <udivmodsi4+0x68>
  80dbd8:	18c00044 	addi	r3,r3,1
  80dbdc:	28000416 	blt	r5,zero,80dbf0 <udivmodsi4+0x34>
  80dbe0:	294b883a 	add	r5,r5,r5
  80dbe4:	1085883a 	add	r2,r2,r2
  80dbe8:	293ffa36 	bltu	r5,r4,80dbd4 <udivmodsi4+0x18>
  80dbec:	10000d26 	beq	r2,zero,80dc24 <udivmodsi4+0x68>
  80dbf0:	0007883a 	mov	r3,zero
  80dbf4:	21400236 	bltu	r4,r5,80dc00 <udivmodsi4+0x44>
  80dbf8:	2149c83a 	sub	r4,r4,r5
  80dbfc:	1886b03a 	or	r3,r3,r2
  80dc00:	1004d07a 	srli	r2,r2,1
  80dc04:	280ad07a 	srli	r5,r5,1
  80dc08:	103ffa1e 	bne	r2,zero,80dbf4 <udivmodsi4+0x38>
  80dc0c:	30000226 	beq	r6,zero,80dc18 <udivmodsi4+0x5c>
  80dc10:	2005883a 	mov	r2,r4
  80dc14:	f800283a 	ret
  80dc18:	1809883a 	mov	r4,r3
  80dc1c:	2005883a 	mov	r2,r4
  80dc20:	f800283a 	ret
  80dc24:	0007883a 	mov	r3,zero
  80dc28:	003ff806 	br	80dc0c <udivmodsi4+0x50>
  80dc2c:	00800044 	movi	r2,1
  80dc30:	0007883a 	mov	r3,zero
  80dc34:	003fef06 	br	80dbf4 <udivmodsi4+0x38>

0080dc38 <__divsi3>:
  80dc38:	defffe04 	addi	sp,sp,-8
  80dc3c:	dc000015 	stw	r16,0(sp)
  80dc40:	dfc00115 	stw	ra,4(sp)
  80dc44:	0021883a 	mov	r16,zero
  80dc48:	20000c16 	blt	r4,zero,80dc7c <__divsi3+0x44>
  80dc4c:	000d883a 	mov	r6,zero
  80dc50:	28000e16 	blt	r5,zero,80dc8c <__divsi3+0x54>
  80dc54:	080dbbc0 	call	80dbbc <udivmodsi4>
  80dc58:	1007883a 	mov	r3,r2
  80dc5c:	8005003a 	cmpeq	r2,r16,zero
  80dc60:	1000011e 	bne	r2,zero,80dc68 <__divsi3+0x30>
  80dc64:	00c7c83a 	sub	r3,zero,r3
  80dc68:	1805883a 	mov	r2,r3
  80dc6c:	dfc00117 	ldw	ra,4(sp)
  80dc70:	dc000017 	ldw	r16,0(sp)
  80dc74:	dec00204 	addi	sp,sp,8
  80dc78:	f800283a 	ret
  80dc7c:	0109c83a 	sub	r4,zero,r4
  80dc80:	04000044 	movi	r16,1
  80dc84:	000d883a 	mov	r6,zero
  80dc88:	283ff20e 	bge	r5,zero,80dc54 <__divsi3+0x1c>
  80dc8c:	014bc83a 	sub	r5,zero,r5
  80dc90:	8021003a 	cmpeq	r16,r16,zero
  80dc94:	003fef06 	br	80dc54 <__divsi3+0x1c>

0080dc98 <__modsi3>:
  80dc98:	deffff04 	addi	sp,sp,-4
  80dc9c:	dfc00015 	stw	ra,0(sp)
  80dca0:	01800044 	movi	r6,1
  80dca4:	2807883a 	mov	r3,r5
  80dca8:	20000416 	blt	r4,zero,80dcbc <__modsi3+0x24>
  80dcac:	28000c16 	blt	r5,zero,80dce0 <__modsi3+0x48>
  80dcb0:	dfc00017 	ldw	ra,0(sp)
  80dcb4:	dec00104 	addi	sp,sp,4
  80dcb8:	080dbbc1 	jmpi	80dbbc <udivmodsi4>
  80dcbc:	0109c83a 	sub	r4,zero,r4
  80dcc0:	28000b16 	blt	r5,zero,80dcf0 <__modsi3+0x58>
  80dcc4:	180b883a 	mov	r5,r3
  80dcc8:	01800044 	movi	r6,1
  80dccc:	080dbbc0 	call	80dbbc <udivmodsi4>
  80dcd0:	0085c83a 	sub	r2,zero,r2
  80dcd4:	dfc00017 	ldw	ra,0(sp)
  80dcd8:	dec00104 	addi	sp,sp,4
  80dcdc:	f800283a 	ret
  80dce0:	014bc83a 	sub	r5,zero,r5
  80dce4:	dfc00017 	ldw	ra,0(sp)
  80dce8:	dec00104 	addi	sp,sp,4
  80dcec:	080dbbc1 	jmpi	80dbbc <udivmodsi4>
  80dcf0:	0147c83a 	sub	r3,zero,r5
  80dcf4:	003ff306 	br	80dcc4 <__modsi3+0x2c>

0080dcf8 <__udivsi3>:
  80dcf8:	000d883a 	mov	r6,zero
  80dcfc:	080dbbc1 	jmpi	80dbbc <udivmodsi4>

0080dd00 <__umodsi3>:
  80dd00:	01800044 	movi	r6,1
  80dd04:	080dbbc1 	jmpi	80dbbc <udivmodsi4>

0080dd08 <__mulsi3>:
  80dd08:	20000a26 	beq	r4,zero,80dd34 <__mulsi3+0x2c>
  80dd0c:	0007883a 	mov	r3,zero
  80dd10:	2080004c 	andi	r2,r4,1
  80dd14:	1005003a 	cmpeq	r2,r2,zero
  80dd18:	2008d07a 	srli	r4,r4,1
  80dd1c:	1000011e 	bne	r2,zero,80dd24 <__mulsi3+0x1c>
  80dd20:	1947883a 	add	r3,r3,r5
  80dd24:	294b883a 	add	r5,r5,r5
  80dd28:	203ff91e 	bne	r4,zero,80dd10 <__mulsi3+0x8>
  80dd2c:	1805883a 	mov	r2,r3
  80dd30:	f800283a 	ret
  80dd34:	0007883a 	mov	r3,zero
  80dd38:	1805883a 	mov	r2,r3
  80dd3c:	f800283a 	ret

0080dd40 <alt_sim_halt>:

/*
 * Routine called on exit.
 */
static ALT_ALWAYS_INLINE void alt_sim_halt(int exit_code)
{
  80dd40:	defffd04 	addi	sp,sp,-12
  80dd44:	df000215 	stw	fp,8(sp)
  80dd48:	df000204 	addi	fp,sp,8
  80dd4c:	e13fff15 	stw	r4,-4(fp)
  int r2 = exit_code;
  80dd50:	e0bfff17 	ldw	r2,-4(fp)
  80dd54:	e0bffe15 	stw	r2,-8(fp)
  __asm__ volatile ("\n0:\n\taddi %0,%0, -1\n\tbgt %0,zero,0b" : : "r" (ALT_CPU_FREQ/100) ); /* Delay for >30ms */

  __asm__ volatile ("break 2" : : "D02"(r2), "D03"(r3) ALT_GMON_DATA );

#else /* !DEBUG_STUB */
  if (r2) {
  80dd58:	e0bffe17 	ldw	r2,-8(fp)
  80dd5c:	1005003a 	cmpeq	r2,r2,zero
  80dd60:	1000021e 	bne	r2,zero,80dd6c <alt_sim_halt+0x2c>
    ALT_SIM_FAIL();
  80dd64:	002af070 	cmpltui	zero,zero,43969
  80dd68:	00000106 	br	80dd70 <alt_sim_halt+0x30>
  } else {
    ALT_SIM_PASS();
  80dd6c:	002af0b0 	cmpltui	zero,zero,43970
  }
#endif /* DEBUG_STUB */
}
  80dd70:	e037883a 	mov	sp,fp
  80dd74:	df000017 	ldw	fp,0(sp)
  80dd78:	dec00104 	addi	sp,sp,4
  80dd7c:	f800283a 	ret

0080dd80 <_exit>:
 *
 * ALT_EXIT is mapped onto the _exit() system call in alt_syscall.h
 */

void ALT_EXIT (int exit_code)
{
  80dd80:	defffd04 	addi	sp,sp,-12
  80dd84:	dfc00215 	stw	ra,8(sp)
  80dd88:	df000115 	stw	fp,4(sp)
  80dd8c:	df000104 	addi	fp,sp,4
  80dd90:	e13fff15 	stw	r4,-4(fp)
  ALT_LOG_PRINT_BOOT("[alt_exit.c] Entering _exit() function.\r\n");
  ALT_LOG_PRINT_BOOT("[alt_exit.c] Exit code from main was %d.\r\n",exit_code);
  /* Stop all other threads */

  ALT_LOG_PRINT_BOOT("[alt_exit.c] Calling ALT_OS_STOP().\r\n");
  ALT_OS_STOP();
  80dd94:	00802074 	movhi	r2,129
  80dd98:	10874744 	addi	r2,r2,7453
  80dd9c:	10000005 	stb	zero,0(r2)

  /* Provide notification to the simulator that we've stopped */

  ALT_LOG_PRINT_BOOT("[alt_exit.c] Calling ALT_SIM_HALT().\r\n");
  ALT_SIM_HALT(exit_code);
  80dda0:	e13fff17 	ldw	r4,-4(fp)
  80dda4:	080dd400 	call	80dd40 <alt_sim_halt>

  /* spin forever, since there's no where to go back to */

  ALT_LOG_PRINT_BOOT("[alt_exit.c] Spinning forever.\r\n");
  while (1);
  80dda8:	003fff06 	br	80dda8 <_exit+0x28>

0080ddac <fstat>:
}

#else /* !ALT_USE_DIRECT_DRIVERS */

int ALT_FSTAT (int file, struct stat *st)
{
  80ddac:	defff904 	addi	sp,sp,-28
  80ddb0:	dfc00615 	stw	ra,24(sp)
  80ddb4:	df000515 	stw	fp,20(sp)
  80ddb8:	df000504 	addi	fp,sp,20
  80ddbc:	e13ffc15 	stw	r4,-16(fp)
  80ddc0:	e17ffd15 	stw	r5,-12(fp)
   * A common error case is that when the file descriptor was created, the call
   * to open() failed resulting in a negative file descriptor. This is trapped
   * below so that we don't try and process an invalid file descriptor.
   */

  fd = (file < 0) ? NULL : &alt_fd_list[file];
  80ddc4:	e0bffc17 	ldw	r2,-16(fp)
  80ddc8:	1004803a 	cmplt	r2,r2,zero
  80ddcc:	1000091e 	bne	r2,zero,80ddf4 <fstat+0x48>
  80ddd0:	e13ffc17 	ldw	r4,-16(fp)
  80ddd4:	01400304 	movi	r5,12
  80ddd8:	080dd080 	call	80dd08 <__mulsi3>
  80dddc:	1007883a 	mov	r3,r2
  80dde0:	00802074 	movhi	r2,129
  80dde4:	10bdf004 	addi	r2,r2,-2112
  80dde8:	1887883a 	add	r3,r3,r2
  80ddec:	e0ffff15 	stw	r3,-4(fp)
  80ddf0:	00000106 	br	80ddf8 <fstat+0x4c>
  80ddf4:	e03fff15 	stw	zero,-4(fp)
  80ddf8:	e0bfff17 	ldw	r2,-4(fp)
  80ddfc:	e0bffb15 	stw	r2,-20(fp)
  
  if (fd)
  80de00:	e0bffb17 	ldw	r2,-20(fp)
  80de04:	1005003a 	cmpeq	r2,r2,zero
  80de08:	1000121e 	bne	r2,zero,80de54 <fstat+0xa8>
  {
    /* Call the drivers fstat() function to fill out the "st" structure. */

    if (fd->dev->fstat)
  80de0c:	e0bffb17 	ldw	r2,-20(fp)
  80de10:	10800017 	ldw	r2,0(r2)
  80de14:	10800817 	ldw	r2,32(r2)
  80de18:	1005003a 	cmpeq	r2,r2,zero
  80de1c:	1000081e 	bne	r2,zero,80de40 <fstat+0x94>
    {
      return fd->dev->fstat(fd, st);
  80de20:	e0bffb17 	ldw	r2,-20(fp)
  80de24:	10800017 	ldw	r2,0(r2)
  80de28:	10800817 	ldw	r2,32(r2)
  80de2c:	e13ffb17 	ldw	r4,-20(fp)
  80de30:	e17ffd17 	ldw	r5,-12(fp)
  80de34:	103ee83a 	callr	r2
  80de38:	e0bffe15 	stw	r2,-8(fp)
  80de3c:	00000b06 	br	80de6c <fstat+0xc0>
     * device.
     */
 
    else
    {
      st->st_mode = _IFCHR;
  80de40:	e0fffd17 	ldw	r3,-12(fp)
  80de44:	00880004 	movi	r2,8192
  80de48:	18800115 	stw	r2,4(r3)
      return 0;
  80de4c:	e03ffe15 	stw	zero,-8(fp)
  80de50:	00000606 	br	80de6c <fstat+0xc0>
    }
  }
  else
  {
    ALT_ERRNO = EBADFD;
  80de54:	080de840 	call	80de84 <alt_get_errno>
  80de58:	1007883a 	mov	r3,r2
  80de5c:	00801444 	movi	r2,81
  80de60:	18800015 	stw	r2,0(r3)
    return -1;
  80de64:	00bfffc4 	movi	r2,-1
  80de68:	e0bffe15 	stw	r2,-8(fp)
  80de6c:	e0bffe17 	ldw	r2,-8(fp)
  }
}
  80de70:	e037883a 	mov	sp,fp
  80de74:	dfc00117 	ldw	ra,4(sp)
  80de78:	df000017 	ldw	fp,0(sp)
  80de7c:	dec00204 	addi	sp,sp,8
  80de80:	f800283a 	ret

0080de84 <alt_get_errno>:
#undef errno

extern int errno;

static ALT_INLINE int* alt_get_errno(void)
{
  80de84:	defffd04 	addi	sp,sp,-12
  80de88:	dfc00215 	stw	ra,8(sp)
  80de8c:	df000115 	stw	fp,4(sp)
  80de90:	df000104 	addi	fp,sp,4
  return ((alt_errno) ? alt_errno() : &errno);
  80de94:	00802074 	movhi	r2,129
  80de98:	10807604 	addi	r2,r2,472
  80de9c:	10800017 	ldw	r2,0(r2)
  80dea0:	1005003a 	cmpeq	r2,r2,zero
  80dea4:	1000061e 	bne	r2,zero,80dec0 <alt_get_errno+0x3c>
  80dea8:	00802074 	movhi	r2,129
  80deac:	10807604 	addi	r2,r2,472
  80deb0:	10800017 	ldw	r2,0(r2)
  80deb4:	103ee83a 	callr	r2
  80deb8:	e0bfff15 	stw	r2,-4(fp)
  80debc:	00000306 	br	80decc <alt_get_errno+0x48>
  80dec0:	00802074 	movhi	r2,129
  80dec4:	10875f04 	addi	r2,r2,7548
  80dec8:	e0bfff15 	stw	r2,-4(fp)
  80decc:	e0bfff17 	ldw	r2,-4(fp)
}
  80ded0:	e037883a 	mov	sp,fp
  80ded4:	dfc00117 	ldw	ra,4(sp)
  80ded8:	df000017 	ldw	fp,0(sp)
  80dedc:	dec00204 	addi	sp,sp,8
  80dee0:	f800283a 	ret

0080dee4 <isatty>:
 *
 * ALT_ISATTY is mapped onto the isatty() system call in alt_syscall.h
 */
 
int ALT_ISATTY (int file)
{
  80dee4:	deffeb04 	addi	sp,sp,-84
  80dee8:	dfc01415 	stw	ra,80(sp)
  80deec:	df001315 	stw	fp,76(sp)
  80def0:	df001304 	addi	fp,sp,76
  80def4:	e13ffd15 	stw	r4,-12(fp)
   * A common error case is that when the file descriptor was created, the call
   * to open() failed resulting in a negative file descriptor. This is trapped
   * below so that we don't try and process an invalid file descriptor.
   */

  fd = (file < 0) ? NULL : &alt_fd_list[file];
  80def8:	e0bffd17 	ldw	r2,-12(fp)
  80defc:	1004803a 	cmplt	r2,r2,zero
  80df00:	1000091e 	bne	r2,zero,80df28 <isatty+0x44>
  80df04:	e13ffd17 	ldw	r4,-12(fp)
  80df08:	01400304 	movi	r5,12
  80df0c:	080dd080 	call	80dd08 <__mulsi3>
  80df10:	1007883a 	mov	r3,r2
  80df14:	00802074 	movhi	r2,129
  80df18:	10bdf004 	addi	r2,r2,-2112
  80df1c:	1887883a 	add	r3,r3,r2
  80df20:	e0ffff15 	stw	r3,-4(fp)
  80df24:	00000106 	br	80df2c <isatty+0x48>
  80df28:	e03fff15 	stw	zero,-4(fp)
  80df2c:	e0bfff17 	ldw	r2,-4(fp)
  80df30:	e0bfed15 	stw	r2,-76(fp)
  
  if (fd)
  80df34:	e0bfed17 	ldw	r2,-76(fp)
  80df38:	1005003a 	cmpeq	r2,r2,zero
  80df3c:	10000f1e 	bne	r2,zero,80df7c <isatty+0x98>
    /*
     * If a device driver does not provide an fstat() function, then it is 
     * treated as a terminal device by default.
     */

    if (!fd->dev->fstat)
  80df40:	e0bfed17 	ldw	r2,-76(fp)
  80df44:	10800017 	ldw	r2,0(r2)
  80df48:	10800817 	ldw	r2,32(r2)
  80df4c:	1004c03a 	cmpne	r2,r2,zero
  80df50:	1000031e 	bne	r2,zero,80df60 <isatty+0x7c>
    {
      return 1;
  80df54:	00800044 	movi	r2,1
  80df58:	e0bffe15 	stw	r2,-8(fp)
  80df5c:	00000c06 	br	80df90 <isatty+0xac>
     * this is called so that the device can identify itself.
     */ 

    else
    {
      fstat (file, &stat);
  80df60:	e17fee04 	addi	r5,fp,-72
  80df64:	e13ffd17 	ldw	r4,-12(fp)
  80df68:	080ddac0 	call	80ddac <fstat>
      return (stat.st_mode == _IFCHR) ? 1 : 0;
  80df6c:	e0bfef17 	ldw	r2,-68(fp)
  80df70:	10880020 	cmpeqi	r2,r2,8192
  80df74:	e0bffe15 	stw	r2,-8(fp)
  80df78:	00000506 	br	80df90 <isatty+0xac>
    }
  }
  else
  {
    ALT_ERRNO = EBADFD;
  80df7c:	080dfa80 	call	80dfa8 <alt_get_errno>
  80df80:	1007883a 	mov	r3,r2
  80df84:	00801444 	movi	r2,81
  80df88:	18800015 	stw	r2,0(r3)
    return 0;
  80df8c:	e03ffe15 	stw	zero,-8(fp)
  80df90:	e0bffe17 	ldw	r2,-8(fp)
  }
}
  80df94:	e037883a 	mov	sp,fp
  80df98:	dfc00117 	ldw	ra,4(sp)
  80df9c:	df000017 	ldw	fp,0(sp)
  80dfa0:	dec00204 	addi	sp,sp,8
  80dfa4:	f800283a 	ret

0080dfa8 <alt_get_errno>:
#undef errno

extern int errno;

static ALT_INLINE int* alt_get_errno(void)
{
  80dfa8:	defffd04 	addi	sp,sp,-12
  80dfac:	dfc00215 	stw	ra,8(sp)
  80dfb0:	df000115 	stw	fp,4(sp)
  80dfb4:	df000104 	addi	fp,sp,4
  return ((alt_errno) ? alt_errno() : &errno);
  80dfb8:	00802074 	movhi	r2,129
  80dfbc:	10807604 	addi	r2,r2,472
  80dfc0:	10800017 	ldw	r2,0(r2)
  80dfc4:	1005003a 	cmpeq	r2,r2,zero
  80dfc8:	1000061e 	bne	r2,zero,80dfe4 <alt_get_errno+0x3c>
  80dfcc:	00802074 	movhi	r2,129
  80dfd0:	10807604 	addi	r2,r2,472
  80dfd4:	10800017 	ldw	r2,0(r2)
  80dfd8:	103ee83a 	callr	r2
  80dfdc:	e0bfff15 	stw	r2,-4(fp)
  80dfe0:	00000306 	br	80dff0 <alt_get_errno+0x48>
  80dfe4:	00802074 	movhi	r2,129
  80dfe8:	10875f04 	addi	r2,r2,7548
  80dfec:	e0bfff15 	stw	r2,-4(fp)
  80dff0:	e0bfff17 	ldw	r2,-4(fp)
}
  80dff4:	e037883a 	mov	sp,fp
  80dff8:	dfc00117 	ldw	ra,4(sp)
  80dffc:	df000017 	ldw	fp,0(sp)
  80e000:	dec00204 	addi	sp,sp,8
  80e004:	f800283a 	ret

0080e008 <lseek>:
 * ALT_LSEEK is mapped onto the lseek() system call in alt_syscall.h
 *
 */

off_t ALT_LSEEK (int file, off_t ptr, int dir)
{
  80e008:	defff804 	addi	sp,sp,-32
  80e00c:	dfc00715 	stw	ra,28(sp)
  80e010:	df000615 	stw	fp,24(sp)
  80e014:	df000604 	addi	fp,sp,24
  80e018:	e13ffc15 	stw	r4,-16(fp)
  80e01c:	e17ffd15 	stw	r5,-12(fp)
  80e020:	e1bffe15 	stw	r6,-8(fp)
  alt_fd* fd;
  off_t   rc = 0; 
  80e024:	e03ffa15 	stw	zero,-24(fp)
   * A common error case is that when the file descriptor was created, the call
   * to open() failed resulting in a negative file descriptor. This is trapped
   * below so that we don't try and process an invalid file descriptor.
   */

  fd = (file < 0) ? NULL : &alt_fd_list[file];
  80e028:	e0bffc17 	ldw	r2,-16(fp)
  80e02c:	1004803a 	cmplt	r2,r2,zero
  80e030:	1000091e 	bne	r2,zero,80e058 <lseek+0x50>
  80e034:	e13ffc17 	ldw	r4,-16(fp)
  80e038:	01400304 	movi	r5,12
  80e03c:	080dd080 	call	80dd08 <__mulsi3>
  80e040:	1007883a 	mov	r3,r2
  80e044:	00802074 	movhi	r2,129
  80e048:	10bdf004 	addi	r2,r2,-2112
  80e04c:	1887883a 	add	r3,r3,r2
  80e050:	e0ffff15 	stw	r3,-4(fp)
  80e054:	00000106 	br	80e05c <lseek+0x54>
  80e058:	e03fff15 	stw	zero,-4(fp)
  80e05c:	e0bfff17 	ldw	r2,-4(fp)
  80e060:	e0bffb15 	stw	r2,-20(fp)
  
  if (fd) 
  80e064:	e0bffb17 	ldw	r2,-20(fp)
  80e068:	1005003a 	cmpeq	r2,r2,zero
  80e06c:	1000111e 	bne	r2,zero,80e0b4 <lseek+0xac>
    /*
     * If the device driver provides an implementation of the lseek() function,
     * then call that to process the request.
     */
 
    if (fd->dev->lseek)
  80e070:	e0bffb17 	ldw	r2,-20(fp)
  80e074:	10800017 	ldw	r2,0(r2)
  80e078:	10800717 	ldw	r2,28(r2)
  80e07c:	1005003a 	cmpeq	r2,r2,zero
  80e080:	1000091e 	bne	r2,zero,80e0a8 <lseek+0xa0>
    {
      rc = fd->dev->lseek(fd, ptr, dir);
  80e084:	e0bffb17 	ldw	r2,-20(fp)
  80e088:	10800017 	ldw	r2,0(r2)
  80e08c:	10800717 	ldw	r2,28(r2)
  80e090:	e13ffb17 	ldw	r4,-20(fp)
  80e094:	e17ffd17 	ldw	r5,-12(fp)
  80e098:	e1bffe17 	ldw	r6,-8(fp)
  80e09c:	103ee83a 	callr	r2
  80e0a0:	e0bffa15 	stw	r2,-24(fp)
  80e0a4:	00000506 	br	80e0bc <lseek+0xb4>
     * Otherwise return an error.
     */

    else
    {
      rc = -ENOTSUP;
  80e0a8:	00bfde84 	movi	r2,-134
  80e0ac:	e0bffa15 	stw	r2,-24(fp)
  80e0b0:	00000206 	br	80e0bc <lseek+0xb4>
    }
  }
  else  
  {
    rc = -EBADFD;
  80e0b4:	00bfebc4 	movi	r2,-81
  80e0b8:	e0bffa15 	stw	r2,-24(fp)
  }

  if (rc < 0)
  80e0bc:	e0bffa17 	ldw	r2,-24(fp)
  80e0c0:	1004403a 	cmpge	r2,r2,zero
  80e0c4:	1000071e 	bne	r2,zero,80e0e4 <lseek+0xdc>
  {
    ALT_ERRNO = -rc;
  80e0c8:	080e0fc0 	call	80e0fc <alt_get_errno>
  80e0cc:	1007883a 	mov	r3,r2
  80e0d0:	e0bffa17 	ldw	r2,-24(fp)
  80e0d4:	0085c83a 	sub	r2,zero,r2
  80e0d8:	18800015 	stw	r2,0(r3)
    rc = -1;
  80e0dc:	00bfffc4 	movi	r2,-1
  80e0e0:	e0bffa15 	stw	r2,-24(fp)
  }

  return rc;
  80e0e4:	e0bffa17 	ldw	r2,-24(fp)
}
  80e0e8:	e037883a 	mov	sp,fp
  80e0ec:	dfc00117 	ldw	ra,4(sp)
  80e0f0:	df000017 	ldw	fp,0(sp)
  80e0f4:	dec00204 	addi	sp,sp,8
  80e0f8:	f800283a 	ret

0080e0fc <alt_get_errno>:
#undef errno

extern int errno;

static ALT_INLINE int* alt_get_errno(void)
{
  80e0fc:	defffd04 	addi	sp,sp,-12
  80e100:	dfc00215 	stw	ra,8(sp)
  80e104:	df000115 	stw	fp,4(sp)
  80e108:	df000104 	addi	fp,sp,4
  return ((alt_errno) ? alt_errno() : &errno);
  80e10c:	00802074 	movhi	r2,129
  80e110:	10807604 	addi	r2,r2,472
  80e114:	10800017 	ldw	r2,0(r2)
  80e118:	1005003a 	cmpeq	r2,r2,zero
  80e11c:	1000061e 	bne	r2,zero,80e138 <alt_get_errno+0x3c>
  80e120:	00802074 	movhi	r2,129
  80e124:	10807604 	addi	r2,r2,472
  80e128:	10800017 	ldw	r2,0(r2)
  80e12c:	103ee83a 	callr	r2
  80e130:	e0bfff15 	stw	r2,-4(fp)
  80e134:	00000306 	br	80e144 <alt_get_errno+0x48>
  80e138:	00802074 	movhi	r2,129
  80e13c:	10875f04 	addi	r2,r2,7548
  80e140:	e0bfff15 	stw	r2,-4(fp)
  80e144:	e0bfff17 	ldw	r2,-4(fp)
}
  80e148:	e037883a 	mov	sp,fp
  80e14c:	dfc00117 	ldw	ra,4(sp)
  80e150:	df000017 	ldw	fp,0(sp)
  80e154:	dec00204 	addi	sp,sp,8
  80e158:	f800283a 	ret

0080e15c <read>:
}

#else /* !ALT_USE_DIRECT_DRIVERS */

int ALT_READ (int file, void *ptr, size_t len)
{
  80e15c:	defff704 	addi	sp,sp,-36
  80e160:	dfc00815 	stw	ra,32(sp)
  80e164:	df000715 	stw	fp,28(sp)
  80e168:	df000704 	addi	fp,sp,28
  80e16c:	e13ffb15 	stw	r4,-20(fp)
  80e170:	e17ffc15 	stw	r5,-16(fp)
  80e174:	e1bffd15 	stw	r6,-12(fp)
   * A common error case is that when the file descriptor was created, the call
   * to open() failed resulting in a negative file descriptor. This is trapped
   * below so that we don't try and process an invalid file descriptor.
   */

  fd = (file < 0) ? NULL : &alt_fd_list[file];
  80e178:	e0bffb17 	ldw	r2,-20(fp)
  80e17c:	1004803a 	cmplt	r2,r2,zero
  80e180:	1000091e 	bne	r2,zero,80e1a8 <read+0x4c>
  80e184:	e13ffb17 	ldw	r4,-20(fp)
  80e188:	01400304 	movi	r5,12
  80e18c:	080dd080 	call	80dd08 <__mulsi3>
  80e190:	1007883a 	mov	r3,r2
  80e194:	00802074 	movhi	r2,129
  80e198:	10bdf004 	addi	r2,r2,-2112
  80e19c:	1887883a 	add	r3,r3,r2
  80e1a0:	e0ffff15 	stw	r3,-4(fp)
  80e1a4:	00000106 	br	80e1ac <read+0x50>
  80e1a8:	e03fff15 	stw	zero,-4(fp)
  80e1ac:	e0bfff17 	ldw	r2,-4(fp)
  80e1b0:	e0bffa15 	stw	r2,-24(fp)
  
  if (fd)
  80e1b4:	e0bffa17 	ldw	r2,-24(fp)
  80e1b8:	1005003a 	cmpeq	r2,r2,zero
  80e1bc:	1000241e 	bne	r2,zero,80e250 <read+0xf4>
     * If the file has not been opened with read access, or if the driver does
     * not provide an implementation of read(), generate an error. Otherwise
     * call the drivers read() function to process the request.
     */

    if (((fd->fd_flags & O_ACCMODE) != O_WRONLY) && 
  80e1c0:	e0bffa17 	ldw	r2,-24(fp)
  80e1c4:	10800217 	ldw	r2,8(r2)
  80e1c8:	108000cc 	andi	r2,r2,3
  80e1cc:	10800060 	cmpeqi	r2,r2,1
  80e1d0:	10001a1e 	bne	r2,zero,80e23c <read+0xe0>
  80e1d4:	e0bffa17 	ldw	r2,-24(fp)
  80e1d8:	10800017 	ldw	r2,0(r2)
  80e1dc:	10800517 	ldw	r2,20(r2)
  80e1e0:	1005003a 	cmpeq	r2,r2,zero
  80e1e4:	1000151e 	bne	r2,zero,80e23c <read+0xe0>
        (fd->dev->read))
      {
        if ((rval = fd->dev->read(fd, ptr, len)) < 0)
  80e1e8:	e0bffa17 	ldw	r2,-24(fp)
  80e1ec:	10800017 	ldw	r2,0(r2)
  80e1f0:	10800517 	ldw	r2,20(r2)
  80e1f4:	e17ffc17 	ldw	r5,-16(fp)
  80e1f8:	e1bffd17 	ldw	r6,-12(fp)
  80e1fc:	e13ffa17 	ldw	r4,-24(fp)
  80e200:	103ee83a 	callr	r2
  80e204:	e0bff915 	stw	r2,-28(fp)
  80e208:	e0bff917 	ldw	r2,-28(fp)
  80e20c:	1004403a 	cmpge	r2,r2,zero
  80e210:	1000071e 	bne	r2,zero,80e230 <read+0xd4>
        {
          ALT_ERRNO = -rval;
  80e214:	080e2800 	call	80e280 <alt_get_errno>
  80e218:	e0fff917 	ldw	r3,-28(fp)
  80e21c:	00c7c83a 	sub	r3,zero,r3
  80e220:	10c00015 	stw	r3,0(r2)
          return -1;
  80e224:	00bfffc4 	movi	r2,-1
  80e228:	e0bffe15 	stw	r2,-8(fp)
  80e22c:	00000e06 	br	80e268 <read+0x10c>
        }
        return rval;
  80e230:	e0bff917 	ldw	r2,-28(fp)
  80e234:	e0bffe15 	stw	r2,-8(fp)
  80e238:	00000b06 	br	80e268 <read+0x10c>
      }
      else
      {
        ALT_ERRNO = EACCES;
  80e23c:	080e2800 	call	80e280 <alt_get_errno>
  80e240:	1007883a 	mov	r3,r2
  80e244:	00800344 	movi	r2,13
  80e248:	18800015 	stw	r2,0(r3)
  80e24c:	00000406 	br	80e260 <read+0x104>
      }
    }
  else
  {
    ALT_ERRNO = EBADFD;
  80e250:	080e2800 	call	80e280 <alt_get_errno>
  80e254:	1007883a 	mov	r3,r2
  80e258:	00801444 	movi	r2,81
  80e25c:	18800015 	stw	r2,0(r3)
  }
  return -1;
  80e260:	00bfffc4 	movi	r2,-1
  80e264:	e0bffe15 	stw	r2,-8(fp)
  80e268:	e0bffe17 	ldw	r2,-8(fp)
}
  80e26c:	e037883a 	mov	sp,fp
  80e270:	dfc00117 	ldw	ra,4(sp)
  80e274:	df000017 	ldw	fp,0(sp)
  80e278:	dec00204 	addi	sp,sp,8
  80e27c:	f800283a 	ret

0080e280 <alt_get_errno>:
#undef errno

extern int errno;

static ALT_INLINE int* alt_get_errno(void)
{
  80e280:	defffd04 	addi	sp,sp,-12
  80e284:	dfc00215 	stw	ra,8(sp)
  80e288:	df000115 	stw	fp,4(sp)
  80e28c:	df000104 	addi	fp,sp,4
  return ((alt_errno) ? alt_errno() : &errno);
  80e290:	00802074 	movhi	r2,129
  80e294:	10807604 	addi	r2,r2,472
  80e298:	10800017 	ldw	r2,0(r2)
  80e29c:	1005003a 	cmpeq	r2,r2,zero
  80e2a0:	1000061e 	bne	r2,zero,80e2bc <alt_get_errno+0x3c>
  80e2a4:	00802074 	movhi	r2,129
  80e2a8:	10807604 	addi	r2,r2,472
  80e2ac:	10800017 	ldw	r2,0(r2)
  80e2b0:	103ee83a 	callr	r2
  80e2b4:	e0bfff15 	stw	r2,-4(fp)
  80e2b8:	00000306 	br	80e2c8 <alt_get_errno+0x48>
  80e2bc:	00802074 	movhi	r2,129
  80e2c0:	10875f04 	addi	r2,r2,7548
  80e2c4:	e0bfff15 	stw	r2,-4(fp)
  80e2c8:	e0bfff17 	ldw	r2,-4(fp)
}
  80e2cc:	e037883a 	mov	sp,fp
  80e2d0:	dfc00117 	ldw	ra,4(sp)
  80e2d4:	df000017 	ldw	fp,0(sp)
  80e2d8:	dec00204 	addi	sp,sp,8
  80e2dc:	f800283a 	ret

0080e2e0 <sbrk>:
#endif
 
caddr_t ALT_SBRK (int incr) __attribute__ ((no_instrument_function ));

caddr_t ALT_SBRK (int incr)
{ 
  80e2e0:	defff804 	addi	sp,sp,-32
  80e2e4:	df000715 	stw	fp,28(sp)
  80e2e8:	df000704 	addi	fp,sp,28
  80e2ec:	e13ffe15 	stw	r4,-8(fp)
static ALT_INLINE alt_irq_context ALT_ALWAYS_INLINE 
       alt_irq_disable_all (void)
{
  alt_irq_context context;

  NIOS2_READ_STATUS (context);
  80e2f0:	0005303a 	rdctl	r2,status
  80e2f4:	e0bffb15 	stw	r2,-20(fp)

  NIOS2_WRITE_STATUS (context & ~NIOS2_STATUS_PIE_MSK);
  80e2f8:	e0fffb17 	ldw	r3,-20(fp)
  80e2fc:	00bfff84 	movi	r2,-2
  80e300:	1884703a 	and	r2,r3,r2
  80e304:	1001703a 	wrctl	status,r2
  
  return context;
  80e308:	e0bffb17 	ldw	r2,-20(fp)
  alt_irq_context context;
  char *prev_heap_end; 

  context = alt_irq_disable_all();
  80e30c:	e0bffd15 	stw	r2,-12(fp)

  /* Always return data aligned on a word boundary */
  heap_end = (char *)(((unsigned int)heap_end + 3) & ~3);
  80e310:	d0a02c17 	ldw	r2,-32592(gp)
  80e314:	10c000c4 	addi	r3,r2,3
  80e318:	00bfff04 	movi	r2,-4
  80e31c:	1884703a 	and	r2,r3,r2
  80e320:	d0a02c15 	stw	r2,-32592(gp)
  if (((heap_end + incr) - __alt_heap_start) > ALT_MAX_HEAP_BYTES) {
    alt_irq_enable_all(context);
    return (caddr_t)-1;
  }
#else
  if ((heap_end + incr) > __alt_heap_limit) {
  80e324:	d0e02c17 	ldw	r3,-32592(gp)
  80e328:	e0bffe17 	ldw	r2,-8(fp)
  80e32c:	1887883a 	add	r3,r3,r2
  80e330:	00804034 	movhi	r2,256
  80e334:	10800004 	addi	r2,r2,0
  80e338:	10c0072e 	bgeu	r2,r3,80e358 <sbrk+0x78>
  80e33c:	e0bffd17 	ldw	r2,-12(fp)
  80e340:	e0bffa15 	stw	r2,-24(fp)
  status &= ~NIOS2_STATUS_PIE_MSK;
  status |= (context & NIOS2_STATUS_PIE_MSK);
  
  NIOS2_WRITE_STATUS (status);
#else
  NIOS2_WRITE_STATUS (context);
  80e344:	e0bffa17 	ldw	r2,-24(fp)
  80e348:	1001703a 	wrctl	status,r2
    alt_irq_enable_all(context);
    return (caddr_t)-1;
  80e34c:	00bfffc4 	movi	r2,-1
  80e350:	e0bfff15 	stw	r2,-4(fp)
  80e354:	00000c06 	br	80e388 <sbrk+0xa8>
  }
#endif

  prev_heap_end = heap_end; 
  80e358:	d0a02c17 	ldw	r2,-32592(gp)
  80e35c:	e0bffc15 	stw	r2,-16(fp)
  heap_end += incr; 
  80e360:	d0e02c17 	ldw	r3,-32592(gp)
  80e364:	e0bffe17 	ldw	r2,-8(fp)
  80e368:	1885883a 	add	r2,r3,r2
  80e36c:	d0a02c15 	stw	r2,-32592(gp)
  80e370:	e0bffd17 	ldw	r2,-12(fp)
  80e374:	e0bff915 	stw	r2,-28(fp)
  80e378:	e0bff917 	ldw	r2,-28(fp)
  80e37c:	1001703a 	wrctl	status,r2

#endif

  alt_irq_enable_all(context);

  return (caddr_t) prev_heap_end; 
  80e380:	e0bffc17 	ldw	r2,-16(fp)
  80e384:	e0bfff15 	stw	r2,-4(fp)
  80e388:	e0bfff17 	ldw	r2,-4(fp)
} 
  80e38c:	e037883a 	mov	sp,fp
  80e390:	df000017 	ldw	fp,0(sp)
  80e394:	dec00104 	addi	sp,sp,4
  80e398:	f800283a 	ret

0080e39c <write>:
}

#else /* !ALT_USE_DIRECT_DRIVERS */

int ALT_WRITE (int file, const void *ptr, size_t len)
{
  80e39c:	defff704 	addi	sp,sp,-36
  80e3a0:	dfc00815 	stw	ra,32(sp)
  80e3a4:	df000715 	stw	fp,28(sp)
  80e3a8:	df000704 	addi	fp,sp,28
  80e3ac:	e13ffb15 	stw	r4,-20(fp)
  80e3b0:	e17ffc15 	stw	r5,-16(fp)
  80e3b4:	e1bffd15 	stw	r6,-12(fp)
   * A common error case is that when the file descriptor was created, the call
   * to open() failed resulting in a negative file descriptor. This is trapped
   * below so that we don't try and process an invalid file descriptor.
   */

  fd = (file < 0) ? NULL : &alt_fd_list[file];
  80e3b8:	e0bffb17 	ldw	r2,-20(fp)
  80e3bc:	1004803a 	cmplt	r2,r2,zero
  80e3c0:	1000091e 	bne	r2,zero,80e3e8 <write+0x4c>
  80e3c4:	e13ffb17 	ldw	r4,-20(fp)
  80e3c8:	01400304 	movi	r5,12
  80e3cc:	080dd080 	call	80dd08 <__mulsi3>
  80e3d0:	1007883a 	mov	r3,r2
  80e3d4:	00802074 	movhi	r2,129
  80e3d8:	10bdf004 	addi	r2,r2,-2112
  80e3dc:	1887883a 	add	r3,r3,r2
  80e3e0:	e0ffff15 	stw	r3,-4(fp)
  80e3e4:	00000106 	br	80e3ec <write+0x50>
  80e3e8:	e03fff15 	stw	zero,-4(fp)
  80e3ec:	e0bfff17 	ldw	r2,-4(fp)
  80e3f0:	e0bffa15 	stw	r2,-24(fp)
  
  if (fd)
  80e3f4:	e0bffa17 	ldw	r2,-24(fp)
  80e3f8:	1005003a 	cmpeq	r2,r2,zero
  80e3fc:	1000241e 	bne	r2,zero,80e490 <write+0xf4>
     * If the file has not been opened with write access, or if the driver does
     * not provide an implementation of write(), generate an error. Otherwise
     * call the drivers write() function to process the request.
     */

    if (((fd->fd_flags & O_ACCMODE) != O_RDONLY) && fd->dev->write)
  80e400:	e0bffa17 	ldw	r2,-24(fp)
  80e404:	10800217 	ldw	r2,8(r2)
  80e408:	108000cc 	andi	r2,r2,3
  80e40c:	1005003a 	cmpeq	r2,r2,zero
  80e410:	10001a1e 	bne	r2,zero,80e47c <write+0xe0>
  80e414:	e0bffa17 	ldw	r2,-24(fp)
  80e418:	10800017 	ldw	r2,0(r2)
  80e41c:	10800617 	ldw	r2,24(r2)
  80e420:	1005003a 	cmpeq	r2,r2,zero
  80e424:	1000151e 	bne	r2,zero,80e47c <write+0xe0>
    {
      
      /* ALT_LOG - see altera_hal/HAL/inc/sys/alt_log_printf.h */
      ALT_LOG_WRITE_FUNCTION(ptr,len);

      if ((rval = fd->dev->write(fd, ptr, len)) < 0)
  80e428:	e0bffa17 	ldw	r2,-24(fp)
  80e42c:	10800017 	ldw	r2,0(r2)
  80e430:	10800617 	ldw	r2,24(r2)
  80e434:	e17ffc17 	ldw	r5,-16(fp)
  80e438:	e1bffd17 	ldw	r6,-12(fp)
  80e43c:	e13ffa17 	ldw	r4,-24(fp)
  80e440:	103ee83a 	callr	r2
  80e444:	e0bff915 	stw	r2,-28(fp)
  80e448:	e0bff917 	ldw	r2,-28(fp)
  80e44c:	1004403a 	cmpge	r2,r2,zero
  80e450:	1000071e 	bne	r2,zero,80e470 <write+0xd4>
      {
        ALT_ERRNO = -rval;
  80e454:	080e4c00 	call	80e4c0 <alt_get_errno>
  80e458:	e0fff917 	ldw	r3,-28(fp)
  80e45c:	00c7c83a 	sub	r3,zero,r3
  80e460:	10c00015 	stw	r3,0(r2)
        return -1;
  80e464:	00bfffc4 	movi	r2,-1
  80e468:	e0bffe15 	stw	r2,-8(fp)
  80e46c:	00000e06 	br	80e4a8 <write+0x10c>
      }
      return rval;
  80e470:	e0bff917 	ldw	r2,-28(fp)
  80e474:	e0bffe15 	stw	r2,-8(fp)
  80e478:	00000b06 	br	80e4a8 <write+0x10c>
    }
    else
    {
      ALT_ERRNO = EACCES;
  80e47c:	080e4c00 	call	80e4c0 <alt_get_errno>
  80e480:	1007883a 	mov	r3,r2
  80e484:	00800344 	movi	r2,13
  80e488:	18800015 	stw	r2,0(r3)
  80e48c:	00000406 	br	80e4a0 <write+0x104>
    }
  }
  else  
  {
    ALT_ERRNO = EBADFD;
  80e490:	080e4c00 	call	80e4c0 <alt_get_errno>
  80e494:	1007883a 	mov	r3,r2
  80e498:	00801444 	movi	r2,81
  80e49c:	18800015 	stw	r2,0(r3)
  }
  return -1;
  80e4a0:	00bfffc4 	movi	r2,-1
  80e4a4:	e0bffe15 	stw	r2,-8(fp)
  80e4a8:	e0bffe17 	ldw	r2,-8(fp)
}
  80e4ac:	e037883a 	mov	sp,fp
  80e4b0:	dfc00117 	ldw	ra,4(sp)
  80e4b4:	df000017 	ldw	fp,0(sp)
  80e4b8:	dec00204 	addi	sp,sp,8
  80e4bc:	f800283a 	ret

0080e4c0 <alt_get_errno>:
#undef errno

extern int errno;

static ALT_INLINE int* alt_get_errno(void)
{
  80e4c0:	defffd04 	addi	sp,sp,-12
  80e4c4:	dfc00215 	stw	ra,8(sp)
  80e4c8:	df000115 	stw	fp,4(sp)
  80e4cc:	df000104 	addi	fp,sp,4
  return ((alt_errno) ? alt_errno() : &errno);
  80e4d0:	00802074 	movhi	r2,129
  80e4d4:	10807604 	addi	r2,r2,472
  80e4d8:	10800017 	ldw	r2,0(r2)
  80e4dc:	1005003a 	cmpeq	r2,r2,zero
  80e4e0:	1000061e 	bne	r2,zero,80e4fc <alt_get_errno+0x3c>
  80e4e4:	00802074 	movhi	r2,129
  80e4e8:	10807604 	addi	r2,r2,472
  80e4ec:	10800017 	ldw	r2,0(r2)
  80e4f0:	103ee83a 	callr	r2
  80e4f4:	e0bfff15 	stw	r2,-4(fp)
  80e4f8:	00000306 	br	80e508 <alt_get_errno+0x48>
  80e4fc:	00802074 	movhi	r2,129
  80e500:	10875f04 	addi	r2,r2,7548
  80e504:	e0bfff15 	stw	r2,-4(fp)
  80e508:	e0bfff17 	ldw	r2,-4(fp)
}
  80e50c:	e037883a 	mov	sp,fp
  80e510:	dfc00117 	ldw	ra,4(sp)
  80e514:	df000017 	ldw	fp,0(sp)
  80e518:	dec00204 	addi	sp,sp,8
  80e51c:	f800283a 	ret
  80e520:	0080c0b4 	movhi	r2,770
