
MicByPass.elf:     file format elf32-littlenios2
MicByPass.elf
architecture: nios2, flags 0x00000112:
EXEC_P, HAS_SYMS, D_PAGED
start address 0x008001a0

Program Header:
    LOAD off    0x00001020 vaddr 0x01104020 paddr 0x00800000 align 2**12
         filesz 0x000001a0 memsz 0x000001a0 flags r-x
    LOAD off    0x000021a0 vaddr 0x008001a0 paddr 0x008001a0 align 2**12
         filesz 0x0000fb38 memsz 0x0000fb38 flags r-x
    LOAD off    0x00011cd8 vaddr 0x0080fcd8 paddr 0x00811834 align 2**12
         filesz 0x00001b5c memsz 0x00001b5c flags rw-
    LOAD off    0x00014390 vaddr 0x00813390 paddr 0x00813390 align 2**12
         filesz 0x00000000 memsz 0x00005568 flags rw-
    LOAD off    0x00014000 vaddr 0x01104000 paddr 0x01104000 align 2**12
         filesz 0x00000020 memsz 0x00000020 flags r-x

Sections:
Idx Name          Size      VMA       LMA       File off  Algn
  0 .entry        00000020  01104000  01104000  00014000  2**5
                  CONTENTS, ALLOC, LOAD, READONLY, CODE
  1 .exceptions   000001a0  01104020  00800000  00001020  2**2
                  CONTENTS, ALLOC, LOAD, READONLY, CODE
  2 .text         0000f8dc  008001a0  008001a0  000021a0  2**2
                  CONTENTS, ALLOC, LOAD, READONLY, CODE
  3 .rodata       0000025c  0080fa7c  0080fa7c  00011a7c  2**2
                  CONTENTS, ALLOC, LOAD, READONLY, DATA
  4 .rwdata       00001b5c  0080fcd8  00811834  00011cd8  2**2
                  CONTENTS, ALLOC, LOAD, DATA, SMALL_DATA
  5 .bss          00005568  00813390  00813390  00014390  2**2
                  ALLOC, SMALL_DATA
  6 .comment      00000026  00000000  00000000  00014020  2**0
                  CONTENTS, READONLY
  7 .debug_aranges 00000ab8  00000000  00000000  00014048  2**3
                  CONTENTS, READONLY, DEBUGGING
  8 .debug_pubnames 000020df  00000000  00000000  00014b00  2**0
                  CONTENTS, READONLY, DEBUGGING
  9 .debug_info   00028ac1  00000000  00000000  00016bdf  2**0
                  CONTENTS, READONLY, DEBUGGING
 10 .debug_abbrev 00006c6f  00000000  00000000  0003f6a0  2**0
                  CONTENTS, READONLY, DEBUGGING
 11 .debug_line   0001553c  00000000  00000000  0004630f  2**0
                  CONTENTS, READONLY, DEBUGGING
 12 .debug_frame  000021a0  00000000  00000000  0005b84c  2**2
                  CONTENTS, READONLY, DEBUGGING
 13 .debug_str    00001a57  00000000  00000000  0005d9ec  2**0
                  CONTENTS, READONLY, DEBUGGING
 14 .debug_loc    000058ef  00000000  00000000  0005f443  2**0
                  CONTENTS, READONLY, DEBUGGING
 15 .debug_alt_sim_info 00000030  00000000  00000000  00064d34  2**2
                  CONTENTS, READONLY, DEBUGGING
 16 .debug_ranges 00000310  00000000  00000000  00064d68  2**3
                  CONTENTS, READONLY, DEBUGGING
 17 .thread_model 00000006  00000000  00000000  0006978a  2**0
                  CONTENTS, READONLY
 18 .cpu          0000000c  00000000  00000000  00069790  2**0
                  CONTENTS, READONLY
 19 .qsys         00000001  00000000  00000000  0006979c  2**0
                  CONTENTS, READONLY
 20 .simulation_enabled 00000001  00000000  00000000  0006979d  2**0
                  CONTENTS, READONLY
 21 .sysid_hash   00000004  00000000  00000000  0006979e  2**0
                  CONTENTS, READONLY
 22 .sysid_base   00000004  00000000  00000000  000697a2  2**0
                  CONTENTS, READONLY
 23 .sysid_time   00000004  00000000  00000000  000697a6  2**0
                  CONTENTS, READONLY
 24 .stderr_dev   0000000b  00000000  00000000  000697aa  2**0
                  CONTENTS, READONLY
 25 .stdin_dev    0000000b  00000000  00000000  000697b5  2**0
                  CONTENTS, READONLY
 26 .stdout_dev   0000000b  00000000  00000000  000697c0  2**0
                  CONTENTS, READONLY
 27 .sopc_system_name 0000000d  00000000  00000000  000697cb  2**0
                  CONTENTS, READONLY
 28 .quartus_project_dir 00000024  00000000  00000000  000697d8  2**0
                  CONTENTS, READONLY
 29 .jdi          00005269  00000000  00000000  000697fc  2**0
                  CONTENTS, READONLY
 30 .sopcinfo     0006e9e6  00000000  00000000  0006ea65  2**0
                  CONTENTS, READONLY
SYMBOL TABLE:
01104000 l    d  .entry	00000000 .entry
01104020 l    d  .exceptions	00000000 .exceptions
008001a0 l    d  .text	00000000 .text
0080fa7c l    d  .rodata	00000000 .rodata
0080fcd8 l    d  .rwdata	00000000 .rwdata
00813390 l    d  .bss	00000000 .bss
00000000 l    d  .comment	00000000 .comment
00000000 l    d  .debug_aranges	00000000 .debug_aranges
00000000 l    d  .debug_pubnames	00000000 .debug_pubnames
00000000 l    d  .debug_info	00000000 .debug_info
00000000 l    d  .debug_abbrev	00000000 .debug_abbrev
00000000 l    d  .debug_line	00000000 .debug_line
00000000 l    d  .debug_frame	00000000 .debug_frame
00000000 l    d  .debug_str	00000000 .debug_str
00000000 l    d  .debug_loc	00000000 .debug_loc
00000000 l    d  .debug_alt_sim_info	00000000 .debug_alt_sim_info
00000000 l    d  .debug_ranges	00000000 .debug_ranges
008001e8 l       .text	00000000 alt_after_alt_main
00000000 l    df *ABS*	00000000 alt_irq_handler.c
00000000 l    df *ABS*	00000000 hello_ucosii.c
00000000 l    df *ABS*	00000000 puts.c
00000000 l    df *ABS*	00000000 strlen.c
00000000 l    df *ABS*	00000000 fvwrite.c
00000000 l    df *ABS*	00000000 impure.c
0080fcd8 l     O .rwdata	00000400 impure_data
00000000 l    df *ABS*	00000000 mallocr.c
00000000 l    df *ABS*	00000000 memchr.c
00000000 l    df *ABS*	00000000 memcpy.c
00000000 l    df *ABS*	00000000 memmove.c
00000000 l    df *ABS*	00000000 mallocr.c
00000000 l    df *ABS*	00000000 sbrkr.c
00000000 l    df *ABS*	00000000 wsetup.c
00000000 l    df *ABS*	00000000 fflush.c
00000000 l    df *ABS*	00000000 findfp.c
00801d3c l     F .text	00000058 std
00801e48 l     F .text	00000008 __fp_lock
00801e50 l     F .text	00000008 __fp_unlock
00000000 l    df *ABS*	00000000 mallocr.c
00000000 l    df *ABS*	00000000 fwalk.c
00000000 l    df *ABS*	00000000 int_errno.c
00000000 l    df *ABS*	00000000 makebuf.c
00000000 l    df *ABS*	00000000 memset.c
00000000 l    df *ABS*	00000000 stdio.c
00000000 l    df *ABS*	00000000 writer.c
00000000 l    df *ABS*	00000000 closer.c
00000000 l    df *ABS*	00000000 fclose.c
00000000 l    df *ABS*	00000000 fstatr.c
00000000 l    df *ABS*	00000000 isattyr.c
00000000 l    df *ABS*	00000000 lseekr.c
00000000 l    df *ABS*	00000000 readr.c
00000000 l    df *ABS*	00000000 alt_close.c
00802e10 l     F .text	00000060 alt_get_errno
00000000 l    df *ABS*	00000000 alt_dev.c
00802e70 l     F .text	0000002c alt_dev_null_write
00000000 l    df *ABS*	00000000 alt_errno.c
00000000 l    df *ABS*	00000000 alt_fstat.c
00802f70 l     F .text	00000060 alt_get_errno
00000000 l    df *ABS*	00000000 alt_isatty.c
00803090 l     F .text	00000060 alt_get_errno
00000000 l    df *ABS*	00000000 alt_load.c
00803170 l     F .text	0000006c alt_load_section
00000000 l    df *ABS*	00000000 alt_lseek.c
008032cc l     F .text	00000060 alt_get_errno
00000000 l    df *ABS*	00000000 alt_main.c
00000000 l    df *ABS*	00000000 alt_read.c
00803514 l     F .text	00000060 alt_get_errno
00000000 l    df *ABS*	00000000 alt_release_fd.c
00000000 l    df *ABS*	00000000 alt_sbrk.c
008117a8 l     O .rwdata	00000004 heap_end
00000000 l    df *ABS*	00000000 alt_write.c
008037b0 l     F .text	00000060 alt_get_errno
00000000 l    df *ABS*	00000000 alt_env_lock.c
008117ac l     O .rwdata	00000004 lockid
008133b0 l     O .bss	00000004 locks
00000000 l    df *ABS*	00000000 alt_malloc_lock.c
008117b0 l     O .rwdata	00000004 lockid
008133b8 l     O .bss	00000004 locks
00000000 l    df *ABS*	00000000 os_core.c
008051e8 l     F .text	00000044 OS_InitMisc
0080522c l     F .text	0000006c OS_InitRdyList
00805390 l     F .text	000000e0 OS_InitTCBList
0080510c l     F .text	000000dc OS_InitEventList
00805298 l     F .text	0000007c OS_InitTaskIdle
00805314 l     F .text	0000007c OS_InitTaskStat
00805604 l     F .text	00000070 OS_SchedNew
00000000 l    df *ABS*	00000000 os_dbg.c
00000000 l    df *ABS*	00000000 os_flag.c
00807524 l     F .text	00000110 OS_FlagTaskRdy
0080727c l     F .text	000001c4 OS_FlagBlock
00000000 l    df *ABS*	00000000 os_mem.c
00000000 l    df *ABS*	00000000 os_q.c
00000000 l    df *ABS*	00000000 os_sem.c
00000000 l    df *ABS*	00000000 os_task.c
00000000 l    df *ABS*	00000000 os_time.c
00000000 l    df *ABS*	00000000 alt_sys_init.c
00810688 l     O .rwdata	0000106c jtag_uart_0
008116f4 l     O .rwdata	00000030 audio_and_video_config_0
00811724 l     O .rwdata	00000030 audio_0
00811754 l     O .rwdata	0000002c character_lcd_0
0080be7c l     F .text	00000038 alt_dev_reg
00000000 l    df *ABS*	00000000 altera_avalon_jtag_uart_fd.c
00000000 l    df *ABS*	00000000 altera_avalon_jtag_uart_init.c
0080c12c l     F .text	000002c8 altera_avalon_jtag_uart_irq
0080c3f4 l     F .text	00000114 altera_avalon_jtag_uart_timeout
00000000 l    df *ABS*	00000000 altera_avalon_jtag_uart_ioctl.c
00000000 l    df *ABS*	00000000 altera_avalon_jtag_uart_read.c
00000000 l    df *ABS*	00000000 altera_avalon_jtag_uart_write.c
00000000 l    df *ABS*	00000000 altera_avalon_timer_sc.c
0080cc0c l     F .text	00000074 alt_avalon_timer_sc_irq
00000000 l    df *ABS*	00000000 altera_up_avalon_audio.c
00000000 l    df *ABS*	00000000 altera_up_avalon_audio_and_video_config.c
00000000 l    df *ABS*	00000000 altera_up_avalon_character_lcd.c
00000000 l    df *ABS*	00000000 alt_alarm_start.c
00000000 l    df *ABS*	00000000 alt_dcache_flush_all.c
00000000 l    df *ABS*	00000000 alt_dev_llist_insert.c
0080e418 l     F .text	00000060 alt_get_errno
00000000 l    df *ABS*	00000000 alt_do_ctors.c
00000000 l    df *ABS*	00000000 alt_do_dtors.c
00000000 l    df *ABS*	00000000 alt_find_dev.c
00000000 l    df *ABS*	00000000 alt_icache_flush_all.c
00000000 l    df *ABS*	00000000 alt_io_redirect.c
0080e604 l     F .text	000000c4 alt_open_fd
00000000 l    df *ABS*	00000000 alt_irq_register.c
00000000 l    df *ABS*	00000000 alt_irq_vars.c
00000000 l    df *ABS*	00000000 alt_open.c
0080e900 l     F .text	000000dc alt_file_locked
0080eb64 l     F .text	00000060 alt_get_errno
00000000 l    df *ABS*	00000000 alt_tick.c
00000000 l    df *ABS*	00000000 altera_nios2_qsys_irq.c
00000040 l       *ABS*	00000000 OSCtxSw_SWITCH_PC
00000000 l    df *ABS*	00000000 os_cpu_c.c
00000014 l       *ABS*	00000000 OSTCBNext_OFFSET
00000032 l       *ABS*	00000000 OSTCBPrio_OFFSET
00000000 l       *ABS*	00000000 OSTCBStkPtr_OFFSET
00000000 l    df *ABS*	00000000 alt_find_file.c
00000000 l    df *ABS*	00000000 alt_get_fd.c
00000000 l    df *ABS*	00000000 alt_icache_flush.c
00000000 l    df *ABS*	00000000 atexit.c
00000000 l    df *ABS*	00000000 exit.c
00000000 l    df *ABS*	00000000 memcmp.c
00000000 l    df *ABS*	00000000 __atexit.c
00000000 l    df *ABS*	00000000 __call_atexit.c
0080f70c l     F .text	00000004 register_fini
00000000 l    df *ABS*	00000000 lib2-divmod.c
0080f8c0 l     F .text	0000007c udivmodsi4
00000000 l    df *ABS*	00000000 alt_exit.c
0080fa0c l     F .text	00000040 alt_sim_halt
0080d668 g     F .text	00000038 alt_up_av_config_reset
0080db0c g     F .text	00000064 alt_up_av_config_read_D5M_cfg_register
008117fe g     O .rwdata	00000002 OSTaskNameSize
00802bb4 g     F .text	00000070 _isatty_r
0080d6d8 g     F .text	00000030 alt_up_av_config_disable_interrupt
0080332c g     F .text	000000c8 alt_main
00800404 g     F .text	000000a0 _puts_r
00818668 g     O .bss	00000100 alt_irq
00802c24 g     F .text	00000078 _lseek_r
00807e18 g     F .text	000000d0 OS_MemInit
00811834 g       *ABS*	00000000 __flash_rwdata_start
0080bd58 g     F .text	00000064 OSTimeSet
0080dd18 g     F .text	00000034 alt_up_character_lcd_send_cmd
00803d64 g     F .text	000006b4 OSEventPendMulti
0080cf80 g     F .text	00000070 alt_up_audio_read_fifo_avail
008188f8 g       *ABS*	00000000 __alt_heap_start
0080d7a8 g     F .text	000000ac alt_up_av_config_write_audio_cfg_register
0080f16c g     F .text	00000020 OSTaskCreateHook
008117d6 g     O .rwdata	00000002 OSMboxEn
0080cff0 g     F .text	00000070 alt_up_audio_record_r
0080446c g     F .text	0000007c OSIntEnter
008027f0 g     F .text	00000068 __sseek
00801da4 g     F .text	000000a4 __sinit
008117e6 g     O .rwdata	00000002 OSQEn
00801ea4 g     F .text	00000068 __sfmoreglue
00803a20 g     F .text	000000d0 __malloc_unlock
0080f1c8 g     F .text	0000001c OSTaskStatHook
008133c0 g     O .bss	00000001 OSLockNesting
00811824 g     O .rwdata	00000002 OSDataSize
008133c1 g     O .bss	00000001 OSRunning
0080cef8 g     F .text	00000088 alt_up_audio_reset_audio_core
0080128c g     F .text	000000e0 memmove
0080f200 g     F .text	0000001c OSInitHookBegin
0081181c g     O .rwdata	00000002 OSTmrSize
00801e94 g     F .text	00000010 _cleanup
008133c4 g     O .bss	00000004 OSIdleCtr
0080ee38 g       .text	00000000 OSStartTsk
00000000  w      *UND*	00000000 __errno
0080dc9c g     F .text	0000007c get_DDRAM_addr
00805938 g     F .text	000002e0 OS_TCBInit
01104000 g     F .entry	0000001c __reset
00811822 g     O .rwdata	00000002 OSTmrWheelTblSize
00800000 g       *ABS*	00000000 __flash_exceptions_start
008117c2 g     O .rwdata	00000002 OSEventSize
008133c8 g     O .bss	00000001 OSPrioHighRdy
00802b40 g     F .text	00000074 _fstat_r
0080f18c g     F .text	00000020 OSTaskDelHook
0081339c g     O .bss	00000004 errno
0080ee18 g       .text	00000000 OSStartHighRdy
0080a52c g     F .text	00000200 OSTaskCreateExt
00806d98 g     F .text	00000068 OSFlagPendGetFlagsRdy
00811802 g     O .rwdata	00000002 OSTaskStatStkSize
0080cebc g     F .text	0000003c alt_up_audio_write_interrupt_pending
00805da4 g     F .text	00000334 OSFlagAccept
00808550 g     F .text	000000c8 OSQFlush
00807ee8 g     F .text	00000154 OSQAccept
008133a8 g     O .bss	00000004 alt_argv
00819780 g       *ABS*	00000000 _gp
0080a358 g     F .text	000001d4 OSTaskCreate
00809de4 g     F .text	00000574 OSTaskChangePrio
008133bc g     O .bss	00000004 alt_heapsem
00805c18 g     F .text	0000018c OSDebugInit
0080a72c g     F .text	0000040c OSTaskDel
00810508 g     O .rwdata	00000180 alt_fd_list
00815444 g     O .bss	00000370 OSFlagTbl
00804ee8 g     F .text	000000b8 OS_EventTaskRemove
0080e540 g     F .text	00000094 alt_find_dev
008011ec g     F .text	000000a0 memcpy
008117ec g     O .rwdata	00000002 OSRdyTblSize
0080deb0 g     F .text	0000004c alt_up_character_lcd_write_fd
00801e88 g     F .text	0000000c _cleanup_r
0080e6c8 g     F .text	00000078 alt_io_redirect
0080fa7c g       *ABS*	00000000 __DTOR_END__
008004a4 g     F .text	00000014 puts
00803af0 g     F .text	00000130 OSEventNameGet
008117d0 g     O .rwdata	00000002 OSFlagMax
008044e8 g     F .text	00000100 OSIntExit
0081180a g     O .rwdata	00000002 OSTCBSize
0080d454 g     F .text	00000060 alt_up_audio_read_fifo_head
008133c9 g     O .bss	00000001 OSPrioCur
0080c670 g     F .text	000002c0 altera_avalon_jtag_uart_read
00000000  w      *UND*	00000000 malloc
01104000 g       *ABS*	00000000 __alt_mem_onchip_memory2_0
0080f9fc g     F .text	00000008 __udivsi3
00802fd0 g     F .text	000000c0 isatty
008117f0 g     O .rwdata	00000002 OSStkWidth
008117e4 g     O .rwdata	00000002 OSPtrSize
008117c4 g     O .rwdata	00000002 OSEventTblSize
0080ed8c g       .text	00000000 OSCtxSw
0080f488 g     F .text	00000090 alt_icache_flush
00813390 g     O .bss	00000004 __malloc_top_pad
008133cc g     O .bss	00000004 OSTCBList
008133a0 g     O .bss	00000004 alt_fd_list_lock
0080d5dc g     F .text	0000008c alt_up_av_config_read_data
0080052c g     F .text	0000049c __sfvwrite_r
008157b4 g     O .bss	00000c30 OSMemTbl
008133d0 g     O .bss	00000001 OSTickStepState
00801960 g     F .text	00000070 _sbrk_r
008117e8 g     O .rwdata	00000002 OSQMax
008163e4 g     O .bss	00000800 OSTaskStatStk
00807a00 g     F .text	0000010c OSMemNameGet
008117c8 g     O .rwdata	00000002 OSFlagEn
00802c9c g     F .text	00000078 _read_r
0081180e g     O .rwdata	00000002 OSTimeTickHookEn
00808ab4 g     F .text	00000180 OSQPost
00807634 g     F .text	000000ac OS_FlagUnlink
008001ec g     F .text	000001ac audio_data_task
008117a0 g     O .rwdata	00000004 alt_max_fd
008054c4 g     F .text	0000006c OS_MemCopy
0080d4b4 g     F .text	00000060 alt_up_audio_write_fifo_head
00805530 g     F .text	000000d4 OS_Sched
00802a1c g     F .text	00000110 _fclose_r
008078fc g     F .text	00000104 OSMemGet
0080ae60 g     F .text	000001c4 OSTaskNameSet
00801d08 g     F .text	00000034 fflush
00813394 g     O .bss	00000004 __malloc_max_sbrked_mem
008133d4 g     O .bss	00000004 OSCtxSwCtr
0080f1e4 g     F .text	0000001c OSTimeTickHook
0080e740 g     F .text	000001c0 alt_irq_register
008117d2 g     O .rwdata	00000002 OSFlagNameSize
00804fa0 g     F .text	00000104 OS_EventTaskRemoveMulti
00804d94 g     F .text	00000154 OS_EventTaskWaitMulti
008117ea g     O .rwdata	00000002 OSQSize
008031dc g     F .text	000000f0 lseek
00809690 g     F .text	0000027c OSSemPend
00811784 g     O .rwdata	00000004 _global_impure_ptr
0080136c g     F .text	000005f4 _realloc_r
008117d4 g     O .rwdata	00000002 OSLowestPrio
008188f8 g       *ABS*	00000000 __bss_end
0080f254 g     F .text	00000020 OSTCBInitHook
0081181a g     O .rwdata	00000002 OSTmrCfgTicksPerSec
0080ec5c g     F .text	00000110 alt_tick
008117bc g     O .rwdata	00000002 OSEventEn
00811816 g     O .rwdata	00000002 OSTmrCfgNameSize
0080cd08 g     F .text	00000040 alt_up_audio_open_dev
00801e70 g     F .text	00000018 __fp_lock_all
00807440 g     F .text	000000e4 OS_FlagInit
0080d144 g     F .text	00000070 alt_up_audio_play_r
0080ebc4 g     F .text	00000098 alt_alarm_stop
008117f8 g     O .rwdata	00000002 OSTaskIdleStkSize
00813410 g     O .bss	00000004 alt_irq_active
0080921c g     F .text	000000c0 OSSemAccept
00807c2c g     F .text	000000f0 OSMemPut
008076e0 g     F .text	0000021c OSMemCreate
008133d8 g     O .bss	00000004 OSIdleCtrMax
011040ec g     F .exceptions	000000d4 alt_irq_handler
008104e0 g     O .rwdata	00000028 alt_dev_null
0081180c g     O .rwdata	00000002 OSTicksPerSec
0080e198 g     F .text	00000034 alt_up_character_lcd_cursor_blink_on
0080ed8c g       .text	00000000 OSIntCtxSw
0080e320 g     F .text	00000044 alt_dcache_flush_all
008133dc g     O .bss	00000004 OSTCBFreeList
00811834 g       *ABS*	00000000 __ram_rwdata_end
0080990c g     F .text	0000017c OSSemPendAbort
00811798 g     O .rwdata	00000008 alt_dev_list
00803690 g     F .text	00000120 write
00811810 g     O .rwdata	00000002 OSVersionNbr
0080fcd8 g       *ABS*	00000000 __ram_rodata_end
00802e9c g     F .text	000000d4 fstat
008117b8 g     O .rwdata	00000004 OSEndiannessTest
0080fa04 g     F .text	00000008 __umodsi3
008117ca g     O .rwdata	00000002 OSFlagGrpSize
008188f8 g       *ABS*	00000000 end
0080bffc g     F .text	00000130 altera_avalon_jtag_uart_init
008057a8 g     F .text	000000c8 OS_TaskStat
0080fa78 g       *ABS*	00000000 __CTOR_LIST__
01000000 g       *ABS*	00000000 __alt_stack_pointer
0080cc80 g     F .text	00000088 alt_avalon_timer_sc_init
0080c930 g     F .text	000002dc altera_avalon_jtag_uart_write
00801d94 g     F .text	00000004 __sfp_lock_acquire
00801108 g     F .text	000000e4 memchr
00805470 g     F .text	00000054 OS_MemClr
0080ddc0 g     F .text	00000078 alt_up_character_lcd_write
0080ee5c g     F .text	00000310 OSTaskStkInit
00802128 g     F .text	00000314 _free_r
00804af0 g     F .text	00000194 OS_EventTaskRdy
0080f710 g     F .text	000001b0 __call_exitprocs
008133e0 g     O .bss	00000001 OSCPUUsage
0081178c g     O .rwdata	00000004 __malloc_sbrk_base
008001a0 g     F .text	0000004c _start
00813414 g     O .bss	00000004 _alt_tick_rate
00808618 g     F .text	00000320 OSQPend
0080b824 g     F .text	0000014c OSTimeDly
0080d328 g     F .text	0000012c alt_up_audio_write_fifo
0080d578 g     F .text	00000064 alt_up_av_config_write_data
00813418 g     O .bss	00000004 _alt_nticks
008033f4 g     F .text	00000120 read
0080bdf0 g     F .text	0000008c alt_sys_init
0080e024 g     F .text	000000b0 alt_up_character_lcd_shift_display
0080d224 g     F .text	00000104 alt_up_audio_read_fifo
0080f5d8 g     F .text	00000134 __register_exitproc
008133e1 g     O .bss	00000001 OSTaskCtr
0080dc38 g     F .text	00000064 alt_up_av_config_write_LTM_cfg_register
0080ce30 g     F .text	00000050 alt_up_audio_disable_write_interrupt
0080b970 g     F .text	00000174 OSTimeDlyHMSM
0080e0d4 g     F .text	00000090 alt_up_character_lcd_erase_pos
0080c508 g     F .text	00000074 altera_avalon_jtag_uart_close
0080fcd8 g       *ABS*	00000000 __ram_rwdata_start
0080fa7c g       *ABS*	00000000 __ram_rodata_start
0081341c g     O .bss	00000028 __malloc_current_mallinfo
008117be g     O .rwdata	00000002 OSEventMax
00809a88 g     F .text	00000128 OSSemPost
00804674 g     F .text	000000e4 OSSchedUnlock
0080beb4 g     F .text	00000058 altera_avalon_jtag_uart_read_fd
0080f394 g     F .text	000000f4 alt_get_fd
008133e4 g     O .bss	00000004 OSMemFreeList
008047c8 g     F .text	000000ac OSStatInit
008071a8 g     F .text	000000d4 OSFlagQuery
008117f4 g     O .rwdata	00000002 OSTaskCreateExtEn
008029ac g     F .text	00000070 _close_r
0080cde4 g     F .text	0000004c alt_up_audio_enable_write_interrupt
0080f564 g     F .text	00000074 memcmp
00804ad4 g     F .text	0000001c OS_Dummy
0080bf64 g     F .text	00000048 altera_avalon_jtag_uart_close_fd
008188f8 g       *ABS*	00000000 __alt_stack_base
0080bfac g     F .text	00000050 altera_avalon_jtag_uart_ioctl_fd
008019d0 g     F .text	0000013c __swsetup_r
00816be4 g     O .bss	000001e0 OSQTbl
0080cd94 g     F .text	00000050 alt_up_audio_disable_read_interrupt
00801f0c g     F .text	000000f0 __sfp
00813444 g     O .bss	00002000 audio_data_task_stk
008100d8 g     O .rwdata	00000408 __malloc_av_
00801da0 g     F .text	00000004 __sinit_lock_release
008133e8 g     O .bss	00000004 OSTCBHighRdy
008028d4 g     F .text	00000060 __sread
008133ec g     O .bss	00000004 OSQFreeList
0080f274 g     F .text	00000120 alt_find_file
0080e364 g     F .text	000000b4 alt_dev_llist_insert
00803918 g     F .text	00000108 __malloc_lock
008035d4 g     F .text	000000bc sbrk
00803c20 g     F .text	00000144 OSEventNameSet
00801b0c g     F .text	000001fc _fflush_r
008133f0 g     O .bss	00000001 OSRdyGrp
00813390 g       *ABS*	00000000 __bss_start
00802750 g     F .text	00000098 memset
00800398 g     F .text	0000006c main
0080d0d0 g     F .text	00000074 alt_up_audio_write_fifo_space
008133ac g     O .bss	00000004 alt_envp
00813398 g     O .bss	00000004 __malloc_max_total_mem
0080bf0c g     F .text	00000058 altera_avalon_jtag_uart_write_fd
0080fb58 g     O .rodata	00000100 OSUnMapTbl
008117ee g     O .rwdata	00000002 OSSemEn
0080df74 g     F .text	000000b0 alt_up_character_lcd_shift_cursor
00806e00 g     F .text	000003a8 OSFlagPost
008027e8 g     F .text	00000008 __sclose
01000000 g       *ABS*	00000000 __alt_heap_limit
00802b2c g     F .text	00000014 fclose
00804c84 g     F .text	00000110 OS_EventTaskWait
00805870 g     F .text	000000c8 OS_TaskStatStkChk
00818768 g     O .bss	00000190 _atexit0
0080ab38 g     F .text	00000170 OSTaskDelReq
008009c8 g     F .text	00000740 _malloc_r
008117a4 g     O .rwdata	00000004 alt_errno
00804758 g     F .text	00000070 OSStart
008038bc g     F .text	0000005c __env_unlock
00802504 g     F .text	000000b8 _fwalk
0080b024 g     F .text	00000218 OSTaskResume
00807d1c g     F .text	000000fc OSMemQuery
00811800 g     O .rwdata	00000002 OSTaskStatEn
008117da g     O .rwdata	00000002 OSMemMax
00808c34 g     F .text	00000188 OSQPostFront
0080f93c g     F .text	00000060 __divsi3
008133f1 g     O .bss	00000003 OSRdyTbl
008117b4 g     O .rwdata	00000002 OSDebugEn
0080dd80 g     F .text	00000040 alt_up_character_lcd_open_dev
00801ffc g     F .text	0000012c _malloc_trim_r
0080fa7c g       *ABS*	00000000 __CTOR_END__
008117cc g     O .rwdata	00000002 OSFlagNodeSize
00811814 g     O .rwdata	00000002 OSTmrCfgMax
0080dd4c g     F .text	00000034 alt_up_character_lcd_init
0080803c g     F .text	00000214 OSQCreate
0080aca8 g     F .text	000001b8 OSTaskNameGet
0080fa7c g       *ABS*	00000000 __flash_rodata_start
00808dbc g     F .text	00000234 OSQPostOpt
00804874 g     F .text	00000240 OSTimeTick
008117fc g     O .rwdata	00000002 OSTaskMax
0080fa7c g       *ABS*	00000000 __DTOR_LIST__
008092dc g     F .text	00000114 OSSemCreate
00811820 g     O .rwdata	00000002 OSTmrWheelSize
008117f6 g     O .rwdata	00000002 OSTaskDelEn
01080000 g       *ABS*	00000000 __alt_mem_sram_0
0080d514 g     F .text	00000064 alt_up_av_config_open_dev
00809bb0 g     F .text	00000130 OSSemQuery
00808250 g     F .text	00000300 OSQDel
00808938 g     F .text	0000017c OSQPendAbort
0080bdbc g     F .text	00000034 alt_irq_init
00803574 g     F .text	00000060 alt_release_fd
0080e164 g     F .text	00000034 alt_up_character_lcd_cursor_off
0080f518 g     F .text	00000014 atexit
00802934 g     F .text	00000078 _write_r
0080d770 g     F .text	00000038 alt_up_av_config_read_ready
008045e8 g     F .text	0000008c OSSchedLock
008060d8 g     F .text	0000013c OSFlagCreate
00811780 g     O .rwdata	00000004 _impure_ptr
008133a4 g     O .bss	00000004 alt_argc
0080e4dc g     F .text	00000064 _do_dtors
008117c6 g     O .rwdata	00000002 OSEventMultiEn
00806214 g     F .text	000002a8 OSFlagDel
00800000 g       *ABS*	00000000 __alt_mem_sdram_0
008133f4 g     O .bss	00000004 OSEventFreeList
01104020 g       .exceptions	00000000 alt_irq_entry
00806754 g     F .text	00000644 OSFlagPend
00811812 g     O .rwdata	00000002 OSTmrEn
00801e58 g     F .text	00000018 __fp_unlock_all
00811790 g     O .rwdata	00000008 alt_fs_list
00805674 g     F .text	00000080 OS_StrCopy
0080d060 g     F .text	00000070 alt_up_audio_record_l
008117dc g     O .rwdata	00000002 OSMemNameSize
0080f21c g     F .text	0000001c OSInitHookEnd
01104020 g       *ABS*	00000000 __ram_exceptions_start
00811808 g     O .rwdata	00000002 OSTCBPrioTblMax
00811804 g     O .rwdata	00000002 OSTaskStatStkChkEn
0080d6a0 g     F .text	00000038 alt_up_av_config_enable_interrupt
008117d8 g     O .rwdata	00000002 OSMemEn
008117e2 g     O .rwdata	00000002 OSMutexEn
0080d708 g     F .text	00000068 alt_up_av_config_read_acknowledge
0080daa8 g     F .text	00000064 alt_up_av_config_write_DC2_cfg_register
00811834 g       *ABS*	00000000 _edata
008188f8 g       *ABS*	00000000 _end
008133f8 g     O .bss	00000001 OSIntNesting
011041c0 g       *ABS*	00000000 __ram_exceptions_end
0080c57c g     F .text	000000f4 altera_avalon_jtag_uart_ioctl
0080bae4 g     F .text	00000210 OSTimeDlyResume
00806600 g     F .text	00000154 OSFlagNameSet
0080d1b4 g     F .text	00000070 alt_up_audio_play_l
0080b23c g     F .text	000001fc OSTaskStkChk
008117de g     O .rwdata	00000002 OSMemSize
00802858 g     F .text	0000007c __swrite
00811788 g     O .rwdata	00000004 __malloc_trim_threshold
0080ed6c g     F .text	00000020 altera_nios2_qsys_irq_init
008133fc g     O .bss	00000004 OSTCBCur
0080f52c g     F .text	00000038 exit
008117e0 g     O .rwdata	00000002 OSMemTblSize
0080243c g     F .text	000000c8 _fwalk_reent
0080dbd4 g     F .text	00000064 alt_up_av_config_read_LTM_cfg_register
0080f99c g     F .text	00000060 __modsi3
01000000 g       *ABS*	00000000 __alt_data_end
01104020 g     F .exceptions	00000000 alt_exception
00801d98 g     F .text	00000004 __sfp_lock_release
00804418 g     F .text	00000054 OSInit
0080b664 g     F .text	00000144 OSTaskQuery
0080de38 g     F .text	00000078 alt_up_character_lcd_string
00809170 g     F .text	000000ac OS_QInit
008056f4 g     F .text	00000058 OS_StrLen
00807b0c g     F .text	00000120 OSMemNameSet
008117fa g     O .rwdata	00000002 OSTaskProfileEn
00813400 g     O .bss	00000004 OSTime
00816dc4 g     O .bss	00000800 OSTaskIdleStk
0080fa4c g     F .text	0000002c _exit
0080e1cc g     F .text	00000154 alt_alarm_start
008064bc g     F .text	00000144 OSFlagNameGet
0080bcf4 g     F .text	00000064 OSTimeGet
008025bc g     F .text	00000194 __smakebuf_r
008004b8 g     F .text	00000074 strlen
0080f1ac g     F .text	0000001c OSTaskSwHook
0080e9dc g     F .text	00000188 open
008175c4 g     O .bss	00000b40 OSEventTbl
00818104 g     O .bss	00000510 OSTCBTbl
00809ce0 g     F .text	00000104 OSSemSet
0080d854 g     F .text	000000f8 alt_up_av_config_read_video_cfg_register
0080e5d4 g     F .text	00000030 alt_icache_flush_all
0080defc g     F .text	00000078 alt_up_character_lcd_set_cursor_pos
00811828 g     O .rwdata	00000004 alt_priority_mask
008093f0 g     F .text	000002a0 OSSemDel
00813404 g     O .bss	00000004 OSFlagFreeList
008117c0 g     O .rwdata	00000002 OSEventNameSize
00813408 g     O .bss	00000001 OSStatRdy
0080db70 g     F .text	00000064 alt_up_av_config_write_D5M_cfg_register
00818614 g     O .bss	00000054 OSTCBPrioTbl
00803810 g     F .text	000000ac __env_lock
00811806 g     O .rwdata	00000002 OSTaskSwHookEn
0081182c g     O .rwdata	00000008 alt_alarm_list
008117ce g     O .rwdata	00000002 OSFlagWidth
0080e478 g     F .text	00000064 _do_ctors
00802d14 g     F .text	000000fc close
008133b4 g     O .bss	00000004 alt_envsem
0081340c g     O .bss	00000004 OSIdleCtrRun
00804ab4 g     F .text	00000020 OSVersion
00811818 g     O .rwdata	00000002 OSTmrCfgWheelSize
008030f0 g     F .text	00000080 alt_load
0080cd48 g     F .text	0000004c alt_up_audio_enable_read_interrupt
0080b7a8 g     F .text	0000007c OS_TaskStkClr
0080d94c g     F .text	000000f8 alt_up_av_config_write_video_cfg_register
008117f2 g     O .rwdata	00000002 OSTaskCreateEn
008050a4 g     F .text	00000068 OS_EventWaitListInit
0080f238 g     F .text	0000001c OSTaskIdleHook
00000000  w      *UND*	00000000 free
00801d9c g     F .text	00000004 __sinit_lock_acquire
0080b438 g     F .text	0000022c OSTaskSuspend
0080da44 g     F .text	00000064 alt_up_av_config_read_DC2_cfg_register
0080574c g     F .text	0000005c OS_TaskIdle
0081181e g     O .rwdata	00000002 OSTmrTblSize
0080ce80 g     F .text	0000003c alt_up_audio_read_interrupt_pending
00808ff0 g     F .text	00000180 OSQQuery



Disassembly of section .entry:

01104000 <__reset>:
#if NIOS2_ICACHE_SIZE > 0 && defined(ALT_ALLOW_CODE_AT_RESET) && !defined(ALT_SIM_OPTIMIZE)
    /* Assume the instruction cache size is always a power of two. */
#if NIOS2_ICACHE_SIZE > 0x8000
    movhi r2, %hi(NIOS2_ICACHE_SIZE)
#else
    movui r2, NIOS2_ICACHE_SIZE
 1104000:	00840014 	movui	r2,4096
#endif

0:
    initi r2
 1104004:	1001483a 	initi	r2
    addi r2, r2, -NIOS2_ICACHE_LINE_SIZE
 1104008:	10bff804 	addi	r2,r2,-32
    bgt r2, zero, 0b
 110400c:	00bffd16 	blt	zero,r2,1104004 <__reset+0x4>
 * Jump to the _start entry point in the .text section if reset code
 * is allowed or if optimizing for RTL simulation.
 */
#if defined(ALT_ALLOW_CODE_AT_RESET) || defined(ALT_SIM_OPTIMIZE)
    /* Jump to the _start entry point in the .text section. */
    movhi r1, %hi(_start)
 1104010:	00402034 	movhi	at,128
    ori r1, r1, %lo(_start)
 1104014:	08406814 	ori	at,at,416
    jmp r1
 1104018:	0800683a 	jmp	at
 110401c:	00000000 	call	0 <OSTCBStkPtr_OFFSET>

Disassembly of section .exceptions:

01104020 <alt_exception>:
         * Process an exception.  For all exceptions we must preserve all
         * caller saved registers on the stack (See the Nios2 ABI
         * documentation for details).
         */

        addi  sp, sp, -76
 1104020:	deffed04 	addi	sp,sp,-76

#endif

#endif

        stw   ra,  0(sp)
 1104024:	dfc00015 	stw	ra,0(sp)
        /*
         * Leave a gap in the stack frame at 4(sp) for the muldiv handler to
         * store zero into.
         */

        stw   r1,   8(sp)
 1104028:	d8400215 	stw	at,8(sp)
        stw   r2,  12(sp)
 110402c:	d8800315 	stw	r2,12(sp)
        stw   r3,  16(sp)
 1104030:	d8c00415 	stw	r3,16(sp)
        stw   r4,  20(sp)
 1104034:	d9000515 	stw	r4,20(sp)
        stw   r5,  24(sp)
 1104038:	d9400615 	stw	r5,24(sp)
        stw   r6,  28(sp)
 110403c:	d9800715 	stw	r6,28(sp)
        stw   r7,  32(sp)
 1104040:	d9c00815 	stw	r7,32(sp)

        rdctl r5, estatus
 1104044:	000b307a 	rdctl	r5,estatus

        stw   r8,  36(sp)
 1104048:	da000915 	stw	r8,36(sp)
        stw   r9,  40(sp)
 110404c:	da400a15 	stw	r9,40(sp)
        stw   r10, 44(sp)
 1104050:	da800b15 	stw	r10,44(sp)
        stw   r11, 48(sp)
 1104054:	dac00c15 	stw	r11,48(sp)
        stw   r12, 52(sp)
 1104058:	db000d15 	stw	r12,52(sp)
        stw   r13, 56(sp)
 110405c:	db400e15 	stw	r13,56(sp)
        stw   r14, 60(sp)
 1104060:	db800f15 	stw	r14,60(sp)
        stw   r15, 64(sp)
 1104064:	dbc01015 	stw	r15,64(sp)
        /*
         * ea-4 contains the address of the instruction being executed
         * when the exception occured. For interrupt exceptions, we will
         * will be re-issue the isntruction. Store it in 72(sp)
         */
        stw   r5,  68(sp)  /* estatus */
 1104068:	d9401115 	stw	r5,68(sp)
        addi  r15, ea, -4  /* instruction that caused exception */
 110406c:	ebffff04 	addi	r15,ea,-4
        stw   r15,  72(sp)
 1104070:	dbc01215 	stw	r15,72(sp)
#else
        /*
         * Test to see if the exception was a software exception or caused 
         * by an external interrupt, and vector accordingly.
         */
        rdctl r4, ipending
 1104074:	0009313a 	rdctl	r4,ipending
        andi  r2, r5, 1
 1104078:	2880004c 	andi	r2,r5,1
        beq   r2, zero, .Lnot_irq
 110407c:	10000326 	beq	r2,zero,110408c <alt_exception+0x6c>
        beq   r4, zero, .Lnot_irq
 1104080:	20000226 	beq	r4,zero,110408c <alt_exception+0x6c>
        /*
         * Now that all necessary registers have been preserved, call 
         * alt_irq_handler() to process the interrupts.
         */

        call alt_irq_handler
 1104084:	11040ec0 	call	11040ec <alt_irq_handler>

        .section .exceptions.irqreturn, "xa"

        br    .Lexception_exit
 1104088:	00000306 	br	1104098 <alt_exception+0x78>
         * upon completion, so we write ea (address of instruction *after*
         * the one where the exception occured) into 72(sp). The actual
         * instruction that caused the exception is written in r2, which these
         * handlers will utilize.
         */
        stw   ea,  72(sp)  /* Don't re-issue */
 110408c:	df401215 	stw	ea,72(sp)
        ldw   r2, -4(ea)   /* Instruction that caused exception */
 1104090:	e8bfff17 	ldw	r2,-4(ea)
#ifdef NIOS2_HAS_DEBUG_STUB
       /*
        *  Either tell the user now (if there is a debugger attached) or go into
        *  the debug monitor which will loop until a debugger is attached.
        */
        break
 1104094:	003da03a 	break	0
        /* 
         * Restore the saved registers, so that all general purpose registers 
         * have been restored to their state at the time the interrupt occured.
         */

        ldw   r5,  68(sp)
 1104098:	d9401117 	ldw	r5,68(sp)
        ldw   ea,  72(sp)  /* This becomes the PC once eret is executed */
 110409c:	df401217 	ldw	ea,72(sp)
        ldw   ra,   0(sp)
 11040a0:	dfc00017 	ldw	ra,0(sp)

        wrctl estatus, r5
 11040a4:	2801707a 	wrctl	estatus,r5

        ldw   r1,   8(sp)
 11040a8:	d8400217 	ldw	at,8(sp)
        ldw   r2,  12(sp)
 11040ac:	d8800317 	ldw	r2,12(sp)
        ldw   r3,  16(sp)
 11040b0:	d8c00417 	ldw	r3,16(sp)
        ldw   r4,  20(sp)
 11040b4:	d9000517 	ldw	r4,20(sp)
        ldw   r5,  24(sp)
 11040b8:	d9400617 	ldw	r5,24(sp)
        ldw   r6,  28(sp)
 11040bc:	d9800717 	ldw	r6,28(sp)
        ldw   r7,  32(sp)
 11040c0:	d9c00817 	ldw	r7,32(sp)
#ifdef ALT_STACK_CHECK
        ldw   et, %gprel(alt_exception_old_stack_limit)(gp)
#endif
#endif

        ldw   r8,  36(sp)
 11040c4:	da000917 	ldw	r8,36(sp)
        ldw   r9,  40(sp)
 11040c8:	da400a17 	ldw	r9,40(sp)
        ldw   r10, 44(sp)
 11040cc:	da800b17 	ldw	r10,44(sp)
        ldw   r11, 48(sp)
 11040d0:	dac00c17 	ldw	r11,48(sp)
        ldw   r12, 52(sp)
 11040d4:	db000d17 	ldw	r12,52(sp)
        ldw   r13, 56(sp)
 11040d8:	db400e17 	ldw	r13,56(sp)
        ldw   r14, 60(sp)
 11040dc:	db800f17 	ldw	r14,60(sp)
        ldw   r15, 64(sp)
 11040e0:	dbc01017 	ldw	r15,64(sp)
#endif

        ldw   sp,  76(sp)

#else
        addi  sp, sp, 76
 11040e4:	dec01304 	addi	sp,sp,76

        /*
         * Return to the interrupted instruction.
         */

        eret
 11040e8:	ef80083a 	eret

011040ec <alt_irq_handler>:
 * instruction is present if the macro ALT_CI_INTERRUPT_VECTOR defined.
 */

void alt_irq_handler (void) __attribute__ ((section (".exceptions")));
void alt_irq_handler (void)
{
 11040ec:	defff904 	addi	sp,sp,-28
 11040f0:	dfc00615 	stw	ra,24(sp)
 11040f4:	df000515 	stw	fp,20(sp)
 11040f8:	df000504 	addi	fp,sp,20
  
  /*
   * Notify the operating system that we are at interrupt level.
   */ 
  
  ALT_OS_INT_ENTER();
 11040fc:	080446c0 	call	80446c <OSIntEnter>
#ifndef NIOS2_EIC_PRESENT
static ALT_INLINE alt_u32 ALT_ALWAYS_INLINE alt_irq_pending (void)
{
  alt_u32 active;

  NIOS2_READ_IPENDING (active);
 1104100:	0005313a 	rdctl	r2,ipending
 1104104:	e0bffc15 	stw	r2,-16(fp)

  return active;
 1104108:	e0bffc17 	ldw	r2,-16(fp)
   * Consider the case where the high priority interupt is asserted during
   * the interrupt entry sequence for a lower priority interrupt to see why
   * this is the case.
   */

  active = alt_irq_pending ();
 110410c:	e0bfff15 	stw	r2,-4(fp)

  do
  {
    i = 0;
 1104110:	e03ffd15 	stw	zero,-12(fp)
    mask = 1;
 1104114:	00800044 	movi	r2,1
 1104118:	e0bffe15 	stw	r2,-8(fp)
     * called to clear the interrupt condition.
     */

    do
    {
      if (active & mask)
 110411c:	e0ffff17 	ldw	r3,-4(fp)
 1104120:	e0bffe17 	ldw	r2,-8(fp)
 1104124:	1884703a 	and	r2,r3,r2
 1104128:	1005003a 	cmpeq	r2,r2,zero
 110412c:	1000171e 	bne	r2,zero,110418c <alt_irq_handler+0xa0>
      { 
#ifdef ALT_ENHANCED_INTERRUPT_API_PRESENT
        alt_irq[i].handler(alt_irq[i].context); 
#else
        alt_irq[i].handler(alt_irq[i].context, i); 
 1104130:	e0bffd17 	ldw	r2,-12(fp)
 1104134:	00c020b4 	movhi	r3,130
 1104138:	18e19a04 	addi	r3,r3,-31128
 110413c:	100490fa 	slli	r2,r2,3
 1104140:	10c5883a 	add	r2,r2,r3
 1104144:	11800017 	ldw	r6,0(r2)
 1104148:	e0bffd17 	ldw	r2,-12(fp)
 110414c:	00c020b4 	movhi	r3,130
 1104150:	18e19a04 	addi	r3,r3,-31128
 1104154:	100490fa 	slli	r2,r2,3
 1104158:	10c5883a 	add	r2,r2,r3
 110415c:	10800104 	addi	r2,r2,4
 1104160:	11000017 	ldw	r4,0(r2)
 1104164:	e17ffd17 	ldw	r5,-12(fp)
 1104168:	303ee83a 	callr	r6
#ifndef NIOS2_EIC_PRESENT
static ALT_INLINE alt_u32 ALT_ALWAYS_INLINE alt_irq_pending (void)
{
  alt_u32 active;

  NIOS2_READ_IPENDING (active);
 110416c:	0005313a 	rdctl	r2,ipending
 1104170:	e0bffb15 	stw	r2,-20(fp)

  return active;
 1104174:	e0bffb17 	ldw	r2,-20(fp)
      mask <<= 1;
      i++;

    } while (1);

    active = alt_irq_pending ();
 1104178:	e0bfff15 	stw	r2,-4(fp)
    
  } while (active);
 110417c:	e0bfff17 	ldw	r2,-4(fp)
 1104180:	1004c03a 	cmpne	r2,r2,zero
 1104184:	103fe21e 	bne	r2,zero,1104110 <alt_irq_handler+0x24>
 1104188:	00000706 	br	11041a8 <alt_irq_handler+0xbc>
#else
        alt_irq[i].handler(alt_irq[i].context, i); 
#endif
        break;
      }
      mask <<= 1;
 110418c:	e0bffe17 	ldw	r2,-8(fp)
 1104190:	1085883a 	add	r2,r2,r2
 1104194:	e0bffe15 	stw	r2,-8(fp)
      i++;
 1104198:	e0bffd17 	ldw	r2,-12(fp)
 110419c:	10800044 	addi	r2,r2,1
 11041a0:	e0bffd15 	stw	r2,-12(fp)

    } while (1);
 11041a4:	003fdd06 	br	110411c <alt_irq_handler+0x30>

  /*
   * Notify the operating system that interrupt processing is complete.
   */ 

  ALT_OS_INT_EXIT();
 11041a8:	08044e80 	call	8044e8 <OSIntExit>
}
 11041ac:	e037883a 	mov	sp,fp
 11041b0:	dfc00117 	ldw	ra,4(sp)
 11041b4:	df000017 	ldw	fp,0(sp)
 11041b8:	dec00204 	addi	sp,sp,8
 11041bc:	f800283a 	ret

Disassembly of section .text:

008001a0 <_start>:

    /* Assume the data cache size is always a power of two. */
#if NIOS2_DCACHE_SIZE > 0x8000
    movhi r2, %hi(NIOS2_DCACHE_SIZE)
#else
    movui r2, NIOS2_DCACHE_SIZE
  8001a0:	00820014 	movui	r2,2048
#endif

0:
    initd 0(r2)
  8001a4:	10000033 	initd	0(r2)
    addi r2, r2, -NIOS2_DCACHE_LINE_SIZE
  8001a8:	10bff804 	addi	r2,r2,-32
    bgt r2, zero, 0b
  8001ac:	00bffd16 	blt	zero,r2,8001a4 <_start+0x4>
#if (NIOS2_NUM_OF_SHADOW_REG_SETS == 0)    
    /*
     * Now that the caches are initialized, set up the stack pointer.
     * The value provided by the linker is assumed to be correctly aligned.
     */
    movhi sp, %hi(__alt_stack_pointer)
  8001b0:	06c04034 	movhi	sp,256
    ori sp, sp, %lo(__alt_stack_pointer)
  8001b4:	dec00014 	ori	sp,sp,0

    /* Set up the global pointer. */
    movhi gp, %hi(_gp)
  8001b8:	06802074 	movhi	gp,129
    ori gp, gp, %lo(_gp)
  8001bc:	d6a5e014 	ori	gp,gp,38784
 */
#ifndef ALT_SIM_OPTIMIZE
    /* Log that the BSS is about to be cleared. */
    ALT_LOG_PUTS(alt_log_msg_bss)

    movhi r2, %hi(__bss_start)
  8001c0:	00802074 	movhi	r2,129
    ori r2, r2, %lo(__bss_start)
  8001c4:	108ce414 	ori	r2,r2,13200

    movhi r3, %hi(__bss_end)
  8001c8:	00c02074 	movhi	r3,129
    ori r3, r3, %lo(__bss_end)
  8001cc:	18e23e14 	ori	r3,r3,35064

    beq r2, r3, 1f
  8001d0:	10c00326 	beq	r2,r3,8001e0 <_start+0x40>

0:
    stw zero, (r2)
  8001d4:	10000015 	stw	zero,0(r2)
    addi r2, r2, 4
  8001d8:	10800104 	addi	r2,r2,4
    bltu r2, r3, 0b
  8001dc:	10fffd36 	bltu	r2,r3,8001d4 <_start+0x34>
     * section aren't defined until alt_load() has been called).
     */
    mov   et, zero
#endif

    call alt_load
  8001e0:	08030f00 	call	8030f0 <alt_load>

    /* Log that alt_main is about to be called. */
    ALT_LOG_PUTS(alt_log_msg_alt_main)

    /* Call the C entry point. It should never return. */
    call alt_main
  8001e4:	080332c0 	call	80332c <alt_main>

008001e8 <alt_after_alt_main>:

    /* Wait in infinite loop in case alt_main does return. */
alt_after_alt_main:
    br alt_after_alt_main
  8001e8:	003fff06 	br	8001e8 <alt_after_alt_main>

008001ec <audio_data_task>:
#define     BUFFER_SIZE    128


/* Handle audio data movement */
void audio_data_task(void* pdata)
{
  8001ec:	deff7904 	addi	sp,sp,-540
  8001f0:	dfc08615 	stw	ra,536(sp)
  8001f4:	df008515 	stw	fp,532(sp)
  8001f8:	df008504 	addi	fp,sp,532
  8001fc:	e13fff15 	stw	r4,-4(fp)
    alt_up_audio_dev * audio_dev;
    alt_up_av_config_dev * audio_config_dev;

    unsigned int l_buf[BUFFER_SIZE];
    int i = 0;
  800200:	e03f7c15 	stw	zero,-528(fp)
    int writeSizeL = 0;
  800204:	e03f7b15 	stw	zero,-532(fp)

    audio_config_dev = alt_up_av_config_open_dev("/dev/audio_and_video_config_0");
  800208:	01002074 	movhi	r4,129
  80020c:	213e9f04 	addi	r4,r4,-1412
  800210:	080d5140 	call	80d514 <alt_up_av_config_open_dev>
  800214:	e0bf7d15 	stw	r2,-524(fp)
    if ( audio_config_dev == NULL)
  800218:	e0bf7d17 	ldw	r2,-524(fp)
  80021c:	1004c03a 	cmpne	r2,r2,zero
  800220:	1000041e 	bne	r2,zero,800234 <audio_data_task+0x48>
        printf("Error: could not open audio config device \n");
  800224:	01002074 	movhi	r4,129
  800228:	213ea704 	addi	r4,r4,-1380
  80022c:	08004a40 	call	8004a4 <puts>
  800230:	00000306 	br	800240 <audio_data_task+0x54>
    else
        printf("Opened audio config device \n");
  800234:	01002074 	movhi	r4,129
  800238:	213eb204 	addi	r4,r4,-1336
  80023c:	08004a40 	call	8004a4 <puts>

    /* Open Devices */
    audio_dev = alt_up_audio_open_dev ("/dev/audio_0");
  800240:	01002074 	movhi	r4,129
  800244:	213eb904 	addi	r4,r4,-1308
  800248:	080cd080 	call	80cd08 <alt_up_audio_open_dev>
  80024c:	e0bf7e15 	stw	r2,-520(fp)
    if ( audio_dev == NULL)
  800250:	e0bf7e17 	ldw	r2,-520(fp)
  800254:	1004c03a 	cmpne	r2,r2,zero
  800258:	1000041e 	bne	r2,zero,80026c <audio_data_task+0x80>
        printf("Error: could not open audio device \n");
  80025c:	01002074 	movhi	r4,129
  800260:	213ebd04 	addi	r4,r4,-1292
  800264:	08004a40 	call	8004a4 <puts>
  800268:	00000306 	br	800278 <audio_data_task+0x8c>
    else
        printf("Opened audio device \n");
  80026c:	01002074 	movhi	r4,129
  800270:	213ec604 	addi	r4,r4,-1256
  800274:	08004a40 	call	8004a4 <puts>

    /* Configure WM8731 */
    alt_up_av_config_reset(audio_config_dev);
  800278:	e13f7d17 	ldw	r4,-524(fp)
  80027c:	080d6680 	call	80d668 <alt_up_av_config_reset>
    alt_up_audio_reset_audio_core(audio_dev);
  800280:	e13f7e17 	ldw	r4,-520(fp)
  800284:	080cef80 	call	80cef8 <alt_up_audio_reset_audio_core>

    /* Write to configuration registers in the audio codec; see datasheet for what these values mean */
    alt_up_av_config_write_audio_cfg_register(audio_config_dev, 0x0, 0x17);
  800288:	e13f7d17 	ldw	r4,-524(fp)
  80028c:	000b883a 	mov	r5,zero
  800290:	018005c4 	movi	r6,23
  800294:	080d7a80 	call	80d7a8 <alt_up_av_config_write_audio_cfg_register>
    alt_up_av_config_write_audio_cfg_register(audio_config_dev, 0x1, 0x17);
  800298:	e13f7d17 	ldw	r4,-524(fp)
  80029c:	01400044 	movi	r5,1
  8002a0:	018005c4 	movi	r6,23
  8002a4:	080d7a80 	call	80d7a8 <alt_up_av_config_write_audio_cfg_register>
    alt_up_av_config_write_audio_cfg_register(audio_config_dev, 0x2, 0x79);
  8002a8:	e13f7d17 	ldw	r4,-524(fp)
  8002ac:	01400084 	movi	r5,2
  8002b0:	01801e44 	movi	r6,121
  8002b4:	080d7a80 	call	80d7a8 <alt_up_av_config_write_audio_cfg_register>
    alt_up_av_config_write_audio_cfg_register(audio_config_dev, 0x3, 0x79);
  8002b8:	e13f7d17 	ldw	r4,-524(fp)
  8002bc:	014000c4 	movi	r5,3
  8002c0:	01801e44 	movi	r6,121
  8002c4:	080d7a80 	call	80d7a8 <alt_up_av_config_write_audio_cfg_register>
    alt_up_av_config_write_audio_cfg_register(audio_config_dev, 0x4, 0x15);
  8002c8:	e13f7d17 	ldw	r4,-524(fp)
  8002cc:	01400104 	movi	r5,4
  8002d0:	01800544 	movi	r6,21
  8002d4:	080d7a80 	call	80d7a8 <alt_up_av_config_write_audio_cfg_register>
    alt_up_av_config_write_audio_cfg_register(audio_config_dev, 0x5, 0x06);
  8002d8:	e13f7d17 	ldw	r4,-524(fp)
  8002dc:	01400144 	movi	r5,5
  8002e0:	01800184 	movi	r6,6
  8002e4:	080d7a80 	call	80d7a8 <alt_up_av_config_write_audio_cfg_register>
    alt_up_av_config_write_audio_cfg_register(audio_config_dev, 0x6, 0x00);
  8002e8:	e13f7d17 	ldw	r4,-524(fp)
  8002ec:	01400184 	movi	r5,6
  8002f0:	000d883a 	mov	r6,zero
  8002f4:	080d7a80 	call	80d7a8 <alt_up_av_config_write_audio_cfg_register>

    //main loop
    while(1)
    {
            //read the data from the left buffer
            writeSizeL = alt_up_audio_read_fifo(audio_dev, l_buf, BUFFER_SIZE, ALT_UP_AUDIO_LEFT);
  8002f8:	e17f7f04 	addi	r5,fp,-516
  8002fc:	e13f7e17 	ldw	r4,-520(fp)
  800300:	01802004 	movi	r6,128
  800304:	000f883a 	mov	r7,zero
  800308:	080d2240 	call	80d224 <alt_up_audio_read_fifo>
  80030c:	e0bf7b15 	stw	r2,-532(fp)
            //shift values to a proper base value
            for (i = 0; i < writeSizeL; i = i+1)
  800310:	e03f7c15 	stw	zero,-528(fp)
  800314:	00001206 	br	800360 <audio_data_task+0x174>
            {
                l_buf[i] = l_buf[i] + 0x7fff;
  800318:	e13f7c17 	ldw	r4,-528(fp)
  80031c:	e0bf7c17 	ldw	r2,-528(fp)
  800320:	1085883a 	add	r2,r2,r2
  800324:	1085883a 	add	r2,r2,r2
  800328:	e0ff7b04 	addi	r3,fp,-532
  80032c:	10c5883a 	add	r2,r2,r3
  800330:	10800404 	addi	r2,r2,16
  800334:	10800017 	ldw	r2,0(r2)
  800338:	10dfffc4 	addi	r3,r2,32767
  80033c:	2105883a 	add	r2,r4,r4
  800340:	1085883a 	add	r2,r2,r2
  800344:	e13f7b04 	addi	r4,fp,-532
  800348:	1105883a 	add	r2,r2,r4
  80034c:	10800404 	addi	r2,r2,16
  800350:	10c00015 	stw	r3,0(r2)
    while(1)
    {
            //read the data from the left buffer
            writeSizeL = alt_up_audio_read_fifo(audio_dev, l_buf, BUFFER_SIZE, ALT_UP_AUDIO_LEFT);
            //shift values to a proper base value
            for (i = 0; i < writeSizeL; i = i+1)
  800354:	e0bf7c17 	ldw	r2,-528(fp)
  800358:	10800044 	addi	r2,r2,1
  80035c:	e0bf7c15 	stw	r2,-528(fp)
  800360:	e0ff7c17 	ldw	r3,-528(fp)
  800364:	e0bf7b17 	ldw	r2,-532(fp)
  800368:	18bfeb16 	blt	r3,r2,800318 <audio_data_task+0x12c>
                l_buf[i] = l_buf[i] + 0x7fff;
                //printf("%d,",l_buf[i]);
            }

            //write data to the L and R buffers; R buffer will receive a copy of L buffer data
            alt_up_audio_write_fifo (audio_dev, l_buf, writeSizeL, ALT_UP_AUDIO_RIGHT);
  80036c:	e17f7f04 	addi	r5,fp,-516
  800370:	e13f7e17 	ldw	r4,-520(fp)
  800374:	e1bf7b17 	ldw	r6,-532(fp)
  800378:	01c00044 	movi	r7,1
  80037c:	080d3280 	call	80d328 <alt_up_audio_write_fifo>
            alt_up_audio_write_fifo (audio_dev, l_buf, writeSizeL, ALT_UP_AUDIO_LEFT);
  800380:	e17f7f04 	addi	r5,fp,-516
  800384:	e13f7e17 	ldw	r4,-520(fp)
  800388:	e1bf7b17 	ldw	r6,-532(fp)
  80038c:	000f883a 	mov	r7,zero
  800390:	080d3280 	call	80d328 <alt_up_audio_write_fifo>

    }
  800394:	003fd806 	br	8002f8 <audio_data_task+0x10c>

00800398 <main>:
}


/* main task */
int main(void)
{
  800398:	defff904 	addi	sp,sp,-28
  80039c:	dfc00615 	stw	ra,24(sp)
  8003a0:	df000515 	stw	fp,20(sp)
  8003a4:	df000504 	addi	fp,sp,20
    OSTaskCreateExt(audio_data_task,
  8003a8:	01802074 	movhi	r6,129
  8003ac:	31951004 	addi	r6,r6,21568
  8003b0:	00800044 	movi	r2,1
  8003b4:	d8800015 	stw	r2,0(sp)
  8003b8:	00802074 	movhi	r2,129
  8003bc:	108d1104 	addi	r2,r2,13380
  8003c0:	d8800115 	stw	r2,4(sp)
  8003c4:	00820004 	movi	r2,2048
  8003c8:	d8800215 	stw	r2,8(sp)
  8003cc:	d8000315 	stw	zero,12(sp)
  8003d0:	d8000415 	stw	zero,16(sp)
  8003d4:	01002034 	movhi	r4,128
  8003d8:	21007b04 	addi	r4,r4,492
  8003dc:	000b883a 	mov	r5,zero
  8003e0:	01c00044 	movi	r7,1
  8003e4:	080a52c0 	call	80a52c <OSTaskCreateExt>
                  audio_data_task_stk,
                  AUDIO_DATA_TASK_STACKSIZE,
                  NULL,
                  0);

    OSStart();
  8003e8:	08047580 	call	804758 <OSStart>
    return 0;
  8003ec:	0005883a 	mov	r2,zero
}
  8003f0:	e037883a 	mov	sp,fp
  8003f4:	dfc00117 	ldw	ra,4(sp)
  8003f8:	df000017 	ldw	fp,0(sp)
  8003fc:	dec00204 	addi	sp,sp,8
  800400:	f800283a 	ret

00800404 <_puts_r>:
  800404:	defff604 	addi	sp,sp,-40
  800408:	dc400715 	stw	r17,28(sp)
  80040c:	2023883a 	mov	r17,r4
  800410:	2809883a 	mov	r4,r5
  800414:	dfc00915 	stw	ra,36(sp)
  800418:	dcc00815 	stw	r19,32(sp)
  80041c:	2827883a 	mov	r19,r5
  800420:	08004b80 	call	8004b8 <strlen>
  800424:	89400217 	ldw	r5,8(r17)
  800428:	00c02074 	movhi	r3,129
  80042c:	18fecc04 	addi	r3,r3,-1232
  800430:	01c00044 	movi	r7,1
  800434:	12000044 	addi	r8,r2,1
  800438:	d8c00515 	stw	r3,20(sp)
  80043c:	d9c00615 	stw	r7,24(sp)
  800440:	d8c00304 	addi	r3,sp,12
  800444:	01c00084 	movi	r7,2
  800448:	8809883a 	mov	r4,r17
  80044c:	d80d883a 	mov	r6,sp
  800450:	d8c00015 	stw	r3,0(sp)
  800454:	dcc00315 	stw	r19,12(sp)
  800458:	da000215 	stw	r8,8(sp)
  80045c:	d9c00115 	stw	r7,4(sp)
  800460:	d8800415 	stw	r2,16(sp)
  800464:	080052c0 	call	80052c <__sfvwrite_r>
  800468:	00ffffc4 	movi	r3,-1
  80046c:	10000626 	beq	r2,zero,800488 <_puts_r+0x84>
  800470:	1805883a 	mov	r2,r3
  800474:	dfc00917 	ldw	ra,36(sp)
  800478:	dcc00817 	ldw	r19,32(sp)
  80047c:	dc400717 	ldw	r17,28(sp)
  800480:	dec00a04 	addi	sp,sp,40
  800484:	f800283a 	ret
  800488:	00c00284 	movi	r3,10
  80048c:	1805883a 	mov	r2,r3
  800490:	dfc00917 	ldw	ra,36(sp)
  800494:	dcc00817 	ldw	r19,32(sp)
  800498:	dc400717 	ldw	r17,28(sp)
  80049c:	dec00a04 	addi	sp,sp,40
  8004a0:	f800283a 	ret

008004a4 <puts>:
  8004a4:	00802074 	movhi	r2,129
  8004a8:	1085e004 	addi	r2,r2,6016
  8004ac:	200b883a 	mov	r5,r4
  8004b0:	11000017 	ldw	r4,0(r2)
  8004b4:	08004041 	jmpi	800404 <_puts_r>

008004b8 <strlen>:
  8004b8:	208000cc 	andi	r2,r4,3
  8004bc:	2011883a 	mov	r8,r4
  8004c0:	1000161e 	bne	r2,zero,80051c <strlen+0x64>
  8004c4:	20c00017 	ldw	r3,0(r4)
  8004c8:	017fbff4 	movhi	r5,65279
  8004cc:	297fbfc4 	addi	r5,r5,-257
  8004d0:	01e02074 	movhi	r7,32897
  8004d4:	39e02004 	addi	r7,r7,-32640
  8004d8:	1945883a 	add	r2,r3,r5
  8004dc:	11c4703a 	and	r2,r2,r7
  8004e0:	00c6303a 	nor	r3,zero,r3
  8004e4:	1886703a 	and	r3,r3,r2
  8004e8:	18000c1e 	bne	r3,zero,80051c <strlen+0x64>
  8004ec:	280d883a 	mov	r6,r5
  8004f0:	380b883a 	mov	r5,r7
  8004f4:	21000104 	addi	r4,r4,4
  8004f8:	20800017 	ldw	r2,0(r4)
  8004fc:	1187883a 	add	r3,r2,r6
  800500:	1946703a 	and	r3,r3,r5
  800504:	0084303a 	nor	r2,zero,r2
  800508:	10c4703a 	and	r2,r2,r3
  80050c:	103ff926 	beq	r2,zero,8004f4 <strlen+0x3c>
  800510:	20800007 	ldb	r2,0(r4)
  800514:	10000326 	beq	r2,zero,800524 <strlen+0x6c>
  800518:	21000044 	addi	r4,r4,1
  80051c:	20800007 	ldb	r2,0(r4)
  800520:	103ffd1e 	bne	r2,zero,800518 <strlen+0x60>
  800524:	2205c83a 	sub	r2,r4,r8
  800528:	f800283a 	ret

0080052c <__sfvwrite_r>:
  80052c:	30800217 	ldw	r2,8(r6)
  800530:	defff504 	addi	sp,sp,-44
  800534:	df000915 	stw	fp,36(sp)
  800538:	dd800715 	stw	r22,28(sp)
  80053c:	dc800315 	stw	r18,12(sp)
  800540:	dfc00a15 	stw	ra,40(sp)
  800544:	ddc00815 	stw	r23,32(sp)
  800548:	dd400615 	stw	r21,24(sp)
  80054c:	dd000515 	stw	r20,20(sp)
  800550:	dcc00415 	stw	r19,16(sp)
  800554:	dc400215 	stw	r17,8(sp)
  800558:	dc000115 	stw	r16,4(sp)
  80055c:	302d883a 	mov	r22,r6
  800560:	2039883a 	mov	fp,r4
  800564:	2825883a 	mov	r18,r5
  800568:	10001c26 	beq	r2,zero,8005dc <__sfvwrite_r+0xb0>
  80056c:	29c0030b 	ldhu	r7,12(r5)
  800570:	3880020c 	andi	r2,r7,8
  800574:	10002726 	beq	r2,zero,800614 <__sfvwrite_r+0xe8>
  800578:	28800417 	ldw	r2,16(r5)
  80057c:	10002526 	beq	r2,zero,800614 <__sfvwrite_r+0xe8>
  800580:	3880008c 	andi	r2,r7,2
  800584:	b5400017 	ldw	r21,0(r22)
  800588:	10002826 	beq	r2,zero,80062c <__sfvwrite_r+0x100>
  80058c:	0021883a 	mov	r16,zero
  800590:	0023883a 	mov	r17,zero
  800594:	880d883a 	mov	r6,r17
  800598:	e009883a 	mov	r4,fp
  80059c:	00810004 	movi	r2,1024
  8005a0:	80006e26 	beq	r16,zero,80075c <__sfvwrite_r+0x230>
  8005a4:	800f883a 	mov	r7,r16
  8005a8:	91400717 	ldw	r5,28(r18)
  8005ac:	1400012e 	bgeu	r2,r16,8005b4 <__sfvwrite_r+0x88>
  8005b0:	100f883a 	mov	r7,r2
  8005b4:	90c00917 	ldw	r3,36(r18)
  8005b8:	183ee83a 	callr	r3
  8005bc:	1007883a 	mov	r3,r2
  8005c0:	80a1c83a 	sub	r16,r16,r2
  8005c4:	88a3883a 	add	r17,r17,r2
  8005c8:	00806d0e 	bge	zero,r2,800780 <__sfvwrite_r+0x254>
  8005cc:	b0800217 	ldw	r2,8(r22)
  8005d0:	10c5c83a 	sub	r2,r2,r3
  8005d4:	b0800215 	stw	r2,8(r22)
  8005d8:	103fee1e 	bne	r2,zero,800594 <__sfvwrite_r+0x68>
  8005dc:	0009883a 	mov	r4,zero
  8005e0:	2005883a 	mov	r2,r4
  8005e4:	dfc00a17 	ldw	ra,40(sp)
  8005e8:	df000917 	ldw	fp,36(sp)
  8005ec:	ddc00817 	ldw	r23,32(sp)
  8005f0:	dd800717 	ldw	r22,28(sp)
  8005f4:	dd400617 	ldw	r21,24(sp)
  8005f8:	dd000517 	ldw	r20,20(sp)
  8005fc:	dcc00417 	ldw	r19,16(sp)
  800600:	dc800317 	ldw	r18,12(sp)
  800604:	dc400217 	ldw	r17,8(sp)
  800608:	dc000117 	ldw	r16,4(sp)
  80060c:	dec00b04 	addi	sp,sp,44
  800610:	f800283a 	ret
  800614:	08019d00 	call	8019d0 <__swsetup_r>
  800618:	1000e41e 	bne	r2,zero,8009ac <__sfvwrite_r+0x480>
  80061c:	91c0030b 	ldhu	r7,12(r18)
  800620:	b5400017 	ldw	r21,0(r22)
  800624:	3880008c 	andi	r2,r7,2
  800628:	103fd81e 	bne	r2,zero,80058c <__sfvwrite_r+0x60>
  80062c:	3880004c 	andi	r2,r7,1
  800630:	1005003a 	cmpeq	r2,r2,zero
  800634:	10005726 	beq	r2,zero,800794 <__sfvwrite_r+0x268>
  800638:	0029883a 	mov	r20,zero
  80063c:	002f883a 	mov	r23,zero
  800640:	a0004226 	beq	r20,zero,80074c <__sfvwrite_r+0x220>
  800644:	3880800c 	andi	r2,r7,512
  800648:	94000217 	ldw	r16,8(r18)
  80064c:	10008b26 	beq	r2,zero,80087c <__sfvwrite_r+0x350>
  800650:	800d883a 	mov	r6,r16
  800654:	a400a536 	bltu	r20,r16,8008ec <__sfvwrite_r+0x3c0>
  800658:	3881200c 	andi	r2,r7,1152
  80065c:	10002726 	beq	r2,zero,8006fc <__sfvwrite_r+0x1d0>
  800660:	90800517 	ldw	r2,20(r18)
  800664:	92000417 	ldw	r8,16(r18)
  800668:	91400017 	ldw	r5,0(r18)
  80066c:	1087883a 	add	r3,r2,r2
  800670:	1887883a 	add	r3,r3,r2
  800674:	1808d7fa 	srli	r4,r3,31
  800678:	2a21c83a 	sub	r16,r5,r8
  80067c:	80800044 	addi	r2,r16,1
  800680:	20c9883a 	add	r4,r4,r3
  800684:	2027d07a 	srai	r19,r4,1
  800688:	a085883a 	add	r2,r20,r2
  80068c:	980d883a 	mov	r6,r19
  800690:	9880022e 	bgeu	r19,r2,80069c <__sfvwrite_r+0x170>
  800694:	1027883a 	mov	r19,r2
  800698:	100d883a 	mov	r6,r2
  80069c:	3881000c 	andi	r2,r7,1024
  8006a0:	1000b826 	beq	r2,zero,800984 <__sfvwrite_r+0x458>
  8006a4:	300b883a 	mov	r5,r6
  8006a8:	e009883a 	mov	r4,fp
  8006ac:	08009c80 	call	8009c8 <_malloc_r>
  8006b0:	10003126 	beq	r2,zero,800778 <__sfvwrite_r+0x24c>
  8006b4:	91400417 	ldw	r5,16(r18)
  8006b8:	1009883a 	mov	r4,r2
  8006bc:	800d883a 	mov	r6,r16
  8006c0:	1023883a 	mov	r17,r2
  8006c4:	08011ec0 	call	8011ec <memcpy>
  8006c8:	90c0030b 	ldhu	r3,12(r18)
  8006cc:	00beffc4 	movi	r2,-1025
  8006d0:	1886703a 	and	r3,r3,r2
  8006d4:	18c02014 	ori	r3,r3,128
  8006d8:	90c0030d 	sth	r3,12(r18)
  8006dc:	9c07c83a 	sub	r3,r19,r16
  8006e0:	8c05883a 	add	r2,r17,r16
  8006e4:	a00d883a 	mov	r6,r20
  8006e8:	a021883a 	mov	r16,r20
  8006ec:	90800015 	stw	r2,0(r18)
  8006f0:	90c00215 	stw	r3,8(r18)
  8006f4:	94400415 	stw	r17,16(r18)
  8006f8:	94c00515 	stw	r19,20(r18)
  8006fc:	91000017 	ldw	r4,0(r18)
  800700:	b80b883a 	mov	r5,r23
  800704:	a023883a 	mov	r17,r20
  800708:	080128c0 	call	80128c <memmove>
  80070c:	90c00217 	ldw	r3,8(r18)
  800710:	90800017 	ldw	r2,0(r18)
  800714:	a027883a 	mov	r19,r20
  800718:	1c07c83a 	sub	r3,r3,r16
  80071c:	1405883a 	add	r2,r2,r16
  800720:	90c00215 	stw	r3,8(r18)
  800724:	a021883a 	mov	r16,r20
  800728:	90800015 	stw	r2,0(r18)
  80072c:	b0800217 	ldw	r2,8(r22)
  800730:	1405c83a 	sub	r2,r2,r16
  800734:	b0800215 	stw	r2,8(r22)
  800738:	103fa826 	beq	r2,zero,8005dc <__sfvwrite_r+0xb0>
  80073c:	a469c83a 	sub	r20,r20,r17
  800740:	91c0030b 	ldhu	r7,12(r18)
  800744:	bcef883a 	add	r23,r23,r19
  800748:	a03fbe1e 	bne	r20,zero,800644 <__sfvwrite_r+0x118>
  80074c:	adc00017 	ldw	r23,0(r21)
  800750:	ad000117 	ldw	r20,4(r21)
  800754:	ad400204 	addi	r21,r21,8
  800758:	003fb906 	br	800640 <__sfvwrite_r+0x114>
  80075c:	ac400017 	ldw	r17,0(r21)
  800760:	ac000117 	ldw	r16,4(r21)
  800764:	ad400204 	addi	r21,r21,8
  800768:	003f8a06 	br	800594 <__sfvwrite_r+0x68>
  80076c:	91400417 	ldw	r5,16(r18)
  800770:	e009883a 	mov	r4,fp
  800774:	08021280 	call	802128 <_free_r>
  800778:	00800304 	movi	r2,12
  80077c:	e0800015 	stw	r2,0(fp)
  800780:	9080030b 	ldhu	r2,12(r18)
  800784:	013fffc4 	movi	r4,-1
  800788:	10801014 	ori	r2,r2,64
  80078c:	9080030d 	sth	r2,12(r18)
  800790:	003f9306 	br	8005e0 <__sfvwrite_r+0xb4>
  800794:	0027883a 	mov	r19,zero
  800798:	002f883a 	mov	r23,zero
  80079c:	d8000015 	stw	zero,0(sp)
  8007a0:	0029883a 	mov	r20,zero
  8007a4:	98001e26 	beq	r19,zero,800820 <__sfvwrite_r+0x2f4>
  8007a8:	d8c00017 	ldw	r3,0(sp)
  8007ac:	1804c03a 	cmpne	r2,r3,zero
  8007b0:	10005e26 	beq	r2,zero,80092c <__sfvwrite_r+0x400>
  8007b4:	9821883a 	mov	r16,r19
  8007b8:	a4c0012e 	bgeu	r20,r19,8007c0 <__sfvwrite_r+0x294>
  8007bc:	a021883a 	mov	r16,r20
  8007c0:	91000017 	ldw	r4,0(r18)
  8007c4:	90800417 	ldw	r2,16(r18)
  8007c8:	91800217 	ldw	r6,8(r18)
  8007cc:	91c00517 	ldw	r7,20(r18)
  8007d0:	1100022e 	bgeu	r2,r4,8007dc <__sfvwrite_r+0x2b0>
  8007d4:	31e3883a 	add	r17,r6,r7
  8007d8:	8c001616 	blt	r17,r16,800834 <__sfvwrite_r+0x308>
  8007dc:	81c03816 	blt	r16,r7,8008c0 <__sfvwrite_r+0x394>
  8007e0:	90c00917 	ldw	r3,36(r18)
  8007e4:	91400717 	ldw	r5,28(r18)
  8007e8:	e009883a 	mov	r4,fp
  8007ec:	b80d883a 	mov	r6,r23
  8007f0:	183ee83a 	callr	r3
  8007f4:	1023883a 	mov	r17,r2
  8007f8:	00bfe10e 	bge	zero,r2,800780 <__sfvwrite_r+0x254>
  8007fc:	a469c83a 	sub	r20,r20,r17
  800800:	a0001826 	beq	r20,zero,800864 <__sfvwrite_r+0x338>
  800804:	b0800217 	ldw	r2,8(r22)
  800808:	1445c83a 	sub	r2,r2,r17
  80080c:	b0800215 	stw	r2,8(r22)
  800810:	103f7226 	beq	r2,zero,8005dc <__sfvwrite_r+0xb0>
  800814:	9c67c83a 	sub	r19,r19,r17
  800818:	bc6f883a 	add	r23,r23,r17
  80081c:	983fe21e 	bne	r19,zero,8007a8 <__sfvwrite_r+0x27c>
  800820:	adc00017 	ldw	r23,0(r21)
  800824:	acc00117 	ldw	r19,4(r21)
  800828:	ad400204 	addi	r21,r21,8
  80082c:	d8000015 	stw	zero,0(sp)
  800830:	003fdc06 	br	8007a4 <__sfvwrite_r+0x278>
  800834:	b80b883a 	mov	r5,r23
  800838:	880d883a 	mov	r6,r17
  80083c:	080128c0 	call	80128c <memmove>
  800840:	90c00017 	ldw	r3,0(r18)
  800844:	e009883a 	mov	r4,fp
  800848:	900b883a 	mov	r5,r18
  80084c:	1c47883a 	add	r3,r3,r17
  800850:	90c00015 	stw	r3,0(r18)
  800854:	0801b0c0 	call	801b0c <_fflush_r>
  800858:	103fc91e 	bne	r2,zero,800780 <__sfvwrite_r+0x254>
  80085c:	a469c83a 	sub	r20,r20,r17
  800860:	a03fe81e 	bne	r20,zero,800804 <__sfvwrite_r+0x2d8>
  800864:	e009883a 	mov	r4,fp
  800868:	900b883a 	mov	r5,r18
  80086c:	0801b0c0 	call	801b0c <_fflush_r>
  800870:	103fc31e 	bne	r2,zero,800780 <__sfvwrite_r+0x254>
  800874:	d8000015 	stw	zero,0(sp)
  800878:	003fe206 	br	800804 <__sfvwrite_r+0x2d8>
  80087c:	91000017 	ldw	r4,0(r18)
  800880:	90800417 	ldw	r2,16(r18)
  800884:	1100022e 	bgeu	r2,r4,800890 <__sfvwrite_r+0x364>
  800888:	8023883a 	mov	r17,r16
  80088c:	85003136 	bltu	r16,r20,800954 <__sfvwrite_r+0x428>
  800890:	91c00517 	ldw	r7,20(r18)
  800894:	a1c01836 	bltu	r20,r7,8008f8 <__sfvwrite_r+0x3cc>
  800898:	90c00917 	ldw	r3,36(r18)
  80089c:	91400717 	ldw	r5,28(r18)
  8008a0:	e009883a 	mov	r4,fp
  8008a4:	b80d883a 	mov	r6,r23
  8008a8:	183ee83a 	callr	r3
  8008ac:	1021883a 	mov	r16,r2
  8008b0:	00bfb30e 	bge	zero,r2,800780 <__sfvwrite_r+0x254>
  8008b4:	1023883a 	mov	r17,r2
  8008b8:	1027883a 	mov	r19,r2
  8008bc:	003f9b06 	br	80072c <__sfvwrite_r+0x200>
  8008c0:	b80b883a 	mov	r5,r23
  8008c4:	800d883a 	mov	r6,r16
  8008c8:	080128c0 	call	80128c <memmove>
  8008cc:	90c00217 	ldw	r3,8(r18)
  8008d0:	90800017 	ldw	r2,0(r18)
  8008d4:	8023883a 	mov	r17,r16
  8008d8:	1c07c83a 	sub	r3,r3,r16
  8008dc:	1405883a 	add	r2,r2,r16
  8008e0:	90c00215 	stw	r3,8(r18)
  8008e4:	90800015 	stw	r2,0(r18)
  8008e8:	003fc406 	br	8007fc <__sfvwrite_r+0x2d0>
  8008ec:	a00d883a 	mov	r6,r20
  8008f0:	a021883a 	mov	r16,r20
  8008f4:	003f8106 	br	8006fc <__sfvwrite_r+0x1d0>
  8008f8:	b80b883a 	mov	r5,r23
  8008fc:	a00d883a 	mov	r6,r20
  800900:	080128c0 	call	80128c <memmove>
  800904:	90c00217 	ldw	r3,8(r18)
  800908:	90800017 	ldw	r2,0(r18)
  80090c:	a021883a 	mov	r16,r20
  800910:	1d07c83a 	sub	r3,r3,r20
  800914:	1505883a 	add	r2,r2,r20
  800918:	a023883a 	mov	r17,r20
  80091c:	a027883a 	mov	r19,r20
  800920:	90c00215 	stw	r3,8(r18)
  800924:	90800015 	stw	r2,0(r18)
  800928:	003f8006 	br	80072c <__sfvwrite_r+0x200>
  80092c:	b809883a 	mov	r4,r23
  800930:	01400284 	movi	r5,10
  800934:	980d883a 	mov	r6,r19
  800938:	08011080 	call	801108 <memchr>
  80093c:	10001726 	beq	r2,zero,80099c <__sfvwrite_r+0x470>
  800940:	15c5c83a 	sub	r2,r2,r23
  800944:	15000044 	addi	r20,r2,1
  800948:	00800044 	movi	r2,1
  80094c:	d8800015 	stw	r2,0(sp)
  800950:	003f9806 	br	8007b4 <__sfvwrite_r+0x288>
  800954:	b80b883a 	mov	r5,r23
  800958:	800d883a 	mov	r6,r16
  80095c:	080128c0 	call	80128c <memmove>
  800960:	90c00017 	ldw	r3,0(r18)
  800964:	e009883a 	mov	r4,fp
  800968:	900b883a 	mov	r5,r18
  80096c:	1c07883a 	add	r3,r3,r16
  800970:	90c00015 	stw	r3,0(r18)
  800974:	8027883a 	mov	r19,r16
  800978:	0801b0c0 	call	801b0c <_fflush_r>
  80097c:	103f6b26 	beq	r2,zero,80072c <__sfvwrite_r+0x200>
  800980:	003f7f06 	br	800780 <__sfvwrite_r+0x254>
  800984:	400b883a 	mov	r5,r8
  800988:	e009883a 	mov	r4,fp
  80098c:	080136c0 	call	80136c <_realloc_r>
  800990:	103f7626 	beq	r2,zero,80076c <__sfvwrite_r+0x240>
  800994:	1023883a 	mov	r17,r2
  800998:	003f5006 	br	8006dc <__sfvwrite_r+0x1b0>
  80099c:	00c00044 	movi	r3,1
  8009a0:	9d000044 	addi	r20,r19,1
  8009a4:	d8c00015 	stw	r3,0(sp)
  8009a8:	003f8206 	br	8007b4 <__sfvwrite_r+0x288>
  8009ac:	9080030b 	ldhu	r2,12(r18)
  8009b0:	00c00244 	movi	r3,9
  8009b4:	013fffc4 	movi	r4,-1
  8009b8:	10801014 	ori	r2,r2,64
  8009bc:	9080030d 	sth	r2,12(r18)
  8009c0:	e0c00015 	stw	r3,0(fp)
  8009c4:	003f0606 	br	8005e0 <__sfvwrite_r+0xb4>

008009c8 <_malloc_r>:
  8009c8:	defff604 	addi	sp,sp,-40
  8009cc:	28c002c4 	addi	r3,r5,11
  8009d0:	00800584 	movi	r2,22
  8009d4:	dc800215 	stw	r18,8(sp)
  8009d8:	dfc00915 	stw	ra,36(sp)
  8009dc:	df000815 	stw	fp,32(sp)
  8009e0:	ddc00715 	stw	r23,28(sp)
  8009e4:	dd800615 	stw	r22,24(sp)
  8009e8:	dd400515 	stw	r21,20(sp)
  8009ec:	dd000415 	stw	r20,16(sp)
  8009f0:	dcc00315 	stw	r19,12(sp)
  8009f4:	dc400115 	stw	r17,4(sp)
  8009f8:	dc000015 	stw	r16,0(sp)
  8009fc:	2025883a 	mov	r18,r4
  800a00:	10c01236 	bltu	r2,r3,800a4c <_malloc_r+0x84>
  800a04:	04400404 	movi	r17,16
  800a08:	8940142e 	bgeu	r17,r5,800a5c <_malloc_r+0x94>
  800a0c:	00800304 	movi	r2,12
  800a10:	0007883a 	mov	r3,zero
  800a14:	90800015 	stw	r2,0(r18)
  800a18:	1805883a 	mov	r2,r3
  800a1c:	dfc00917 	ldw	ra,36(sp)
  800a20:	df000817 	ldw	fp,32(sp)
  800a24:	ddc00717 	ldw	r23,28(sp)
  800a28:	dd800617 	ldw	r22,24(sp)
  800a2c:	dd400517 	ldw	r21,20(sp)
  800a30:	dd000417 	ldw	r20,16(sp)
  800a34:	dcc00317 	ldw	r19,12(sp)
  800a38:	dc800217 	ldw	r18,8(sp)
  800a3c:	dc400117 	ldw	r17,4(sp)
  800a40:	dc000017 	ldw	r16,0(sp)
  800a44:	dec00a04 	addi	sp,sp,40
  800a48:	f800283a 	ret
  800a4c:	00bffe04 	movi	r2,-8
  800a50:	18a2703a 	and	r17,r3,r2
  800a54:	883fed16 	blt	r17,zero,800a0c <_malloc_r+0x44>
  800a58:	897fec36 	bltu	r17,r5,800a0c <_malloc_r+0x44>
  800a5c:	9009883a 	mov	r4,r18
  800a60:	08039180 	call	803918 <__malloc_lock>
  800a64:	00807dc4 	movi	r2,503
  800a68:	14402b2e 	bgeu	r2,r17,800b18 <_malloc_r+0x150>
  800a6c:	8806d27a 	srli	r3,r17,9
  800a70:	18003f1e 	bne	r3,zero,800b70 <_malloc_r+0x1a8>
  800a74:	880cd0fa 	srli	r6,r17,3
  800a78:	300490fa 	slli	r2,r6,3
  800a7c:	02c02074 	movhi	r11,129
  800a80:	5ac03604 	addi	r11,r11,216
  800a84:	12cb883a 	add	r5,r2,r11
  800a88:	2c000317 	ldw	r16,12(r5)
  800a8c:	580f883a 	mov	r7,r11
  800a90:	2c00041e 	bne	r5,r16,800aa4 <_malloc_r+0xdc>
  800a94:	00000a06 	br	800ac0 <_malloc_r+0xf8>
  800a98:	1800860e 	bge	r3,zero,800cb4 <_malloc_r+0x2ec>
  800a9c:	84000317 	ldw	r16,12(r16)
  800aa0:	2c000726 	beq	r5,r16,800ac0 <_malloc_r+0xf8>
  800aa4:	80800117 	ldw	r2,4(r16)
  800aa8:	00ffff04 	movi	r3,-4
  800aac:	10c8703a 	and	r4,r2,r3
  800ab0:	2447c83a 	sub	r3,r4,r17
  800ab4:	008003c4 	movi	r2,15
  800ab8:	10fff70e 	bge	r2,r3,800a98 <_malloc_r+0xd0>
  800abc:	31bfffc4 	addi	r6,r6,-1
  800ac0:	32400044 	addi	r9,r6,1
  800ac4:	02802074 	movhi	r10,129
  800ac8:	52803804 	addi	r10,r10,224
  800acc:	54000217 	ldw	r16,8(r10)
  800ad0:	8280a026 	beq	r16,r10,800d54 <_malloc_r+0x38c>
  800ad4:	80800117 	ldw	r2,4(r16)
  800ad8:	00ffff04 	movi	r3,-4
  800adc:	10ca703a 	and	r5,r2,r3
  800ae0:	2c4dc83a 	sub	r6,r5,r17
  800ae4:	008003c4 	movi	r2,15
  800ae8:	11808316 	blt	r2,r6,800cf8 <_malloc_r+0x330>
  800aec:	52800315 	stw	r10,12(r10)
  800af0:	52800215 	stw	r10,8(r10)
  800af4:	30002916 	blt	r6,zero,800b9c <_malloc_r+0x1d4>
  800af8:	8147883a 	add	r3,r16,r5
  800afc:	18800117 	ldw	r2,4(r3)
  800b00:	9009883a 	mov	r4,r18
  800b04:	10800054 	ori	r2,r2,1
  800b08:	18800115 	stw	r2,4(r3)
  800b0c:	0803a200 	call	803a20 <__malloc_unlock>
  800b10:	80c00204 	addi	r3,r16,8
  800b14:	003fc006 	br	800a18 <_malloc_r+0x50>
  800b18:	02c02074 	movhi	r11,129
  800b1c:	5ac03604 	addi	r11,r11,216
  800b20:	8ac5883a 	add	r2,r17,r11
  800b24:	14000317 	ldw	r16,12(r2)
  800b28:	580f883a 	mov	r7,r11
  800b2c:	8806d0fa 	srli	r3,r17,3
  800b30:	14006c26 	beq	r2,r16,800ce4 <_malloc_r+0x31c>
  800b34:	80c00117 	ldw	r3,4(r16)
  800b38:	00bfff04 	movi	r2,-4
  800b3c:	81800317 	ldw	r6,12(r16)
  800b40:	1886703a 	and	r3,r3,r2
  800b44:	80c7883a 	add	r3,r16,r3
  800b48:	18800117 	ldw	r2,4(r3)
  800b4c:	81400217 	ldw	r5,8(r16)
  800b50:	9009883a 	mov	r4,r18
  800b54:	10800054 	ori	r2,r2,1
  800b58:	18800115 	stw	r2,4(r3)
  800b5c:	31400215 	stw	r5,8(r6)
  800b60:	29800315 	stw	r6,12(r5)
  800b64:	0803a200 	call	803a20 <__malloc_unlock>
  800b68:	80c00204 	addi	r3,r16,8
  800b6c:	003faa06 	br	800a18 <_malloc_r+0x50>
  800b70:	00800104 	movi	r2,4
  800b74:	10c0052e 	bgeu	r2,r3,800b8c <_malloc_r+0x1c4>
  800b78:	00800504 	movi	r2,20
  800b7c:	10c07836 	bltu	r2,r3,800d60 <_malloc_r+0x398>
  800b80:	198016c4 	addi	r6,r3,91
  800b84:	300490fa 	slli	r2,r6,3
  800b88:	003fbc06 	br	800a7c <_malloc_r+0xb4>
  800b8c:	8804d1ba 	srli	r2,r17,6
  800b90:	11800e04 	addi	r6,r2,56
  800b94:	300490fa 	slli	r2,r6,3
  800b98:	003fb806 	br	800a7c <_malloc_r+0xb4>
  800b9c:	00807fc4 	movi	r2,511
  800ba0:	1140bb36 	bltu	r2,r5,800e90 <_malloc_r+0x4c8>
  800ba4:	2806d0fa 	srli	r3,r5,3
  800ba8:	573ffe04 	addi	fp,r10,-8
  800bac:	00800044 	movi	r2,1
  800bb0:	180890fa 	slli	r4,r3,3
  800bb4:	1807d0ba 	srai	r3,r3,2
  800bb8:	e1c00117 	ldw	r7,4(fp)
  800bbc:	5909883a 	add	r4,r11,r4
  800bc0:	21400217 	ldw	r5,8(r4)
  800bc4:	10c4983a 	sll	r2,r2,r3
  800bc8:	81000315 	stw	r4,12(r16)
  800bcc:	81400215 	stw	r5,8(r16)
  800bd0:	388eb03a 	or	r7,r7,r2
  800bd4:	2c000315 	stw	r16,12(r5)
  800bd8:	24000215 	stw	r16,8(r4)
  800bdc:	e1c00115 	stw	r7,4(fp)
  800be0:	4807883a 	mov	r3,r9
  800be4:	4800cd16 	blt	r9,zero,800f1c <_malloc_r+0x554>
  800be8:	1807d0ba 	srai	r3,r3,2
  800bec:	00800044 	movi	r2,1
  800bf0:	10c8983a 	sll	r4,r2,r3
  800bf4:	39004436 	bltu	r7,r4,800d08 <_malloc_r+0x340>
  800bf8:	21c4703a 	and	r2,r4,r7
  800bfc:	10000a1e 	bne	r2,zero,800c28 <_malloc_r+0x260>
  800c00:	2109883a 	add	r4,r4,r4
  800c04:	00bfff04 	movi	r2,-4
  800c08:	4884703a 	and	r2,r9,r2
  800c0c:	3906703a 	and	r3,r7,r4
  800c10:	12400104 	addi	r9,r2,4
  800c14:	1800041e 	bne	r3,zero,800c28 <_malloc_r+0x260>
  800c18:	2109883a 	add	r4,r4,r4
  800c1c:	3904703a 	and	r2,r7,r4
  800c20:	4a400104 	addi	r9,r9,4
  800c24:	103ffc26 	beq	r2,zero,800c18 <_malloc_r+0x250>
  800c28:	480490fa 	slli	r2,r9,3
  800c2c:	4819883a 	mov	r12,r9
  800c30:	023fff04 	movi	r8,-4
  800c34:	589b883a 	add	r13,r11,r2
  800c38:	6807883a 	mov	r3,r13
  800c3c:	014003c4 	movi	r5,15
  800c40:	1c000317 	ldw	r16,12(r3)
  800c44:	1c00041e 	bne	r3,r16,800c58 <_malloc_r+0x290>
  800c48:	0000a706 	br	800ee8 <_malloc_r+0x520>
  800c4c:	3000ab0e 	bge	r6,zero,800efc <_malloc_r+0x534>
  800c50:	84000317 	ldw	r16,12(r16)
  800c54:	1c00a426 	beq	r3,r16,800ee8 <_malloc_r+0x520>
  800c58:	80800117 	ldw	r2,4(r16)
  800c5c:	1204703a 	and	r2,r2,r8
  800c60:	144dc83a 	sub	r6,r2,r17
  800c64:	29bff90e 	bge	r5,r6,800c4c <_malloc_r+0x284>
  800c68:	81000317 	ldw	r4,12(r16)
  800c6c:	80c00217 	ldw	r3,8(r16)
  800c70:	89400054 	ori	r5,r17,1
  800c74:	8445883a 	add	r2,r16,r17
  800c78:	20c00215 	stw	r3,8(r4)
  800c7c:	19000315 	stw	r4,12(r3)
  800c80:	81400115 	stw	r5,4(r16)
  800c84:	1187883a 	add	r3,r2,r6
  800c88:	31000054 	ori	r4,r6,1
  800c8c:	50800315 	stw	r2,12(r10)
  800c90:	50800215 	stw	r2,8(r10)
  800c94:	19800015 	stw	r6,0(r3)
  800c98:	11000115 	stw	r4,4(r2)
  800c9c:	12800215 	stw	r10,8(r2)
  800ca0:	12800315 	stw	r10,12(r2)
  800ca4:	9009883a 	mov	r4,r18
  800ca8:	0803a200 	call	803a20 <__malloc_unlock>
  800cac:	80c00204 	addi	r3,r16,8
  800cb0:	003f5906 	br	800a18 <_malloc_r+0x50>
  800cb4:	8109883a 	add	r4,r16,r4
  800cb8:	20800117 	ldw	r2,4(r4)
  800cbc:	80c00217 	ldw	r3,8(r16)
  800cc0:	81400317 	ldw	r5,12(r16)
  800cc4:	10800054 	ori	r2,r2,1
  800cc8:	20800115 	stw	r2,4(r4)
  800ccc:	28c00215 	stw	r3,8(r5)
  800cd0:	19400315 	stw	r5,12(r3)
  800cd4:	9009883a 	mov	r4,r18
  800cd8:	0803a200 	call	803a20 <__malloc_unlock>
  800cdc:	80c00204 	addi	r3,r16,8
  800ce0:	003f4d06 	br	800a18 <_malloc_r+0x50>
  800ce4:	80800204 	addi	r2,r16,8
  800ce8:	14000317 	ldw	r16,12(r2)
  800cec:	143f911e 	bne	r2,r16,800b34 <_malloc_r+0x16c>
  800cf0:	1a400084 	addi	r9,r3,2
  800cf4:	003f7306 	br	800ac4 <_malloc_r+0xfc>
  800cf8:	88c00054 	ori	r3,r17,1
  800cfc:	8445883a 	add	r2,r16,r17
  800d00:	80c00115 	stw	r3,4(r16)
  800d04:	003fdf06 	br	800c84 <_malloc_r+0x2bc>
  800d08:	e4000217 	ldw	r16,8(fp)
  800d0c:	00bfff04 	movi	r2,-4
  800d10:	80c00117 	ldw	r3,4(r16)
  800d14:	802d883a 	mov	r22,r16
  800d18:	18aa703a 	and	r21,r3,r2
  800d1c:	ac401636 	bltu	r21,r17,800d78 <_malloc_r+0x3b0>
  800d20:	ac49c83a 	sub	r4,r21,r17
  800d24:	008003c4 	movi	r2,15
  800d28:	1100130e 	bge	r2,r4,800d78 <_malloc_r+0x3b0>
  800d2c:	88800054 	ori	r2,r17,1
  800d30:	8447883a 	add	r3,r16,r17
  800d34:	80800115 	stw	r2,4(r16)
  800d38:	20800054 	ori	r2,r4,1
  800d3c:	18800115 	stw	r2,4(r3)
  800d40:	e0c00215 	stw	r3,8(fp)
  800d44:	9009883a 	mov	r4,r18
  800d48:	0803a200 	call	803a20 <__malloc_unlock>
  800d4c:	80c00204 	addi	r3,r16,8
  800d50:	003f3106 	br	800a18 <_malloc_r+0x50>
  800d54:	39c00117 	ldw	r7,4(r7)
  800d58:	573ffe04 	addi	fp,r10,-8
  800d5c:	003fa006 	br	800be0 <_malloc_r+0x218>
  800d60:	00801504 	movi	r2,84
  800d64:	10c06736 	bltu	r2,r3,800f04 <_malloc_r+0x53c>
  800d68:	8804d33a 	srli	r2,r17,12
  800d6c:	11801b84 	addi	r6,r2,110
  800d70:	300490fa 	slli	r2,r6,3
  800d74:	003f4106 	br	800a7c <_malloc_r+0xb4>
  800d78:	d0a70417 	ldw	r2,-25584(gp)
  800d7c:	d0e00317 	ldw	r3,-32756(gp)
  800d80:	053fffc4 	movi	r20,-1
  800d84:	10800404 	addi	r2,r2,16
  800d88:	88a7883a 	add	r19,r17,r2
  800d8c:	1d000326 	beq	r3,r20,800d9c <_malloc_r+0x3d4>
  800d90:	98c3ffc4 	addi	r3,r19,4095
  800d94:	00bc0004 	movi	r2,-4096
  800d98:	18a6703a 	and	r19,r3,r2
  800d9c:	9009883a 	mov	r4,r18
  800da0:	980b883a 	mov	r5,r19
  800da4:	08019600 	call	801960 <_sbrk_r>
  800da8:	1009883a 	mov	r4,r2
  800dac:	15000426 	beq	r2,r20,800dc0 <_malloc_r+0x3f8>
  800db0:	854b883a 	add	r5,r16,r21
  800db4:	1029883a 	mov	r20,r2
  800db8:	11405a2e 	bgeu	r2,r5,800f24 <_malloc_r+0x55c>
  800dbc:	87000c26 	beq	r16,fp,800df0 <_malloc_r+0x428>
  800dc0:	e4000217 	ldw	r16,8(fp)
  800dc4:	80c00117 	ldw	r3,4(r16)
  800dc8:	00bfff04 	movi	r2,-4
  800dcc:	1884703a 	and	r2,r3,r2
  800dd0:	14400336 	bltu	r2,r17,800de0 <_malloc_r+0x418>
  800dd4:	1449c83a 	sub	r4,r2,r17
  800dd8:	008003c4 	movi	r2,15
  800ddc:	113fd316 	blt	r2,r4,800d2c <_malloc_r+0x364>
  800de0:	9009883a 	mov	r4,r18
  800de4:	0803a200 	call	803a20 <__malloc_unlock>
  800de8:	0007883a 	mov	r3,zero
  800dec:	003f0a06 	br	800a18 <_malloc_r+0x50>
  800df0:	05c02074 	movhi	r23,129
  800df4:	bdcd0704 	addi	r23,r23,13340
  800df8:	b8800017 	ldw	r2,0(r23)
  800dfc:	988d883a 	add	r6,r19,r2
  800e00:	b9800015 	stw	r6,0(r23)
  800e04:	d0e00317 	ldw	r3,-32756(gp)
  800e08:	00bfffc4 	movi	r2,-1
  800e0c:	18808e26 	beq	r3,r2,801048 <_malloc_r+0x680>
  800e10:	2145c83a 	sub	r2,r4,r5
  800e14:	3085883a 	add	r2,r6,r2
  800e18:	b8800015 	stw	r2,0(r23)
  800e1c:	20c001cc 	andi	r3,r4,7
  800e20:	18005f1e 	bne	r3,zero,800fa0 <_malloc_r+0x5d8>
  800e24:	000b883a 	mov	r5,zero
  800e28:	a4c5883a 	add	r2,r20,r19
  800e2c:	1083ffcc 	andi	r2,r2,4095
  800e30:	00c40004 	movi	r3,4096
  800e34:	1887c83a 	sub	r3,r3,r2
  800e38:	28e7883a 	add	r19,r5,r3
  800e3c:	9009883a 	mov	r4,r18
  800e40:	980b883a 	mov	r5,r19
  800e44:	08019600 	call	801960 <_sbrk_r>
  800e48:	1007883a 	mov	r3,r2
  800e4c:	00bfffc4 	movi	r2,-1
  800e50:	18807a26 	beq	r3,r2,80103c <_malloc_r+0x674>
  800e54:	1d05c83a 	sub	r2,r3,r20
  800e58:	9885883a 	add	r2,r19,r2
  800e5c:	10c00054 	ori	r3,r2,1
  800e60:	b8800017 	ldw	r2,0(r23)
  800e64:	a021883a 	mov	r16,r20
  800e68:	a0c00115 	stw	r3,4(r20)
  800e6c:	9885883a 	add	r2,r19,r2
  800e70:	b8800015 	stw	r2,0(r23)
  800e74:	e5000215 	stw	r20,8(fp)
  800e78:	b7003626 	beq	r22,fp,800f54 <_malloc_r+0x58c>
  800e7c:	018003c4 	movi	r6,15
  800e80:	35404b36 	bltu	r6,r21,800fb0 <_malloc_r+0x5e8>
  800e84:	00800044 	movi	r2,1
  800e88:	a0800115 	stw	r2,4(r20)
  800e8c:	003fcd06 	br	800dc4 <_malloc_r+0x3fc>
  800e90:	2808d27a 	srli	r4,r5,9
  800e94:	2000371e 	bne	r4,zero,800f74 <_malloc_r+0x5ac>
  800e98:	2808d0fa 	srli	r4,r5,3
  800e9c:	200690fa 	slli	r3,r4,3
  800ea0:	1ad1883a 	add	r8,r3,r11
  800ea4:	41800217 	ldw	r6,8(r8)
  800ea8:	41805b26 	beq	r8,r6,801018 <_malloc_r+0x650>
  800eac:	30800117 	ldw	r2,4(r6)
  800eb0:	00ffff04 	movi	r3,-4
  800eb4:	10c4703a 	and	r2,r2,r3
  800eb8:	2880022e 	bgeu	r5,r2,800ec4 <_malloc_r+0x4fc>
  800ebc:	31800217 	ldw	r6,8(r6)
  800ec0:	41bffa1e 	bne	r8,r6,800eac <_malloc_r+0x4e4>
  800ec4:	32000317 	ldw	r8,12(r6)
  800ec8:	39c00117 	ldw	r7,4(r7)
  800ecc:	82000315 	stw	r8,12(r16)
  800ed0:	81800215 	stw	r6,8(r16)
  800ed4:	07002074 	movhi	fp,129
  800ed8:	e7003604 	addi	fp,fp,216
  800edc:	34000315 	stw	r16,12(r6)
  800ee0:	44000215 	stw	r16,8(r8)
  800ee4:	003f3e06 	br	800be0 <_malloc_r+0x218>
  800ee8:	63000044 	addi	r12,r12,1
  800eec:	608000cc 	andi	r2,r12,3
  800ef0:	10005d26 	beq	r2,zero,801068 <_malloc_r+0x6a0>
  800ef4:	18c00204 	addi	r3,r3,8
  800ef8:	003f5106 	br	800c40 <_malloc_r+0x278>
  800efc:	8089883a 	add	r4,r16,r2
  800f00:	003f6d06 	br	800cb8 <_malloc_r+0x2f0>
  800f04:	00805504 	movi	r2,340
  800f08:	10c02036 	bltu	r2,r3,800f8c <_malloc_r+0x5c4>
  800f0c:	8804d3fa 	srli	r2,r17,15
  800f10:	11801dc4 	addi	r6,r2,119
  800f14:	300490fa 	slli	r2,r6,3
  800f18:	003ed806 	br	800a7c <_malloc_r+0xb4>
  800f1c:	48c000c4 	addi	r3,r9,3
  800f20:	003f3106 	br	800be8 <_malloc_r+0x220>
  800f24:	05c02074 	movhi	r23,129
  800f28:	bdcd0704 	addi	r23,r23,13340
  800f2c:	b8800017 	ldw	r2,0(r23)
  800f30:	988d883a 	add	r6,r19,r2
  800f34:	b9800015 	stw	r6,0(r23)
  800f38:	293fb21e 	bne	r5,r4,800e04 <_malloc_r+0x43c>
  800f3c:	2083ffcc 	andi	r2,r4,4095
  800f40:	103fb01e 	bne	r2,zero,800e04 <_malloc_r+0x43c>
  800f44:	e4000217 	ldw	r16,8(fp)
  800f48:	9d45883a 	add	r2,r19,r21
  800f4c:	10800054 	ori	r2,r2,1
  800f50:	80800115 	stw	r2,4(r16)
  800f54:	b8c00017 	ldw	r3,0(r23)
  800f58:	d0a70517 	ldw	r2,-25580(gp)
  800f5c:	10c0012e 	bgeu	r2,r3,800f64 <_malloc_r+0x59c>
  800f60:	d0e70515 	stw	r3,-25580(gp)
  800f64:	d0a70617 	ldw	r2,-25576(gp)
  800f68:	10ff962e 	bgeu	r2,r3,800dc4 <_malloc_r+0x3fc>
  800f6c:	d0e70615 	stw	r3,-25576(gp)
  800f70:	003f9406 	br	800dc4 <_malloc_r+0x3fc>
  800f74:	00800104 	movi	r2,4
  800f78:	11001e36 	bltu	r2,r4,800ff4 <_malloc_r+0x62c>
  800f7c:	2804d1ba 	srli	r2,r5,6
  800f80:	11000e04 	addi	r4,r2,56
  800f84:	200690fa 	slli	r3,r4,3
  800f88:	003fc506 	br	800ea0 <_malloc_r+0x4d8>
  800f8c:	00815504 	movi	r2,1364
  800f90:	10c01d2e 	bgeu	r2,r3,801008 <_malloc_r+0x640>
  800f94:	01801f84 	movi	r6,126
  800f98:	0080fc04 	movi	r2,1008
  800f9c:	003eb706 	br	800a7c <_malloc_r+0xb4>
  800fa0:	00800204 	movi	r2,8
  800fa4:	10cbc83a 	sub	r5,r2,r3
  800fa8:	2169883a 	add	r20,r4,r5
  800fac:	003f9e06 	br	800e28 <_malloc_r+0x460>
  800fb0:	00bffe04 	movi	r2,-8
  800fb4:	a93ffd04 	addi	r4,r21,-12
  800fb8:	2088703a 	and	r4,r4,r2
  800fbc:	b10b883a 	add	r5,r22,r4
  800fc0:	00c00144 	movi	r3,5
  800fc4:	28c00215 	stw	r3,8(r5)
  800fc8:	28c00115 	stw	r3,4(r5)
  800fcc:	b0800117 	ldw	r2,4(r22)
  800fd0:	1080004c 	andi	r2,r2,1
  800fd4:	2084b03a 	or	r2,r4,r2
  800fd8:	b0800115 	stw	r2,4(r22)
  800fdc:	313fdd2e 	bgeu	r6,r4,800f54 <_malloc_r+0x58c>
  800fe0:	b1400204 	addi	r5,r22,8
  800fe4:	9009883a 	mov	r4,r18
  800fe8:	08021280 	call	802128 <_free_r>
  800fec:	e4000217 	ldw	r16,8(fp)
  800ff0:	003fd806 	br	800f54 <_malloc_r+0x58c>
  800ff4:	00800504 	movi	r2,20
  800ff8:	11001536 	bltu	r2,r4,801050 <_malloc_r+0x688>
  800ffc:	210016c4 	addi	r4,r4,91
  801000:	200690fa 	slli	r3,r4,3
  801004:	003fa606 	br	800ea0 <_malloc_r+0x4d8>
  801008:	8804d4ba 	srli	r2,r17,18
  80100c:	11801f04 	addi	r6,r2,124
  801010:	300490fa 	slli	r2,r6,3
  801014:	003e9906 	br	800a7c <_malloc_r+0xb4>
  801018:	2009d0ba 	srai	r4,r4,2
  80101c:	01402074 	movhi	r5,129
  801020:	29403604 	addi	r5,r5,216
  801024:	00c00044 	movi	r3,1
  801028:	28800117 	ldw	r2,4(r5)
  80102c:	1906983a 	sll	r3,r3,r4
  801030:	10c4b03a 	or	r2,r2,r3
  801034:	28800115 	stw	r2,4(r5)
  801038:	003fa306 	br	800ec8 <_malloc_r+0x500>
  80103c:	0027883a 	mov	r19,zero
  801040:	00c00044 	movi	r3,1
  801044:	003f8606 	br	800e60 <_malloc_r+0x498>
  801048:	d1200315 	stw	r4,-32756(gp)
  80104c:	003f7306 	br	800e1c <_malloc_r+0x454>
  801050:	00801504 	movi	r2,84
  801054:	11001936 	bltu	r2,r4,8010bc <_malloc_r+0x6f4>
  801058:	2804d33a 	srli	r2,r5,12
  80105c:	11001b84 	addi	r4,r2,110
  801060:	200690fa 	slli	r3,r4,3
  801064:	003f8e06 	br	800ea0 <_malloc_r+0x4d8>
  801068:	480b883a 	mov	r5,r9
  80106c:	6807883a 	mov	r3,r13
  801070:	288000cc 	andi	r2,r5,3
  801074:	18fffe04 	addi	r3,r3,-8
  801078:	297fffc4 	addi	r5,r5,-1
  80107c:	10001526 	beq	r2,zero,8010d4 <_malloc_r+0x70c>
  801080:	18800217 	ldw	r2,8(r3)
  801084:	10fffa26 	beq	r2,r3,801070 <_malloc_r+0x6a8>
  801088:	2109883a 	add	r4,r4,r4
  80108c:	393f1e36 	bltu	r7,r4,800d08 <_malloc_r+0x340>
  801090:	203f1d26 	beq	r4,zero,800d08 <_malloc_r+0x340>
  801094:	21c4703a 	and	r2,r4,r7
  801098:	10000226 	beq	r2,zero,8010a4 <_malloc_r+0x6dc>
  80109c:	6013883a 	mov	r9,r12
  8010a0:	003ee106 	br	800c28 <_malloc_r+0x260>
  8010a4:	2109883a 	add	r4,r4,r4
  8010a8:	3904703a 	and	r2,r7,r4
  8010ac:	63000104 	addi	r12,r12,4
  8010b0:	103ffc26 	beq	r2,zero,8010a4 <_malloc_r+0x6dc>
  8010b4:	6013883a 	mov	r9,r12
  8010b8:	003edb06 	br	800c28 <_malloc_r+0x260>
  8010bc:	00805504 	movi	r2,340
  8010c0:	11000836 	bltu	r2,r4,8010e4 <_malloc_r+0x71c>
  8010c4:	2804d3fa 	srli	r2,r5,15
  8010c8:	11001dc4 	addi	r4,r2,119
  8010cc:	200690fa 	slli	r3,r4,3
  8010d0:	003f7306 	br	800ea0 <_malloc_r+0x4d8>
  8010d4:	0104303a 	nor	r2,zero,r4
  8010d8:	388e703a 	and	r7,r7,r2
  8010dc:	e1c00115 	stw	r7,4(fp)
  8010e0:	003fe906 	br	801088 <_malloc_r+0x6c0>
  8010e4:	00815504 	movi	r2,1364
  8010e8:	1100032e 	bgeu	r2,r4,8010f8 <_malloc_r+0x730>
  8010ec:	01001f84 	movi	r4,126
  8010f0:	00c0fc04 	movi	r3,1008
  8010f4:	003f6a06 	br	800ea0 <_malloc_r+0x4d8>
  8010f8:	2804d4ba 	srli	r2,r5,18
  8010fc:	11001f04 	addi	r4,r2,124
  801100:	200690fa 	slli	r3,r4,3
  801104:	003f6606 	br	800ea0 <_malloc_r+0x4d8>

00801108 <memchr>:
  801108:	008000c4 	movi	r2,3
  80110c:	29403fcc 	andi	r5,r5,255
  801110:	2007883a 	mov	r3,r4
  801114:	1180022e 	bgeu	r2,r6,801120 <memchr+0x18>
  801118:	2084703a 	and	r2,r4,r2
  80111c:	10000b26 	beq	r2,zero,80114c <memchr+0x44>
  801120:	313fffc4 	addi	r4,r6,-1
  801124:	3000051e 	bne	r6,zero,80113c <memchr+0x34>
  801128:	00002c06 	br	8011dc <memchr+0xd4>
  80112c:	213fffc4 	addi	r4,r4,-1
  801130:	00bfffc4 	movi	r2,-1
  801134:	18c00044 	addi	r3,r3,1
  801138:	20802826 	beq	r4,r2,8011dc <memchr+0xd4>
  80113c:	18800003 	ldbu	r2,0(r3)
  801140:	28bffa1e 	bne	r5,r2,80112c <memchr+0x24>
  801144:	1805883a 	mov	r2,r3
  801148:	f800283a 	ret
  80114c:	0011883a 	mov	r8,zero
  801150:	0007883a 	mov	r3,zero
  801154:	01c00104 	movi	r7,4
  801158:	4004923a 	slli	r2,r8,8
  80115c:	18c00044 	addi	r3,r3,1
  801160:	1151883a 	add	r8,r2,r5
  801164:	19fffc1e 	bne	r3,r7,801158 <memchr+0x50>
  801168:	02bfbff4 	movhi	r10,65279
  80116c:	52bfbfc4 	addi	r10,r10,-257
  801170:	02602074 	movhi	r9,32897
  801174:	4a602004 	addi	r9,r9,-32640
  801178:	02c000c4 	movi	r11,3
  80117c:	20800017 	ldw	r2,0(r4)
  801180:	31bfff04 	addi	r6,r6,-4
  801184:	200f883a 	mov	r7,r4
  801188:	1204f03a 	xor	r2,r2,r8
  80118c:	1287883a 	add	r3,r2,r10
  801190:	1a46703a 	and	r3,r3,r9
  801194:	0084303a 	nor	r2,zero,r2
  801198:	10c4703a 	and	r2,r2,r3
  80119c:	10000b26 	beq	r2,zero,8011cc <memchr+0xc4>
  8011a0:	20800003 	ldbu	r2,0(r4)
  8011a4:	28800f26 	beq	r5,r2,8011e4 <memchr+0xdc>
  8011a8:	20800043 	ldbu	r2,1(r4)
  8011ac:	21c00044 	addi	r7,r4,1
  8011b0:	28800c26 	beq	r5,r2,8011e4 <memchr+0xdc>
  8011b4:	20800083 	ldbu	r2,2(r4)
  8011b8:	21c00084 	addi	r7,r4,2
  8011bc:	28800926 	beq	r5,r2,8011e4 <memchr+0xdc>
  8011c0:	208000c3 	ldbu	r2,3(r4)
  8011c4:	21c000c4 	addi	r7,r4,3
  8011c8:	28800626 	beq	r5,r2,8011e4 <memchr+0xdc>
  8011cc:	21000104 	addi	r4,r4,4
  8011d0:	59bfea36 	bltu	r11,r6,80117c <memchr+0x74>
  8011d4:	2007883a 	mov	r3,r4
  8011d8:	003fd106 	br	801120 <memchr+0x18>
  8011dc:	0005883a 	mov	r2,zero
  8011e0:	f800283a 	ret
  8011e4:	3805883a 	mov	r2,r7
  8011e8:	f800283a 	ret

008011ec <memcpy>:
  8011ec:	01c003c4 	movi	r7,15
  8011f0:	2007883a 	mov	r3,r4
  8011f4:	3980032e 	bgeu	r7,r6,801204 <memcpy+0x18>
  8011f8:	2904b03a 	or	r2,r5,r4
  8011fc:	108000cc 	andi	r2,r2,3
  801200:	10000926 	beq	r2,zero,801228 <memcpy+0x3c>
  801204:	30000626 	beq	r6,zero,801220 <memcpy+0x34>
  801208:	30cd883a 	add	r6,r6,r3
  80120c:	28800003 	ldbu	r2,0(r5)
  801210:	29400044 	addi	r5,r5,1
  801214:	18800005 	stb	r2,0(r3)
  801218:	18c00044 	addi	r3,r3,1
  80121c:	30fffb1e 	bne	r6,r3,80120c <memcpy+0x20>
  801220:	2005883a 	mov	r2,r4
  801224:	f800283a 	ret
  801228:	3811883a 	mov	r8,r7
  80122c:	200f883a 	mov	r7,r4
  801230:	28c00017 	ldw	r3,0(r5)
  801234:	31bffc04 	addi	r6,r6,-16
  801238:	38c00015 	stw	r3,0(r7)
  80123c:	28800117 	ldw	r2,4(r5)
  801240:	38800115 	stw	r2,4(r7)
  801244:	28c00217 	ldw	r3,8(r5)
  801248:	38c00215 	stw	r3,8(r7)
  80124c:	28800317 	ldw	r2,12(r5)
  801250:	29400404 	addi	r5,r5,16
  801254:	38800315 	stw	r2,12(r7)
  801258:	39c00404 	addi	r7,r7,16
  80125c:	41bff436 	bltu	r8,r6,801230 <memcpy+0x44>
  801260:	008000c4 	movi	r2,3
  801264:	1180072e 	bgeu	r2,r6,801284 <memcpy+0x98>
  801268:	1007883a 	mov	r3,r2
  80126c:	28800017 	ldw	r2,0(r5)
  801270:	31bfff04 	addi	r6,r6,-4
  801274:	29400104 	addi	r5,r5,4
  801278:	38800015 	stw	r2,0(r7)
  80127c:	39c00104 	addi	r7,r7,4
  801280:	19bffa36 	bltu	r3,r6,80126c <memcpy+0x80>
  801284:	3807883a 	mov	r3,r7
  801288:	003fde06 	br	801204 <memcpy+0x18>

0080128c <memmove>:
  80128c:	2807883a 	mov	r3,r5
  801290:	2011883a 	mov	r8,r4
  801294:	29000c2e 	bgeu	r5,r4,8012c8 <memmove+0x3c>
  801298:	298f883a 	add	r7,r5,r6
  80129c:	21c00a2e 	bgeu	r4,r7,8012c8 <memmove+0x3c>
  8012a0:	30000726 	beq	r6,zero,8012c0 <memmove+0x34>
  8012a4:	2187883a 	add	r3,r4,r6
  8012a8:	198dc83a 	sub	r6,r3,r6
  8012ac:	39ffffc4 	addi	r7,r7,-1
  8012b0:	38800003 	ldbu	r2,0(r7)
  8012b4:	18ffffc4 	addi	r3,r3,-1
  8012b8:	18800005 	stb	r2,0(r3)
  8012bc:	19bffb1e 	bne	r3,r6,8012ac <memmove+0x20>
  8012c0:	2005883a 	mov	r2,r4
  8012c4:	f800283a 	ret
  8012c8:	01c003c4 	movi	r7,15
  8012cc:	39800a36 	bltu	r7,r6,8012f8 <memmove+0x6c>
  8012d0:	303ffb26 	beq	r6,zero,8012c0 <memmove+0x34>
  8012d4:	400f883a 	mov	r7,r8
  8012d8:	320d883a 	add	r6,r6,r8
  8012dc:	28800003 	ldbu	r2,0(r5)
  8012e0:	29400044 	addi	r5,r5,1
  8012e4:	38800005 	stb	r2,0(r7)
  8012e8:	39c00044 	addi	r7,r7,1
  8012ec:	39bffb1e 	bne	r7,r6,8012dc <memmove+0x50>
  8012f0:	2005883a 	mov	r2,r4
  8012f4:	f800283a 	ret
  8012f8:	1904b03a 	or	r2,r3,r4
  8012fc:	108000cc 	andi	r2,r2,3
  801300:	103ff31e 	bne	r2,zero,8012d0 <memmove+0x44>
  801304:	3811883a 	mov	r8,r7
  801308:	180b883a 	mov	r5,r3
  80130c:	200f883a 	mov	r7,r4
  801310:	28c00017 	ldw	r3,0(r5)
  801314:	31bffc04 	addi	r6,r6,-16
  801318:	38c00015 	stw	r3,0(r7)
  80131c:	28800117 	ldw	r2,4(r5)
  801320:	38800115 	stw	r2,4(r7)
  801324:	28c00217 	ldw	r3,8(r5)
  801328:	38c00215 	stw	r3,8(r7)
  80132c:	28800317 	ldw	r2,12(r5)
  801330:	29400404 	addi	r5,r5,16
  801334:	38800315 	stw	r2,12(r7)
  801338:	39c00404 	addi	r7,r7,16
  80133c:	41bff436 	bltu	r8,r6,801310 <memmove+0x84>
  801340:	008000c4 	movi	r2,3
  801344:	1180072e 	bgeu	r2,r6,801364 <memmove+0xd8>
  801348:	1007883a 	mov	r3,r2
  80134c:	28800017 	ldw	r2,0(r5)
  801350:	31bfff04 	addi	r6,r6,-4
  801354:	29400104 	addi	r5,r5,4
  801358:	38800015 	stw	r2,0(r7)
  80135c:	39c00104 	addi	r7,r7,4
  801360:	19bffa36 	bltu	r3,r6,80134c <memmove+0xc0>
  801364:	3811883a 	mov	r8,r7
  801368:	003fd906 	br	8012d0 <memmove+0x44>

0080136c <_realloc_r>:
  80136c:	defff404 	addi	sp,sp,-48
  801370:	dd800815 	stw	r22,32(sp)
  801374:	dc800415 	stw	r18,16(sp)
  801378:	dc400315 	stw	r17,12(sp)
  80137c:	dfc00b15 	stw	ra,44(sp)
  801380:	df000a15 	stw	fp,40(sp)
  801384:	ddc00915 	stw	r23,36(sp)
  801388:	dd400715 	stw	r21,28(sp)
  80138c:	dd000615 	stw	r20,24(sp)
  801390:	dcc00515 	stw	r19,20(sp)
  801394:	dc000215 	stw	r16,8(sp)
  801398:	2825883a 	mov	r18,r5
  80139c:	3023883a 	mov	r17,r6
  8013a0:	202d883a 	mov	r22,r4
  8013a4:	2800c926 	beq	r5,zero,8016cc <_realloc_r+0x360>
  8013a8:	08039180 	call	803918 <__malloc_lock>
  8013ac:	943ffe04 	addi	r16,r18,-8
  8013b0:	88c002c4 	addi	r3,r17,11
  8013b4:	00800584 	movi	r2,22
  8013b8:	82000117 	ldw	r8,4(r16)
  8013bc:	10c01b2e 	bgeu	r2,r3,80142c <_realloc_r+0xc0>
  8013c0:	00bffe04 	movi	r2,-8
  8013c4:	188e703a 	and	r7,r3,r2
  8013c8:	3839883a 	mov	fp,r7
  8013cc:	38001a16 	blt	r7,zero,801438 <_realloc_r+0xcc>
  8013d0:	e4401936 	bltu	fp,r17,801438 <_realloc_r+0xcc>
  8013d4:	013fff04 	movi	r4,-4
  8013d8:	4126703a 	and	r19,r8,r4
  8013dc:	99c02616 	blt	r19,r7,801478 <_realloc_r+0x10c>
  8013e0:	802b883a 	mov	r21,r16
  8013e4:	9829883a 	mov	r20,r19
  8013e8:	84000204 	addi	r16,r16,8
  8013ec:	a80f883a 	mov	r7,r21
  8013f0:	a70dc83a 	sub	r6,r20,fp
  8013f4:	008003c4 	movi	r2,15
  8013f8:	1180c136 	bltu	r2,r6,801700 <_realloc_r+0x394>
  8013fc:	38800117 	ldw	r2,4(r7)
  801400:	a549883a 	add	r4,r20,r21
  801404:	1080004c 	andi	r2,r2,1
  801408:	a084b03a 	or	r2,r20,r2
  80140c:	38800115 	stw	r2,4(r7)
  801410:	20c00117 	ldw	r3,4(r4)
  801414:	18c00054 	ori	r3,r3,1
  801418:	20c00115 	stw	r3,4(r4)
  80141c:	b009883a 	mov	r4,r22
  801420:	0803a200 	call	803a20 <__malloc_unlock>
  801424:	8023883a 	mov	r17,r16
  801428:	00000606 	br	801444 <_realloc_r+0xd8>
  80142c:	01c00404 	movi	r7,16
  801430:	3839883a 	mov	fp,r7
  801434:	e47fe72e 	bgeu	fp,r17,8013d4 <_realloc_r+0x68>
  801438:	00800304 	movi	r2,12
  80143c:	0023883a 	mov	r17,zero
  801440:	b0800015 	stw	r2,0(r22)
  801444:	8805883a 	mov	r2,r17
  801448:	dfc00b17 	ldw	ra,44(sp)
  80144c:	df000a17 	ldw	fp,40(sp)
  801450:	ddc00917 	ldw	r23,36(sp)
  801454:	dd800817 	ldw	r22,32(sp)
  801458:	dd400717 	ldw	r21,28(sp)
  80145c:	dd000617 	ldw	r20,24(sp)
  801460:	dcc00517 	ldw	r19,20(sp)
  801464:	dc800417 	ldw	r18,16(sp)
  801468:	dc400317 	ldw	r17,12(sp)
  80146c:	dc000217 	ldw	r16,8(sp)
  801470:	dec00c04 	addi	sp,sp,48
  801474:	f800283a 	ret
  801478:	00802074 	movhi	r2,129
  80147c:	10803604 	addi	r2,r2,216
  801480:	12400217 	ldw	r9,8(r2)
  801484:	84cd883a 	add	r6,r16,r19
  801488:	802b883a 	mov	r21,r16
  80148c:	3240b926 	beq	r6,r9,801774 <_realloc_r+0x408>
  801490:	31400117 	ldw	r5,4(r6)
  801494:	00bfff84 	movi	r2,-2
  801498:	2884703a 	and	r2,r5,r2
  80149c:	1185883a 	add	r2,r2,r6
  8014a0:	10c00117 	ldw	r3,4(r2)
  8014a4:	18c0004c 	andi	r3,r3,1
  8014a8:	1807003a 	cmpeq	r3,r3,zero
  8014ac:	1800a326 	beq	r3,zero,80173c <_realloc_r+0x3d0>
  8014b0:	2908703a 	and	r4,r5,r4
  8014b4:	9929883a 	add	r20,r19,r4
  8014b8:	a1c0a30e 	bge	r20,r7,801748 <_realloc_r+0x3dc>
  8014bc:	4080004c 	andi	r2,r8,1
  8014c0:	1000551e 	bne	r2,zero,801618 <_realloc_r+0x2ac>
  8014c4:	80800017 	ldw	r2,0(r16)
  8014c8:	80afc83a 	sub	r23,r16,r2
  8014cc:	b8c00117 	ldw	r3,4(r23)
  8014d0:	00bfff04 	movi	r2,-4
  8014d4:	1884703a 	and	r2,r3,r2
  8014d8:	30002e26 	beq	r6,zero,801594 <_realloc_r+0x228>
  8014dc:	3240b926 	beq	r6,r9,8017c4 <_realloc_r+0x458>
  8014e0:	98a9883a 	add	r20,r19,r2
  8014e4:	2509883a 	add	r4,r4,r20
  8014e8:	d9000015 	stw	r4,0(sp)
  8014ec:	21c02a16 	blt	r4,r7,801598 <_realloc_r+0x22c>
  8014f0:	30800317 	ldw	r2,12(r6)
  8014f4:	30c00217 	ldw	r3,8(r6)
  8014f8:	01400904 	movi	r5,36
  8014fc:	99bfff04 	addi	r6,r19,-4
  801500:	18800315 	stw	r2,12(r3)
  801504:	10c00215 	stw	r3,8(r2)
  801508:	b9000317 	ldw	r4,12(r23)
  80150c:	b8800217 	ldw	r2,8(r23)
  801510:	b82b883a 	mov	r21,r23
  801514:	bc000204 	addi	r16,r23,8
  801518:	20800215 	stw	r2,8(r4)
  80151c:	11000315 	stw	r4,12(r2)
  801520:	2980e436 	bltu	r5,r6,8018b4 <_realloc_r+0x548>
  801524:	008004c4 	movi	r2,19
  801528:	9009883a 	mov	r4,r18
  80152c:	8011883a 	mov	r8,r16
  801530:	11800f2e 	bgeu	r2,r6,801570 <_realloc_r+0x204>
  801534:	90800017 	ldw	r2,0(r18)
  801538:	ba000404 	addi	r8,r23,16
  80153c:	91000204 	addi	r4,r18,8
  801540:	b8800215 	stw	r2,8(r23)
  801544:	90c00117 	ldw	r3,4(r18)
  801548:	008006c4 	movi	r2,27
  80154c:	b8c00315 	stw	r3,12(r23)
  801550:	1180072e 	bgeu	r2,r6,801570 <_realloc_r+0x204>
  801554:	90c00217 	ldw	r3,8(r18)
  801558:	ba000604 	addi	r8,r23,24
  80155c:	91000404 	addi	r4,r18,16
  801560:	b8c00415 	stw	r3,16(r23)
  801564:	90800317 	ldw	r2,12(r18)
  801568:	b8800515 	stw	r2,20(r23)
  80156c:	3140e726 	beq	r6,r5,80190c <_realloc_r+0x5a0>
  801570:	20800017 	ldw	r2,0(r4)
  801574:	dd000017 	ldw	r20,0(sp)
  801578:	b80f883a 	mov	r7,r23
  80157c:	40800015 	stw	r2,0(r8)
  801580:	20c00117 	ldw	r3,4(r4)
  801584:	40c00115 	stw	r3,4(r8)
  801588:	20800217 	ldw	r2,8(r4)
  80158c:	40800215 	stw	r2,8(r8)
  801590:	003f9706 	br	8013f0 <_realloc_r+0x84>
  801594:	98a9883a 	add	r20,r19,r2
  801598:	a1c01f16 	blt	r20,r7,801618 <_realloc_r+0x2ac>
  80159c:	b8c00317 	ldw	r3,12(r23)
  8015a0:	b8800217 	ldw	r2,8(r23)
  8015a4:	99bfff04 	addi	r6,r19,-4
  8015a8:	01400904 	movi	r5,36
  8015ac:	b82b883a 	mov	r21,r23
  8015b0:	18800215 	stw	r2,8(r3)
  8015b4:	10c00315 	stw	r3,12(r2)
  8015b8:	bc000204 	addi	r16,r23,8
  8015bc:	2980c336 	bltu	r5,r6,8018cc <_realloc_r+0x560>
  8015c0:	008004c4 	movi	r2,19
  8015c4:	9009883a 	mov	r4,r18
  8015c8:	8011883a 	mov	r8,r16
  8015cc:	11800f2e 	bgeu	r2,r6,80160c <_realloc_r+0x2a0>
  8015d0:	90800017 	ldw	r2,0(r18)
  8015d4:	ba000404 	addi	r8,r23,16
  8015d8:	91000204 	addi	r4,r18,8
  8015dc:	b8800215 	stw	r2,8(r23)
  8015e0:	90c00117 	ldw	r3,4(r18)
  8015e4:	008006c4 	movi	r2,27
  8015e8:	b8c00315 	stw	r3,12(r23)
  8015ec:	1180072e 	bgeu	r2,r6,80160c <_realloc_r+0x2a0>
  8015f0:	90c00217 	ldw	r3,8(r18)
  8015f4:	ba000604 	addi	r8,r23,24
  8015f8:	91000404 	addi	r4,r18,16
  8015fc:	b8c00415 	stw	r3,16(r23)
  801600:	90800317 	ldw	r2,12(r18)
  801604:	b8800515 	stw	r2,20(r23)
  801608:	3140c726 	beq	r6,r5,801928 <_realloc_r+0x5bc>
  80160c:	20800017 	ldw	r2,0(r4)
  801610:	b80f883a 	mov	r7,r23
  801614:	003fd906 	br	80157c <_realloc_r+0x210>
  801618:	880b883a 	mov	r5,r17
  80161c:	b009883a 	mov	r4,r22
  801620:	08009c80 	call	8009c8 <_malloc_r>
  801624:	1023883a 	mov	r17,r2
  801628:	10002526 	beq	r2,zero,8016c0 <_realloc_r+0x354>
  80162c:	80800117 	ldw	r2,4(r16)
  801630:	00ffff84 	movi	r3,-2
  801634:	893ffe04 	addi	r4,r17,-8
  801638:	10c4703a 	and	r2,r2,r3
  80163c:	8085883a 	add	r2,r16,r2
  801640:	20809526 	beq	r4,r2,801898 <_realloc_r+0x52c>
  801644:	99bfff04 	addi	r6,r19,-4
  801648:	01c00904 	movi	r7,36
  80164c:	39804536 	bltu	r7,r6,801764 <_realloc_r+0x3f8>
  801650:	008004c4 	movi	r2,19
  801654:	9009883a 	mov	r4,r18
  801658:	880b883a 	mov	r5,r17
  80165c:	11800f2e 	bgeu	r2,r6,80169c <_realloc_r+0x330>
  801660:	90800017 	ldw	r2,0(r18)
  801664:	89400204 	addi	r5,r17,8
  801668:	91000204 	addi	r4,r18,8
  80166c:	88800015 	stw	r2,0(r17)
  801670:	90c00117 	ldw	r3,4(r18)
  801674:	008006c4 	movi	r2,27
  801678:	88c00115 	stw	r3,4(r17)
  80167c:	1180072e 	bgeu	r2,r6,80169c <_realloc_r+0x330>
  801680:	90c00217 	ldw	r3,8(r18)
  801684:	89400404 	addi	r5,r17,16
  801688:	91000404 	addi	r4,r18,16
  80168c:	88c00215 	stw	r3,8(r17)
  801690:	90800317 	ldw	r2,12(r18)
  801694:	88800315 	stw	r2,12(r17)
  801698:	31c09126 	beq	r6,r7,8018e0 <_realloc_r+0x574>
  80169c:	20800017 	ldw	r2,0(r4)
  8016a0:	28800015 	stw	r2,0(r5)
  8016a4:	20c00117 	ldw	r3,4(r4)
  8016a8:	28c00115 	stw	r3,4(r5)
  8016ac:	20800217 	ldw	r2,8(r4)
  8016b0:	28800215 	stw	r2,8(r5)
  8016b4:	900b883a 	mov	r5,r18
  8016b8:	b009883a 	mov	r4,r22
  8016bc:	08021280 	call	802128 <_free_r>
  8016c0:	b009883a 	mov	r4,r22
  8016c4:	0803a200 	call	803a20 <__malloc_unlock>
  8016c8:	003f5e06 	br	801444 <_realloc_r+0xd8>
  8016cc:	300b883a 	mov	r5,r6
  8016d0:	dfc00b17 	ldw	ra,44(sp)
  8016d4:	df000a17 	ldw	fp,40(sp)
  8016d8:	ddc00917 	ldw	r23,36(sp)
  8016dc:	dd800817 	ldw	r22,32(sp)
  8016e0:	dd400717 	ldw	r21,28(sp)
  8016e4:	dd000617 	ldw	r20,24(sp)
  8016e8:	dcc00517 	ldw	r19,20(sp)
  8016ec:	dc800417 	ldw	r18,16(sp)
  8016f0:	dc400317 	ldw	r17,12(sp)
  8016f4:	dc000217 	ldw	r16,8(sp)
  8016f8:	dec00c04 	addi	sp,sp,48
  8016fc:	08009c81 	jmpi	8009c8 <_malloc_r>
  801700:	38800117 	ldw	r2,4(r7)
  801704:	e54b883a 	add	r5,fp,r21
  801708:	31000054 	ori	r4,r6,1
  80170c:	1080004c 	andi	r2,r2,1
  801710:	1704b03a 	or	r2,r2,fp
  801714:	38800115 	stw	r2,4(r7)
  801718:	29000115 	stw	r4,4(r5)
  80171c:	2987883a 	add	r3,r5,r6
  801720:	18800117 	ldw	r2,4(r3)
  801724:	29400204 	addi	r5,r5,8
  801728:	b009883a 	mov	r4,r22
  80172c:	10800054 	ori	r2,r2,1
  801730:	18800115 	stw	r2,4(r3)
  801734:	08021280 	call	802128 <_free_r>
  801738:	003f3806 	br	80141c <_realloc_r+0xb0>
  80173c:	000d883a 	mov	r6,zero
  801740:	0009883a 	mov	r4,zero
  801744:	003f5d06 	br	8014bc <_realloc_r+0x150>
  801748:	30c00217 	ldw	r3,8(r6)
  80174c:	30800317 	ldw	r2,12(r6)
  801750:	800f883a 	mov	r7,r16
  801754:	84000204 	addi	r16,r16,8
  801758:	10c00215 	stw	r3,8(r2)
  80175c:	18800315 	stw	r2,12(r3)
  801760:	003f2306 	br	8013f0 <_realloc_r+0x84>
  801764:	8809883a 	mov	r4,r17
  801768:	900b883a 	mov	r5,r18
  80176c:	080128c0 	call	80128c <memmove>
  801770:	003fd006 	br	8016b4 <_realloc_r+0x348>
  801774:	30800117 	ldw	r2,4(r6)
  801778:	e0c00404 	addi	r3,fp,16
  80177c:	1108703a 	and	r4,r2,r4
  801780:	9905883a 	add	r2,r19,r4
  801784:	10ff4d16 	blt	r2,r3,8014bc <_realloc_r+0x150>
  801788:	1705c83a 	sub	r2,r2,fp
  80178c:	870b883a 	add	r5,r16,fp
  801790:	10800054 	ori	r2,r2,1
  801794:	28800115 	stw	r2,4(r5)
  801798:	80c00117 	ldw	r3,4(r16)
  80179c:	00802074 	movhi	r2,129
  8017a0:	10803604 	addi	r2,r2,216
  8017a4:	b009883a 	mov	r4,r22
  8017a8:	18c0004c 	andi	r3,r3,1
  8017ac:	e0c6b03a 	or	r3,fp,r3
  8017b0:	11400215 	stw	r5,8(r2)
  8017b4:	80c00115 	stw	r3,4(r16)
  8017b8:	0803a200 	call	803a20 <__malloc_unlock>
  8017bc:	84400204 	addi	r17,r16,8
  8017c0:	003f2006 	br	801444 <_realloc_r+0xd8>
  8017c4:	98a9883a 	add	r20,r19,r2
  8017c8:	2509883a 	add	r4,r4,r20
  8017cc:	e0800404 	addi	r2,fp,16
  8017d0:	d9000115 	stw	r4,4(sp)
  8017d4:	20bf7016 	blt	r4,r2,801598 <_realloc_r+0x22c>
  8017d8:	b8c00317 	ldw	r3,12(r23)
  8017dc:	b8800217 	ldw	r2,8(r23)
  8017e0:	99bfff04 	addi	r6,r19,-4
  8017e4:	01400904 	movi	r5,36
  8017e8:	18800215 	stw	r2,8(r3)
  8017ec:	10c00315 	stw	r3,12(r2)
  8017f0:	bc400204 	addi	r17,r23,8
  8017f4:	29804136 	bltu	r5,r6,8018fc <_realloc_r+0x590>
  8017f8:	008004c4 	movi	r2,19
  8017fc:	9009883a 	mov	r4,r18
  801800:	880f883a 	mov	r7,r17
  801804:	11800f2e 	bgeu	r2,r6,801844 <_realloc_r+0x4d8>
  801808:	90800017 	ldw	r2,0(r18)
  80180c:	b9c00404 	addi	r7,r23,16
  801810:	91000204 	addi	r4,r18,8
  801814:	b8800215 	stw	r2,8(r23)
  801818:	90c00117 	ldw	r3,4(r18)
  80181c:	008006c4 	movi	r2,27
  801820:	b8c00315 	stw	r3,12(r23)
  801824:	1180072e 	bgeu	r2,r6,801844 <_realloc_r+0x4d8>
  801828:	90c00217 	ldw	r3,8(r18)
  80182c:	b9c00604 	addi	r7,r23,24
  801830:	91000404 	addi	r4,r18,16
  801834:	b8c00415 	stw	r3,16(r23)
  801838:	90800317 	ldw	r2,12(r18)
  80183c:	b8800515 	stw	r2,20(r23)
  801840:	31404026 	beq	r6,r5,801944 <_realloc_r+0x5d8>
  801844:	20800017 	ldw	r2,0(r4)
  801848:	38800015 	stw	r2,0(r7)
  80184c:	20c00117 	ldw	r3,4(r4)
  801850:	38c00115 	stw	r3,4(r7)
  801854:	20800217 	ldw	r2,8(r4)
  801858:	38800215 	stw	r2,8(r7)
  80185c:	d8c00117 	ldw	r3,4(sp)
  801860:	bf0b883a 	add	r5,r23,fp
  801864:	b009883a 	mov	r4,r22
  801868:	1f05c83a 	sub	r2,r3,fp
  80186c:	10800054 	ori	r2,r2,1
  801870:	28800115 	stw	r2,4(r5)
  801874:	b8c00117 	ldw	r3,4(r23)
  801878:	00802074 	movhi	r2,129
  80187c:	10803604 	addi	r2,r2,216
  801880:	11400215 	stw	r5,8(r2)
  801884:	18c0004c 	andi	r3,r3,1
  801888:	e0c6b03a 	or	r3,fp,r3
  80188c:	b8c00115 	stw	r3,4(r23)
  801890:	0803a200 	call	803a20 <__malloc_unlock>
  801894:	003eeb06 	br	801444 <_realloc_r+0xd8>
  801898:	20800117 	ldw	r2,4(r4)
  80189c:	00ffff04 	movi	r3,-4
  8018a0:	800f883a 	mov	r7,r16
  8018a4:	10c4703a 	and	r2,r2,r3
  8018a8:	98a9883a 	add	r20,r19,r2
  8018ac:	84000204 	addi	r16,r16,8
  8018b0:	003ecf06 	br	8013f0 <_realloc_r+0x84>
  8018b4:	900b883a 	mov	r5,r18
  8018b8:	8009883a 	mov	r4,r16
  8018bc:	080128c0 	call	80128c <memmove>
  8018c0:	dd000017 	ldw	r20,0(sp)
  8018c4:	b80f883a 	mov	r7,r23
  8018c8:	003ec906 	br	8013f0 <_realloc_r+0x84>
  8018cc:	900b883a 	mov	r5,r18
  8018d0:	8009883a 	mov	r4,r16
  8018d4:	080128c0 	call	80128c <memmove>
  8018d8:	b80f883a 	mov	r7,r23
  8018dc:	003ec406 	br	8013f0 <_realloc_r+0x84>
  8018e0:	90c00417 	ldw	r3,16(r18)
  8018e4:	89400604 	addi	r5,r17,24
  8018e8:	91000604 	addi	r4,r18,24
  8018ec:	88c00415 	stw	r3,16(r17)
  8018f0:	90800517 	ldw	r2,20(r18)
  8018f4:	88800515 	stw	r2,20(r17)
  8018f8:	003f6806 	br	80169c <_realloc_r+0x330>
  8018fc:	900b883a 	mov	r5,r18
  801900:	8809883a 	mov	r4,r17
  801904:	080128c0 	call	80128c <memmove>
  801908:	003fd406 	br	80185c <_realloc_r+0x4f0>
  80190c:	90c00417 	ldw	r3,16(r18)
  801910:	91000604 	addi	r4,r18,24
  801914:	ba000804 	addi	r8,r23,32
  801918:	b8c00615 	stw	r3,24(r23)
  80191c:	90800517 	ldw	r2,20(r18)
  801920:	b8800715 	stw	r2,28(r23)
  801924:	003f1206 	br	801570 <_realloc_r+0x204>
  801928:	90c00417 	ldw	r3,16(r18)
  80192c:	91000604 	addi	r4,r18,24
  801930:	ba000804 	addi	r8,r23,32
  801934:	b8c00615 	stw	r3,24(r23)
  801938:	90800517 	ldw	r2,20(r18)
  80193c:	b8800715 	stw	r2,28(r23)
  801940:	003f3206 	br	80160c <_realloc_r+0x2a0>
  801944:	90c00417 	ldw	r3,16(r18)
  801948:	91000604 	addi	r4,r18,24
  80194c:	b9c00804 	addi	r7,r23,32
  801950:	b8c00615 	stw	r3,24(r23)
  801954:	90800517 	ldw	r2,20(r18)
  801958:	b8800715 	stw	r2,28(r23)
  80195c:	003fb906 	br	801844 <_realloc_r+0x4d8>

00801960 <_sbrk_r>:
  801960:	defffd04 	addi	sp,sp,-12
  801964:	dc000015 	stw	r16,0(sp)
  801968:	04002074 	movhi	r16,129
  80196c:	840ce704 	addi	r16,r16,13212
  801970:	dc400115 	stw	r17,4(sp)
  801974:	80000015 	stw	zero,0(r16)
  801978:	2023883a 	mov	r17,r4
  80197c:	2809883a 	mov	r4,r5
  801980:	dfc00215 	stw	ra,8(sp)
  801984:	08035d40 	call	8035d4 <sbrk>
  801988:	1007883a 	mov	r3,r2
  80198c:	00bfffc4 	movi	r2,-1
  801990:	18800626 	beq	r3,r2,8019ac <_sbrk_r+0x4c>
  801994:	1805883a 	mov	r2,r3
  801998:	dfc00217 	ldw	ra,8(sp)
  80199c:	dc400117 	ldw	r17,4(sp)
  8019a0:	dc000017 	ldw	r16,0(sp)
  8019a4:	dec00304 	addi	sp,sp,12
  8019a8:	f800283a 	ret
  8019ac:	80800017 	ldw	r2,0(r16)
  8019b0:	103ff826 	beq	r2,zero,801994 <_sbrk_r+0x34>
  8019b4:	88800015 	stw	r2,0(r17)
  8019b8:	1805883a 	mov	r2,r3
  8019bc:	dfc00217 	ldw	ra,8(sp)
  8019c0:	dc400117 	ldw	r17,4(sp)
  8019c4:	dc000017 	ldw	r16,0(sp)
  8019c8:	dec00304 	addi	sp,sp,12
  8019cc:	f800283a 	ret

008019d0 <__swsetup_r>:
  8019d0:	00802074 	movhi	r2,129
  8019d4:	1085e004 	addi	r2,r2,6016
  8019d8:	10c00017 	ldw	r3,0(r2)
  8019dc:	defffd04 	addi	sp,sp,-12
  8019e0:	dc400115 	stw	r17,4(sp)
  8019e4:	dc000015 	stw	r16,0(sp)
  8019e8:	dfc00215 	stw	ra,8(sp)
  8019ec:	2023883a 	mov	r17,r4
  8019f0:	2821883a 	mov	r16,r5
  8019f4:	18000226 	beq	r3,zero,801a00 <__swsetup_r+0x30>
  8019f8:	18800e17 	ldw	r2,56(r3)
  8019fc:	10001f26 	beq	r2,zero,801a7c <__swsetup_r+0xac>
  801a00:	8100030b 	ldhu	r4,12(r16)
  801a04:	2080020c 	andi	r2,r4,8
  801a08:	10002826 	beq	r2,zero,801aac <__swsetup_r+0xdc>
  801a0c:	81400417 	ldw	r5,16(r16)
  801a10:	28001d26 	beq	r5,zero,801a88 <__swsetup_r+0xb8>
  801a14:	2080004c 	andi	r2,r4,1
  801a18:	1005003a 	cmpeq	r2,r2,zero
  801a1c:	10000b26 	beq	r2,zero,801a4c <__swsetup_r+0x7c>
  801a20:	2080008c 	andi	r2,r4,2
  801a24:	10001226 	beq	r2,zero,801a70 <__swsetup_r+0xa0>
  801a28:	0005883a 	mov	r2,zero
  801a2c:	80800215 	stw	r2,8(r16)
  801a30:	28000b26 	beq	r5,zero,801a60 <__swsetup_r+0x90>
  801a34:	0005883a 	mov	r2,zero
  801a38:	dfc00217 	ldw	ra,8(sp)
  801a3c:	dc400117 	ldw	r17,4(sp)
  801a40:	dc000017 	ldw	r16,0(sp)
  801a44:	dec00304 	addi	sp,sp,12
  801a48:	f800283a 	ret
  801a4c:	80800517 	ldw	r2,20(r16)
  801a50:	80000215 	stw	zero,8(r16)
  801a54:	0085c83a 	sub	r2,zero,r2
  801a58:	80800615 	stw	r2,24(r16)
  801a5c:	283ff51e 	bne	r5,zero,801a34 <__swsetup_r+0x64>
  801a60:	2080200c 	andi	r2,r4,128
  801a64:	103ff326 	beq	r2,zero,801a34 <__swsetup_r+0x64>
  801a68:	00bfffc4 	movi	r2,-1
  801a6c:	003ff206 	br	801a38 <__swsetup_r+0x68>
  801a70:	80800517 	ldw	r2,20(r16)
  801a74:	80800215 	stw	r2,8(r16)
  801a78:	003fed06 	br	801a30 <__swsetup_r+0x60>
  801a7c:	1809883a 	mov	r4,r3
  801a80:	0801da40 	call	801da4 <__sinit>
  801a84:	003fde06 	br	801a00 <__swsetup_r+0x30>
  801a88:	20c0a00c 	andi	r3,r4,640
  801a8c:	00808004 	movi	r2,512
  801a90:	18bfe026 	beq	r3,r2,801a14 <__swsetup_r+0x44>
  801a94:	8809883a 	mov	r4,r17
  801a98:	800b883a 	mov	r5,r16
  801a9c:	08025bc0 	call	8025bc <__smakebuf_r>
  801aa0:	8100030b 	ldhu	r4,12(r16)
  801aa4:	81400417 	ldw	r5,16(r16)
  801aa8:	003fda06 	br	801a14 <__swsetup_r+0x44>
  801aac:	2080040c 	andi	r2,r4,16
  801ab0:	103fed26 	beq	r2,zero,801a68 <__swsetup_r+0x98>
  801ab4:	2080010c 	andi	r2,r4,4
  801ab8:	10001226 	beq	r2,zero,801b04 <__swsetup_r+0x134>
  801abc:	81400c17 	ldw	r5,48(r16)
  801ac0:	28000526 	beq	r5,zero,801ad8 <__swsetup_r+0x108>
  801ac4:	80801004 	addi	r2,r16,64
  801ac8:	28800226 	beq	r5,r2,801ad4 <__swsetup_r+0x104>
  801acc:	8809883a 	mov	r4,r17
  801ad0:	08021280 	call	802128 <_free_r>
  801ad4:	80000c15 	stw	zero,48(r16)
  801ad8:	8080030b 	ldhu	r2,12(r16)
  801adc:	81400417 	ldw	r5,16(r16)
  801ae0:	80000115 	stw	zero,4(r16)
  801ae4:	10bff6cc 	andi	r2,r2,65499
  801ae8:	8080030d 	sth	r2,12(r16)
  801aec:	81400015 	stw	r5,0(r16)
  801af0:	8080030b 	ldhu	r2,12(r16)
  801af4:	10800214 	ori	r2,r2,8
  801af8:	113fffcc 	andi	r4,r2,65535
  801afc:	8080030d 	sth	r2,12(r16)
  801b00:	003fc306 	br	801a10 <__swsetup_r+0x40>
  801b04:	81400417 	ldw	r5,16(r16)
  801b08:	003ff906 	br	801af0 <__swsetup_r+0x120>

00801b0c <_fflush_r>:
  801b0c:	defffb04 	addi	sp,sp,-20
  801b10:	dcc00315 	stw	r19,12(sp)
  801b14:	dc800215 	stw	r18,8(sp)
  801b18:	dfc00415 	stw	ra,16(sp)
  801b1c:	dc400115 	stw	r17,4(sp)
  801b20:	dc000015 	stw	r16,0(sp)
  801b24:	2027883a 	mov	r19,r4
  801b28:	2825883a 	mov	r18,r5
  801b2c:	20000226 	beq	r4,zero,801b38 <_fflush_r+0x2c>
  801b30:	20800e17 	ldw	r2,56(r4)
  801b34:	10005626 	beq	r2,zero,801c90 <_fflush_r+0x184>
  801b38:	9100030b 	ldhu	r4,12(r18)
  801b3c:	20ffffcc 	andi	r3,r4,65535
  801b40:	18e0001c 	xori	r3,r3,32768
  801b44:	18e00004 	addi	r3,r3,-32768
  801b48:	1880020c 	andi	r2,r3,8
  801b4c:	1000261e 	bne	r2,zero,801be8 <_fflush_r+0xdc>
  801b50:	90c00117 	ldw	r3,4(r18)
  801b54:	20820014 	ori	r2,r4,2048
  801b58:	9080030d 	sth	r2,12(r18)
  801b5c:	1009883a 	mov	r4,r2
  801b60:	00c0400e 	bge	zero,r3,801c64 <_fflush_r+0x158>
  801b64:	92000a17 	ldw	r8,40(r18)
  801b68:	40004026 	beq	r8,zero,801c6c <_fflush_r+0x160>
  801b6c:	2084000c 	andi	r2,r4,4096
  801b70:	10005326 	beq	r2,zero,801cc0 <_fflush_r+0x1b4>
  801b74:	94001417 	ldw	r16,80(r18)
  801b78:	9080030b 	ldhu	r2,12(r18)
  801b7c:	1080010c 	andi	r2,r2,4
  801b80:	1000481e 	bne	r2,zero,801ca4 <_fflush_r+0x198>
  801b84:	91400717 	ldw	r5,28(r18)
  801b88:	9809883a 	mov	r4,r19
  801b8c:	800d883a 	mov	r6,r16
  801b90:	000f883a 	mov	r7,zero
  801b94:	403ee83a 	callr	r8
  801b98:	8080261e 	bne	r16,r2,801c34 <_fflush_r+0x128>
  801b9c:	9080030b 	ldhu	r2,12(r18)
  801ba0:	91000417 	ldw	r4,16(r18)
  801ba4:	90000115 	stw	zero,4(r18)
  801ba8:	10bdffcc 	andi	r2,r2,63487
  801bac:	10ffffcc 	andi	r3,r2,65535
  801bb0:	18c4000c 	andi	r3,r3,4096
  801bb4:	9080030d 	sth	r2,12(r18)
  801bb8:	91000015 	stw	r4,0(r18)
  801bbc:	18002b26 	beq	r3,zero,801c6c <_fflush_r+0x160>
  801bc0:	0007883a 	mov	r3,zero
  801bc4:	1805883a 	mov	r2,r3
  801bc8:	94001415 	stw	r16,80(r18)
  801bcc:	dfc00417 	ldw	ra,16(sp)
  801bd0:	dcc00317 	ldw	r19,12(sp)
  801bd4:	dc800217 	ldw	r18,8(sp)
  801bd8:	dc400117 	ldw	r17,4(sp)
  801bdc:	dc000017 	ldw	r16,0(sp)
  801be0:	dec00504 	addi	sp,sp,20
  801be4:	f800283a 	ret
  801be8:	94400417 	ldw	r17,16(r18)
  801bec:	88001f26 	beq	r17,zero,801c6c <_fflush_r+0x160>
  801bf0:	90800017 	ldw	r2,0(r18)
  801bf4:	18c000cc 	andi	r3,r3,3
  801bf8:	94400015 	stw	r17,0(r18)
  801bfc:	1461c83a 	sub	r16,r2,r17
  801c00:	18002526 	beq	r3,zero,801c98 <_fflush_r+0x18c>
  801c04:	0005883a 	mov	r2,zero
  801c08:	90800215 	stw	r2,8(r18)
  801c0c:	0400170e 	bge	zero,r16,801c6c <_fflush_r+0x160>
  801c10:	90c00917 	ldw	r3,36(r18)
  801c14:	91400717 	ldw	r5,28(r18)
  801c18:	880d883a 	mov	r6,r17
  801c1c:	800f883a 	mov	r7,r16
  801c20:	9809883a 	mov	r4,r19
  801c24:	183ee83a 	callr	r3
  801c28:	88a3883a 	add	r17,r17,r2
  801c2c:	80a1c83a 	sub	r16,r16,r2
  801c30:	00bff616 	blt	zero,r2,801c0c <_fflush_r+0x100>
  801c34:	9080030b 	ldhu	r2,12(r18)
  801c38:	00ffffc4 	movi	r3,-1
  801c3c:	10801014 	ori	r2,r2,64
  801c40:	9080030d 	sth	r2,12(r18)
  801c44:	1805883a 	mov	r2,r3
  801c48:	dfc00417 	ldw	ra,16(sp)
  801c4c:	dcc00317 	ldw	r19,12(sp)
  801c50:	dc800217 	ldw	r18,8(sp)
  801c54:	dc400117 	ldw	r17,4(sp)
  801c58:	dc000017 	ldw	r16,0(sp)
  801c5c:	dec00504 	addi	sp,sp,20
  801c60:	f800283a 	ret
  801c64:	90800f17 	ldw	r2,60(r18)
  801c68:	00bfbe16 	blt	zero,r2,801b64 <_fflush_r+0x58>
  801c6c:	0007883a 	mov	r3,zero
  801c70:	1805883a 	mov	r2,r3
  801c74:	dfc00417 	ldw	ra,16(sp)
  801c78:	dcc00317 	ldw	r19,12(sp)
  801c7c:	dc800217 	ldw	r18,8(sp)
  801c80:	dc400117 	ldw	r17,4(sp)
  801c84:	dc000017 	ldw	r16,0(sp)
  801c88:	dec00504 	addi	sp,sp,20
  801c8c:	f800283a 	ret
  801c90:	0801da40 	call	801da4 <__sinit>
  801c94:	003fa806 	br	801b38 <_fflush_r+0x2c>
  801c98:	90800517 	ldw	r2,20(r18)
  801c9c:	90800215 	stw	r2,8(r18)
  801ca0:	003fda06 	br	801c0c <_fflush_r+0x100>
  801ca4:	90800117 	ldw	r2,4(r18)
  801ca8:	90c00c17 	ldw	r3,48(r18)
  801cac:	80a1c83a 	sub	r16,r16,r2
  801cb0:	183fb426 	beq	r3,zero,801b84 <_fflush_r+0x78>
  801cb4:	90800f17 	ldw	r2,60(r18)
  801cb8:	80a1c83a 	sub	r16,r16,r2
  801cbc:	003fb106 	br	801b84 <_fflush_r+0x78>
  801cc0:	91400717 	ldw	r5,28(r18)
  801cc4:	9809883a 	mov	r4,r19
  801cc8:	000d883a 	mov	r6,zero
  801ccc:	01c00044 	movi	r7,1
  801cd0:	403ee83a 	callr	r8
  801cd4:	1021883a 	mov	r16,r2
  801cd8:	00bfffc4 	movi	r2,-1
  801cdc:	80800226 	beq	r16,r2,801ce8 <_fflush_r+0x1dc>
  801ce0:	92000a17 	ldw	r8,40(r18)
  801ce4:	003fa406 	br	801b78 <_fflush_r+0x6c>
  801ce8:	98c00017 	ldw	r3,0(r19)
  801cec:	00800744 	movi	r2,29
  801cf0:	18bfde26 	beq	r3,r2,801c6c <_fflush_r+0x160>
  801cf4:	9080030b 	ldhu	r2,12(r18)
  801cf8:	8007883a 	mov	r3,r16
  801cfc:	10801014 	ori	r2,r2,64
  801d00:	9080030d 	sth	r2,12(r18)
  801d04:	003fcf06 	br	801c44 <_fflush_r+0x138>

00801d08 <fflush>:
  801d08:	01402034 	movhi	r5,128
  801d0c:	2946c304 	addi	r5,r5,6924
  801d10:	2007883a 	mov	r3,r4
  801d14:	20000526 	beq	r4,zero,801d2c <fflush+0x24>
  801d18:	00802074 	movhi	r2,129
  801d1c:	1085e004 	addi	r2,r2,6016
  801d20:	11000017 	ldw	r4,0(r2)
  801d24:	180b883a 	mov	r5,r3
  801d28:	0801b0c1 	jmpi	801b0c <_fflush_r>
  801d2c:	00802074 	movhi	r2,129
  801d30:	1085e104 	addi	r2,r2,6020
  801d34:	11000017 	ldw	r4,0(r2)
  801d38:	080243c1 	jmpi	80243c <_fwalk_reent>

00801d3c <std>:
  801d3c:	00802034 	movhi	r2,128
  801d40:	1089fa04 	addi	r2,r2,10216
  801d44:	20800b15 	stw	r2,44(r4)
  801d48:	00802034 	movhi	r2,128
  801d4c:	108a3504 	addi	r2,r2,10452
  801d50:	20800815 	stw	r2,32(r4)
  801d54:	00c02034 	movhi	r3,128
  801d58:	18ca1604 	addi	r3,r3,10328
  801d5c:	00802034 	movhi	r2,128
  801d60:	1089fc04 	addi	r2,r2,10224
  801d64:	2140030d 	sth	r5,12(r4)
  801d68:	2180038d 	sth	r6,14(r4)
  801d6c:	20c00915 	stw	r3,36(r4)
  801d70:	20800a15 	stw	r2,40(r4)
  801d74:	20000015 	stw	zero,0(r4)
  801d78:	20000115 	stw	zero,4(r4)
  801d7c:	20000215 	stw	zero,8(r4)
  801d80:	20000415 	stw	zero,16(r4)
  801d84:	20000515 	stw	zero,20(r4)
  801d88:	20000615 	stw	zero,24(r4)
  801d8c:	21000715 	stw	r4,28(r4)
  801d90:	f800283a 	ret

00801d94 <__sfp_lock_acquire>:
  801d94:	f800283a 	ret

00801d98 <__sfp_lock_release>:
  801d98:	f800283a 	ret

00801d9c <__sinit_lock_acquire>:
  801d9c:	f800283a 	ret

00801da0 <__sinit_lock_release>:
  801da0:	f800283a 	ret

00801da4 <__sinit>:
  801da4:	20800e17 	ldw	r2,56(r4)
  801da8:	defffd04 	addi	sp,sp,-12
  801dac:	dc400115 	stw	r17,4(sp)
  801db0:	dc000015 	stw	r16,0(sp)
  801db4:	dfc00215 	stw	ra,8(sp)
  801db8:	04400044 	movi	r17,1
  801dbc:	01400104 	movi	r5,4
  801dc0:	000d883a 	mov	r6,zero
  801dc4:	2021883a 	mov	r16,r4
  801dc8:	2200bb04 	addi	r8,r4,748
  801dcc:	200f883a 	mov	r7,r4
  801dd0:	10000526 	beq	r2,zero,801de8 <__sinit+0x44>
  801dd4:	dfc00217 	ldw	ra,8(sp)
  801dd8:	dc400117 	ldw	r17,4(sp)
  801ddc:	dc000017 	ldw	r16,0(sp)
  801de0:	dec00304 	addi	sp,sp,12
  801de4:	f800283a 	ret
  801de8:	21000117 	ldw	r4,4(r4)
  801dec:	00802034 	movhi	r2,128
  801df0:	1087a204 	addi	r2,r2,7816
  801df4:	00c000c4 	movi	r3,3
  801df8:	80800f15 	stw	r2,60(r16)
  801dfc:	80c0b915 	stw	r3,740(r16)
  801e00:	8200ba15 	stw	r8,744(r16)
  801e04:	84400e15 	stw	r17,56(r16)
  801e08:	8000b815 	stw	zero,736(r16)
  801e0c:	0801d3c0 	call	801d3c <std>
  801e10:	81000217 	ldw	r4,8(r16)
  801e14:	880d883a 	mov	r6,r17
  801e18:	800f883a 	mov	r7,r16
  801e1c:	01400284 	movi	r5,10
  801e20:	0801d3c0 	call	801d3c <std>
  801e24:	81000317 	ldw	r4,12(r16)
  801e28:	800f883a 	mov	r7,r16
  801e2c:	01400484 	movi	r5,18
  801e30:	01800084 	movi	r6,2
  801e34:	dfc00217 	ldw	ra,8(sp)
  801e38:	dc400117 	ldw	r17,4(sp)
  801e3c:	dc000017 	ldw	r16,0(sp)
  801e40:	dec00304 	addi	sp,sp,12
  801e44:	0801d3c1 	jmpi	801d3c <std>

00801e48 <__fp_lock>:
  801e48:	0005883a 	mov	r2,zero
  801e4c:	f800283a 	ret

00801e50 <__fp_unlock>:
  801e50:	0005883a 	mov	r2,zero
  801e54:	f800283a 	ret

00801e58 <__fp_unlock_all>:
  801e58:	00802074 	movhi	r2,129
  801e5c:	1085e004 	addi	r2,r2,6016
  801e60:	11000017 	ldw	r4,0(r2)
  801e64:	01402034 	movhi	r5,128
  801e68:	29479404 	addi	r5,r5,7760
  801e6c:	08025041 	jmpi	802504 <_fwalk>

00801e70 <__fp_lock_all>:
  801e70:	00802074 	movhi	r2,129
  801e74:	1085e004 	addi	r2,r2,6016
  801e78:	11000017 	ldw	r4,0(r2)
  801e7c:	01402034 	movhi	r5,128
  801e80:	29479204 	addi	r5,r5,7752
  801e84:	08025041 	jmpi	802504 <_fwalk>

00801e88 <_cleanup_r>:
  801e88:	01402034 	movhi	r5,128
  801e8c:	294acb04 	addi	r5,r5,11052
  801e90:	08025041 	jmpi	802504 <_fwalk>

00801e94 <_cleanup>:
  801e94:	00802074 	movhi	r2,129
  801e98:	1085e104 	addi	r2,r2,6020
  801e9c:	11000017 	ldw	r4,0(r2)
  801ea0:	0801e881 	jmpi	801e88 <_cleanup_r>

00801ea4 <__sfmoreglue>:
  801ea4:	defffc04 	addi	sp,sp,-16
  801ea8:	dc400115 	stw	r17,4(sp)
  801eac:	2c401724 	muli	r17,r5,92
  801eb0:	dc800215 	stw	r18,8(sp)
  801eb4:	2825883a 	mov	r18,r5
  801eb8:	89400304 	addi	r5,r17,12
  801ebc:	dc000015 	stw	r16,0(sp)
  801ec0:	dfc00315 	stw	ra,12(sp)
  801ec4:	08009c80 	call	8009c8 <_malloc_r>
  801ec8:	0021883a 	mov	r16,zero
  801ecc:	880d883a 	mov	r6,r17
  801ed0:	000b883a 	mov	r5,zero
  801ed4:	10000626 	beq	r2,zero,801ef0 <__sfmoreglue+0x4c>
  801ed8:	11000304 	addi	r4,r2,12
  801edc:	14800115 	stw	r18,4(r2)
  801ee0:	10000015 	stw	zero,0(r2)
  801ee4:	11000215 	stw	r4,8(r2)
  801ee8:	1021883a 	mov	r16,r2
  801eec:	08027500 	call	802750 <memset>
  801ef0:	8005883a 	mov	r2,r16
  801ef4:	dfc00317 	ldw	ra,12(sp)
  801ef8:	dc800217 	ldw	r18,8(sp)
  801efc:	dc400117 	ldw	r17,4(sp)
  801f00:	dc000017 	ldw	r16,0(sp)
  801f04:	dec00404 	addi	sp,sp,16
  801f08:	f800283a 	ret

00801f0c <__sfp>:
  801f0c:	defffd04 	addi	sp,sp,-12
  801f10:	00802074 	movhi	r2,129
  801f14:	1085e104 	addi	r2,r2,6020
  801f18:	dc000015 	stw	r16,0(sp)
  801f1c:	14000017 	ldw	r16,0(r2)
  801f20:	dc400115 	stw	r17,4(sp)
  801f24:	dfc00215 	stw	ra,8(sp)
  801f28:	80800e17 	ldw	r2,56(r16)
  801f2c:	2023883a 	mov	r17,r4
  801f30:	10002626 	beq	r2,zero,801fcc <__sfp+0xc0>
  801f34:	8400b804 	addi	r16,r16,736
  801f38:	80800117 	ldw	r2,4(r16)
  801f3c:	81000217 	ldw	r4,8(r16)
  801f40:	10ffffc4 	addi	r3,r2,-1
  801f44:	18000916 	blt	r3,zero,801f6c <__sfp+0x60>
  801f48:	2080030f 	ldh	r2,12(r4)
  801f4c:	10000b26 	beq	r2,zero,801f7c <__sfp+0x70>
  801f50:	017fffc4 	movi	r5,-1
  801f54:	00000206 	br	801f60 <__sfp+0x54>
  801f58:	2080030f 	ldh	r2,12(r4)
  801f5c:	10000726 	beq	r2,zero,801f7c <__sfp+0x70>
  801f60:	18ffffc4 	addi	r3,r3,-1
  801f64:	21001704 	addi	r4,r4,92
  801f68:	197ffb1e 	bne	r3,r5,801f58 <__sfp+0x4c>
  801f6c:	80800017 	ldw	r2,0(r16)
  801f70:	10001926 	beq	r2,zero,801fd8 <__sfp+0xcc>
  801f74:	1021883a 	mov	r16,r2
  801f78:	003fef06 	br	801f38 <__sfp+0x2c>
  801f7c:	00bfffc4 	movi	r2,-1
  801f80:	00c00044 	movi	r3,1
  801f84:	2080038d 	sth	r2,14(r4)
  801f88:	20c0030d 	sth	r3,12(r4)
  801f8c:	20000015 	stw	zero,0(r4)
  801f90:	20000215 	stw	zero,8(r4)
  801f94:	20000115 	stw	zero,4(r4)
  801f98:	20000415 	stw	zero,16(r4)
  801f9c:	20000515 	stw	zero,20(r4)
  801fa0:	20000615 	stw	zero,24(r4)
  801fa4:	20000c15 	stw	zero,48(r4)
  801fa8:	20000d15 	stw	zero,52(r4)
  801fac:	20001115 	stw	zero,68(r4)
  801fb0:	20001215 	stw	zero,72(r4)
  801fb4:	2005883a 	mov	r2,r4
  801fb8:	dfc00217 	ldw	ra,8(sp)
  801fbc:	dc400117 	ldw	r17,4(sp)
  801fc0:	dc000017 	ldw	r16,0(sp)
  801fc4:	dec00304 	addi	sp,sp,12
  801fc8:	f800283a 	ret
  801fcc:	8009883a 	mov	r4,r16
  801fd0:	0801da40 	call	801da4 <__sinit>
  801fd4:	003fd706 	br	801f34 <__sfp+0x28>
  801fd8:	8809883a 	mov	r4,r17
  801fdc:	01400104 	movi	r5,4
  801fe0:	0801ea40 	call	801ea4 <__sfmoreglue>
  801fe4:	80800015 	stw	r2,0(r16)
  801fe8:	103fe21e 	bne	r2,zero,801f74 <__sfp+0x68>
  801fec:	00800304 	movi	r2,12
  801ff0:	0009883a 	mov	r4,zero
  801ff4:	88800015 	stw	r2,0(r17)
  801ff8:	003fee06 	br	801fb4 <__sfp+0xa8>

00801ffc <_malloc_trim_r>:
  801ffc:	defffb04 	addi	sp,sp,-20
  802000:	dcc00315 	stw	r19,12(sp)
  802004:	04c02074 	movhi	r19,129
  802008:	9cc03604 	addi	r19,r19,216
  80200c:	dc800215 	stw	r18,8(sp)
  802010:	dc400115 	stw	r17,4(sp)
  802014:	dc000015 	stw	r16,0(sp)
  802018:	2823883a 	mov	r17,r5
  80201c:	2025883a 	mov	r18,r4
  802020:	dfc00415 	stw	ra,16(sp)
  802024:	08039180 	call	803918 <__malloc_lock>
  802028:	98800217 	ldw	r2,8(r19)
  80202c:	9009883a 	mov	r4,r18
  802030:	000b883a 	mov	r5,zero
  802034:	10c00117 	ldw	r3,4(r2)
  802038:	00bfff04 	movi	r2,-4
  80203c:	18a0703a 	and	r16,r3,r2
  802040:	8463c83a 	sub	r17,r16,r17
  802044:	8c43fbc4 	addi	r17,r17,4079
  802048:	8822d33a 	srli	r17,r17,12
  80204c:	0083ffc4 	movi	r2,4095
  802050:	8c7fffc4 	addi	r17,r17,-1
  802054:	8822933a 	slli	r17,r17,12
  802058:	1440060e 	bge	r2,r17,802074 <_malloc_trim_r+0x78>
  80205c:	08019600 	call	801960 <_sbrk_r>
  802060:	98c00217 	ldw	r3,8(r19)
  802064:	9009883a 	mov	r4,r18
  802068:	044bc83a 	sub	r5,zero,r17
  80206c:	80c7883a 	add	r3,r16,r3
  802070:	10c00926 	beq	r2,r3,802098 <_malloc_trim_r+0x9c>
  802074:	0803a200 	call	803a20 <__malloc_unlock>
  802078:	0005883a 	mov	r2,zero
  80207c:	dfc00417 	ldw	ra,16(sp)
  802080:	dcc00317 	ldw	r19,12(sp)
  802084:	dc800217 	ldw	r18,8(sp)
  802088:	dc400117 	ldw	r17,4(sp)
  80208c:	dc000017 	ldw	r16,0(sp)
  802090:	dec00504 	addi	sp,sp,20
  802094:	f800283a 	ret
  802098:	9009883a 	mov	r4,r18
  80209c:	08019600 	call	801960 <_sbrk_r>
  8020a0:	844dc83a 	sub	r6,r16,r17
  8020a4:	00ffffc4 	movi	r3,-1
  8020a8:	9009883a 	mov	r4,r18
  8020ac:	000b883a 	mov	r5,zero
  8020b0:	01c02074 	movhi	r7,129
  8020b4:	39cd0704 	addi	r7,r7,13340
  8020b8:	31800054 	ori	r6,r6,1
  8020bc:	10c00926 	beq	r2,r3,8020e4 <_malloc_trim_r+0xe8>
  8020c0:	38800017 	ldw	r2,0(r7)
  8020c4:	98c00217 	ldw	r3,8(r19)
  8020c8:	9009883a 	mov	r4,r18
  8020cc:	1445c83a 	sub	r2,r2,r17
  8020d0:	38800015 	stw	r2,0(r7)
  8020d4:	19800115 	stw	r6,4(r3)
  8020d8:	0803a200 	call	803a20 <__malloc_unlock>
  8020dc:	00800044 	movi	r2,1
  8020e0:	003fe606 	br	80207c <_malloc_trim_r+0x80>
  8020e4:	08019600 	call	801960 <_sbrk_r>
  8020e8:	99800217 	ldw	r6,8(r19)
  8020ec:	100f883a 	mov	r7,r2
  8020f0:	9009883a 	mov	r4,r18
  8020f4:	1187c83a 	sub	r3,r2,r6
  8020f8:	008003c4 	movi	r2,15
  8020fc:	19400054 	ori	r5,r3,1
  802100:	10ffdc0e 	bge	r2,r3,802074 <_malloc_trim_r+0x78>
  802104:	00802074 	movhi	r2,129
  802108:	1085e304 	addi	r2,r2,6028
  80210c:	10c00017 	ldw	r3,0(r2)
  802110:	00802074 	movhi	r2,129
  802114:	108d0704 	addi	r2,r2,13340
  802118:	31400115 	stw	r5,4(r6)
  80211c:	38c7c83a 	sub	r3,r7,r3
  802120:	10c00015 	stw	r3,0(r2)
  802124:	003fd306 	br	802074 <_malloc_trim_r+0x78>

00802128 <_free_r>:
  802128:	defffd04 	addi	sp,sp,-12
  80212c:	dc400115 	stw	r17,4(sp)
  802130:	dc000015 	stw	r16,0(sp)
  802134:	dfc00215 	stw	ra,8(sp)
  802138:	2821883a 	mov	r16,r5
  80213c:	2023883a 	mov	r17,r4
  802140:	28005a26 	beq	r5,zero,8022ac <_free_r+0x184>
  802144:	08039180 	call	803918 <__malloc_lock>
  802148:	823ffe04 	addi	r8,r16,-8
  80214c:	41400117 	ldw	r5,4(r8)
  802150:	00bfff84 	movi	r2,-2
  802154:	02802074 	movhi	r10,129
  802158:	52803604 	addi	r10,r10,216
  80215c:	288e703a 	and	r7,r5,r2
  802160:	41cd883a 	add	r6,r8,r7
  802164:	30c00117 	ldw	r3,4(r6)
  802168:	51000217 	ldw	r4,8(r10)
  80216c:	00bfff04 	movi	r2,-4
  802170:	1892703a 	and	r9,r3,r2
  802174:	5017883a 	mov	r11,r10
  802178:	31006726 	beq	r6,r4,802318 <_free_r+0x1f0>
  80217c:	2880004c 	andi	r2,r5,1
  802180:	1005003a 	cmpeq	r2,r2,zero
  802184:	32400115 	stw	r9,4(r6)
  802188:	10001a1e 	bne	r2,zero,8021f4 <_free_r+0xcc>
  80218c:	000b883a 	mov	r5,zero
  802190:	3247883a 	add	r3,r6,r9
  802194:	18800117 	ldw	r2,4(r3)
  802198:	1080004c 	andi	r2,r2,1
  80219c:	1000231e 	bne	r2,zero,80222c <_free_r+0x104>
  8021a0:	280ac03a 	cmpne	r5,r5,zero
  8021a4:	3a4f883a 	add	r7,r7,r9
  8021a8:	2800451e 	bne	r5,zero,8022c0 <_free_r+0x198>
  8021ac:	31000217 	ldw	r4,8(r6)
  8021b0:	00802074 	movhi	r2,129
  8021b4:	10803804 	addi	r2,r2,224
  8021b8:	20807b26 	beq	r4,r2,8023a8 <_free_r+0x280>
  8021bc:	30800317 	ldw	r2,12(r6)
  8021c0:	3a07883a 	add	r3,r7,r8
  8021c4:	19c00015 	stw	r7,0(r3)
  8021c8:	11000215 	stw	r4,8(r2)
  8021cc:	20800315 	stw	r2,12(r4)
  8021d0:	38800054 	ori	r2,r7,1
  8021d4:	40800115 	stw	r2,4(r8)
  8021d8:	28001a26 	beq	r5,zero,802244 <_free_r+0x11c>
  8021dc:	8809883a 	mov	r4,r17
  8021e0:	dfc00217 	ldw	ra,8(sp)
  8021e4:	dc400117 	ldw	r17,4(sp)
  8021e8:	dc000017 	ldw	r16,0(sp)
  8021ec:	dec00304 	addi	sp,sp,12
  8021f0:	0803a201 	jmpi	803a20 <__malloc_unlock>
  8021f4:	80bffe17 	ldw	r2,-8(r16)
  8021f8:	50c00204 	addi	r3,r10,8
  8021fc:	4091c83a 	sub	r8,r8,r2
  802200:	41000217 	ldw	r4,8(r8)
  802204:	388f883a 	add	r7,r7,r2
  802208:	20c06126 	beq	r4,r3,802390 <_free_r+0x268>
  80220c:	40800317 	ldw	r2,12(r8)
  802210:	3247883a 	add	r3,r6,r9
  802214:	000b883a 	mov	r5,zero
  802218:	11000215 	stw	r4,8(r2)
  80221c:	20800315 	stw	r2,12(r4)
  802220:	18800117 	ldw	r2,4(r3)
  802224:	1080004c 	andi	r2,r2,1
  802228:	103fdd26 	beq	r2,zero,8021a0 <_free_r+0x78>
  80222c:	38800054 	ori	r2,r7,1
  802230:	3a07883a 	add	r3,r7,r8
  802234:	280ac03a 	cmpne	r5,r5,zero
  802238:	40800115 	stw	r2,4(r8)
  80223c:	19c00015 	stw	r7,0(r3)
  802240:	283fe61e 	bne	r5,zero,8021dc <_free_r+0xb4>
  802244:	00807fc4 	movi	r2,511
  802248:	11c01f2e 	bgeu	r2,r7,8022c8 <_free_r+0x1a0>
  80224c:	3806d27a 	srli	r3,r7,9
  802250:	1800481e 	bne	r3,zero,802374 <_free_r+0x24c>
  802254:	3804d0fa 	srli	r2,r7,3
  802258:	100690fa 	slli	r3,r2,3
  80225c:	1acd883a 	add	r6,r3,r11
  802260:	31400217 	ldw	r5,8(r6)
  802264:	31405926 	beq	r6,r5,8023cc <_free_r+0x2a4>
  802268:	28800117 	ldw	r2,4(r5)
  80226c:	00ffff04 	movi	r3,-4
  802270:	10c4703a 	and	r2,r2,r3
  802274:	3880022e 	bgeu	r7,r2,802280 <_free_r+0x158>
  802278:	29400217 	ldw	r5,8(r5)
  80227c:	317ffa1e 	bne	r6,r5,802268 <_free_r+0x140>
  802280:	29800317 	ldw	r6,12(r5)
  802284:	41800315 	stw	r6,12(r8)
  802288:	41400215 	stw	r5,8(r8)
  80228c:	8809883a 	mov	r4,r17
  802290:	2a000315 	stw	r8,12(r5)
  802294:	32000215 	stw	r8,8(r6)
  802298:	dfc00217 	ldw	ra,8(sp)
  80229c:	dc400117 	ldw	r17,4(sp)
  8022a0:	dc000017 	ldw	r16,0(sp)
  8022a4:	dec00304 	addi	sp,sp,12
  8022a8:	0803a201 	jmpi	803a20 <__malloc_unlock>
  8022ac:	dfc00217 	ldw	ra,8(sp)
  8022b0:	dc400117 	ldw	r17,4(sp)
  8022b4:	dc000017 	ldw	r16,0(sp)
  8022b8:	dec00304 	addi	sp,sp,12
  8022bc:	f800283a 	ret
  8022c0:	31000217 	ldw	r4,8(r6)
  8022c4:	003fbd06 	br	8021bc <_free_r+0x94>
  8022c8:	3806d0fa 	srli	r3,r7,3
  8022cc:	00800044 	movi	r2,1
  8022d0:	51400117 	ldw	r5,4(r10)
  8022d4:	180890fa 	slli	r4,r3,3
  8022d8:	1807d0ba 	srai	r3,r3,2
  8022dc:	22c9883a 	add	r4,r4,r11
  8022e0:	21800217 	ldw	r6,8(r4)
  8022e4:	10c4983a 	sll	r2,r2,r3
  8022e8:	41000315 	stw	r4,12(r8)
  8022ec:	41800215 	stw	r6,8(r8)
  8022f0:	288ab03a 	or	r5,r5,r2
  8022f4:	22000215 	stw	r8,8(r4)
  8022f8:	8809883a 	mov	r4,r17
  8022fc:	51400115 	stw	r5,4(r10)
  802300:	32000315 	stw	r8,12(r6)
  802304:	dfc00217 	ldw	ra,8(sp)
  802308:	dc400117 	ldw	r17,4(sp)
  80230c:	dc000017 	ldw	r16,0(sp)
  802310:	dec00304 	addi	sp,sp,12
  802314:	0803a201 	jmpi	803a20 <__malloc_unlock>
  802318:	2880004c 	andi	r2,r5,1
  80231c:	3a4d883a 	add	r6,r7,r9
  802320:	1000071e 	bne	r2,zero,802340 <_free_r+0x218>
  802324:	80bffe17 	ldw	r2,-8(r16)
  802328:	4091c83a 	sub	r8,r8,r2
  80232c:	41000317 	ldw	r4,12(r8)
  802330:	40c00217 	ldw	r3,8(r8)
  802334:	308d883a 	add	r6,r6,r2
  802338:	20c00215 	stw	r3,8(r4)
  80233c:	19000315 	stw	r4,12(r3)
  802340:	00802074 	movhi	r2,129
  802344:	1085e204 	addi	r2,r2,6024
  802348:	11000017 	ldw	r4,0(r2)
  80234c:	30c00054 	ori	r3,r6,1
  802350:	52000215 	stw	r8,8(r10)
  802354:	40c00115 	stw	r3,4(r8)
  802358:	313fa036 	bltu	r6,r4,8021dc <_free_r+0xb4>
  80235c:	00802074 	movhi	r2,129
  802360:	108ce404 	addi	r2,r2,13200
  802364:	11400017 	ldw	r5,0(r2)
  802368:	8809883a 	mov	r4,r17
  80236c:	0801ffc0 	call	801ffc <_malloc_trim_r>
  802370:	003f9a06 	br	8021dc <_free_r+0xb4>
  802374:	00800104 	movi	r2,4
  802378:	10c0072e 	bgeu	r2,r3,802398 <_free_r+0x270>
  80237c:	00800504 	movi	r2,20
  802380:	10c01936 	bltu	r2,r3,8023e8 <_free_r+0x2c0>
  802384:	188016c4 	addi	r2,r3,91
  802388:	100690fa 	slli	r3,r2,3
  80238c:	003fb306 	br	80225c <_free_r+0x134>
  802390:	01400044 	movi	r5,1
  802394:	003f7e06 	br	802190 <_free_r+0x68>
  802398:	3804d1ba 	srli	r2,r7,6
  80239c:	10800e04 	addi	r2,r2,56
  8023a0:	100690fa 	slli	r3,r2,3
  8023a4:	003fad06 	br	80225c <_free_r+0x134>
  8023a8:	22000315 	stw	r8,12(r4)
  8023ac:	22000215 	stw	r8,8(r4)
  8023b0:	3a05883a 	add	r2,r7,r8
  8023b4:	38c00054 	ori	r3,r7,1
  8023b8:	11c00015 	stw	r7,0(r2)
  8023bc:	41000215 	stw	r4,8(r8)
  8023c0:	40c00115 	stw	r3,4(r8)
  8023c4:	41000315 	stw	r4,12(r8)
  8023c8:	003f8406 	br	8021dc <_free_r+0xb4>
  8023cc:	1005d0ba 	srai	r2,r2,2
  8023d0:	00c00044 	movi	r3,1
  8023d4:	51000117 	ldw	r4,4(r10)
  8023d8:	1886983a 	sll	r3,r3,r2
  8023dc:	20c8b03a 	or	r4,r4,r3
  8023e0:	51000115 	stw	r4,4(r10)
  8023e4:	003fa706 	br	802284 <_free_r+0x15c>
  8023e8:	00801504 	movi	r2,84
  8023ec:	10c00436 	bltu	r2,r3,802400 <_free_r+0x2d8>
  8023f0:	3804d33a 	srli	r2,r7,12
  8023f4:	10801b84 	addi	r2,r2,110
  8023f8:	100690fa 	slli	r3,r2,3
  8023fc:	003f9706 	br	80225c <_free_r+0x134>
  802400:	00805504 	movi	r2,340
  802404:	10c00436 	bltu	r2,r3,802418 <_free_r+0x2f0>
  802408:	3804d3fa 	srli	r2,r7,15
  80240c:	10801dc4 	addi	r2,r2,119
  802410:	100690fa 	slli	r3,r2,3
  802414:	003f9106 	br	80225c <_free_r+0x134>
  802418:	00815504 	movi	r2,1364
  80241c:	10c0032e 	bgeu	r2,r3,80242c <_free_r+0x304>
  802420:	00801f84 	movi	r2,126
  802424:	00c0fc04 	movi	r3,1008
  802428:	003f8c06 	br	80225c <_free_r+0x134>
  80242c:	3804d4ba 	srli	r2,r7,18
  802430:	10801f04 	addi	r2,r2,124
  802434:	100690fa 	slli	r3,r2,3
  802438:	003f8806 	br	80225c <_free_r+0x134>

0080243c <_fwalk_reent>:
  80243c:	defff704 	addi	sp,sp,-36
  802440:	dcc00315 	stw	r19,12(sp)
  802444:	24c0b804 	addi	r19,r4,736
  802448:	dd800615 	stw	r22,24(sp)
  80244c:	dd400515 	stw	r21,20(sp)
  802450:	dfc00815 	stw	ra,32(sp)
  802454:	ddc00715 	stw	r23,28(sp)
  802458:	dd000415 	stw	r20,16(sp)
  80245c:	dc800215 	stw	r18,8(sp)
  802460:	dc400115 	stw	r17,4(sp)
  802464:	dc000015 	stw	r16,0(sp)
  802468:	202b883a 	mov	r21,r4
  80246c:	282d883a 	mov	r22,r5
  802470:	0801d940 	call	801d94 <__sfp_lock_acquire>
  802474:	98002126 	beq	r19,zero,8024fc <_fwalk_reent+0xc0>
  802478:	002f883a 	mov	r23,zero
  80247c:	9c800117 	ldw	r18,4(r19)
  802480:	9c000217 	ldw	r16,8(r19)
  802484:	90bfffc4 	addi	r2,r18,-1
  802488:	10000d16 	blt	r2,zero,8024c0 <_fwalk_reent+0x84>
  80248c:	0023883a 	mov	r17,zero
  802490:	053fffc4 	movi	r20,-1
  802494:	8080030f 	ldh	r2,12(r16)
  802498:	8c400044 	addi	r17,r17,1
  80249c:	10000626 	beq	r2,zero,8024b8 <_fwalk_reent+0x7c>
  8024a0:	8080038f 	ldh	r2,14(r16)
  8024a4:	800b883a 	mov	r5,r16
  8024a8:	a809883a 	mov	r4,r21
  8024ac:	15000226 	beq	r2,r20,8024b8 <_fwalk_reent+0x7c>
  8024b0:	b03ee83a 	callr	r22
  8024b4:	b8aeb03a 	or	r23,r23,r2
  8024b8:	84001704 	addi	r16,r16,92
  8024bc:	947ff51e 	bne	r18,r17,802494 <_fwalk_reent+0x58>
  8024c0:	9cc00017 	ldw	r19,0(r19)
  8024c4:	983fed1e 	bne	r19,zero,80247c <_fwalk_reent+0x40>
  8024c8:	0801d980 	call	801d98 <__sfp_lock_release>
  8024cc:	b805883a 	mov	r2,r23
  8024d0:	dfc00817 	ldw	ra,32(sp)
  8024d4:	ddc00717 	ldw	r23,28(sp)
  8024d8:	dd800617 	ldw	r22,24(sp)
  8024dc:	dd400517 	ldw	r21,20(sp)
  8024e0:	dd000417 	ldw	r20,16(sp)
  8024e4:	dcc00317 	ldw	r19,12(sp)
  8024e8:	dc800217 	ldw	r18,8(sp)
  8024ec:	dc400117 	ldw	r17,4(sp)
  8024f0:	dc000017 	ldw	r16,0(sp)
  8024f4:	dec00904 	addi	sp,sp,36
  8024f8:	f800283a 	ret
  8024fc:	002f883a 	mov	r23,zero
  802500:	003ff106 	br	8024c8 <_fwalk_reent+0x8c>

00802504 <_fwalk>:
  802504:	defff804 	addi	sp,sp,-32
  802508:	dcc00315 	stw	r19,12(sp)
  80250c:	24c0b804 	addi	r19,r4,736
  802510:	dd400515 	stw	r21,20(sp)
  802514:	dfc00715 	stw	ra,28(sp)
  802518:	dd800615 	stw	r22,24(sp)
  80251c:	dd000415 	stw	r20,16(sp)
  802520:	dc800215 	stw	r18,8(sp)
  802524:	dc400115 	stw	r17,4(sp)
  802528:	dc000015 	stw	r16,0(sp)
  80252c:	282b883a 	mov	r21,r5
  802530:	0801d940 	call	801d94 <__sfp_lock_acquire>
  802534:	98001f26 	beq	r19,zero,8025b4 <_fwalk+0xb0>
  802538:	002d883a 	mov	r22,zero
  80253c:	9c800117 	ldw	r18,4(r19)
  802540:	9c000217 	ldw	r16,8(r19)
  802544:	90bfffc4 	addi	r2,r18,-1
  802548:	10000c16 	blt	r2,zero,80257c <_fwalk+0x78>
  80254c:	0023883a 	mov	r17,zero
  802550:	053fffc4 	movi	r20,-1
  802554:	8080030f 	ldh	r2,12(r16)
  802558:	8c400044 	addi	r17,r17,1
  80255c:	10000526 	beq	r2,zero,802574 <_fwalk+0x70>
  802560:	8080038f 	ldh	r2,14(r16)
  802564:	8009883a 	mov	r4,r16
  802568:	15000226 	beq	r2,r20,802574 <_fwalk+0x70>
  80256c:	a83ee83a 	callr	r21
  802570:	b0acb03a 	or	r22,r22,r2
  802574:	84001704 	addi	r16,r16,92
  802578:	947ff61e 	bne	r18,r17,802554 <_fwalk+0x50>
  80257c:	9cc00017 	ldw	r19,0(r19)
  802580:	983fee1e 	bne	r19,zero,80253c <_fwalk+0x38>
  802584:	0801d980 	call	801d98 <__sfp_lock_release>
  802588:	b005883a 	mov	r2,r22
  80258c:	dfc00717 	ldw	ra,28(sp)
  802590:	dd800617 	ldw	r22,24(sp)
  802594:	dd400517 	ldw	r21,20(sp)
  802598:	dd000417 	ldw	r20,16(sp)
  80259c:	dcc00317 	ldw	r19,12(sp)
  8025a0:	dc800217 	ldw	r18,8(sp)
  8025a4:	dc400117 	ldw	r17,4(sp)
  8025a8:	dc000017 	ldw	r16,0(sp)
  8025ac:	dec00804 	addi	sp,sp,32
  8025b0:	f800283a 	ret
  8025b4:	002d883a 	mov	r22,zero
  8025b8:	003ff206 	br	802584 <_fwalk+0x80>

008025bc <__smakebuf_r>:
  8025bc:	2880030b 	ldhu	r2,12(r5)
  8025c0:	deffed04 	addi	sp,sp,-76
  8025c4:	dc401015 	stw	r17,64(sp)
  8025c8:	1080008c 	andi	r2,r2,2
  8025cc:	dc000f15 	stw	r16,60(sp)
  8025d0:	dfc01215 	stw	ra,72(sp)
  8025d4:	dc801115 	stw	r18,68(sp)
  8025d8:	2821883a 	mov	r16,r5
  8025dc:	2023883a 	mov	r17,r4
  8025e0:	10000b26 	beq	r2,zero,802610 <__smakebuf_r+0x54>
  8025e4:	28c010c4 	addi	r3,r5,67
  8025e8:	00800044 	movi	r2,1
  8025ec:	28800515 	stw	r2,20(r5)
  8025f0:	28c00415 	stw	r3,16(r5)
  8025f4:	28c00015 	stw	r3,0(r5)
  8025f8:	dfc01217 	ldw	ra,72(sp)
  8025fc:	dc801117 	ldw	r18,68(sp)
  802600:	dc401017 	ldw	r17,64(sp)
  802604:	dc000f17 	ldw	r16,60(sp)
  802608:	dec01304 	addi	sp,sp,76
  80260c:	f800283a 	ret
  802610:	2940038f 	ldh	r5,14(r5)
  802614:	28002116 	blt	r5,zero,80269c <__smakebuf_r+0xe0>
  802618:	d80d883a 	mov	r6,sp
  80261c:	0802b400 	call	802b40 <_fstat_r>
  802620:	10001e16 	blt	r2,zero,80269c <__smakebuf_r+0xe0>
  802624:	d8800117 	ldw	r2,4(sp)
  802628:	00e00014 	movui	r3,32768
  80262c:	113c000c 	andi	r4,r2,61440
  802630:	20c03126 	beq	r4,r3,8026f8 <__smakebuf_r+0x13c>
  802634:	8080030b 	ldhu	r2,12(r16)
  802638:	00c80004 	movi	r3,8192
  80263c:	10820014 	ori	r2,r2,2048
  802640:	8080030d 	sth	r2,12(r16)
  802644:	20c01e26 	beq	r4,r3,8026c0 <__smakebuf_r+0x104>
  802648:	04810004 	movi	r18,1024
  80264c:	8809883a 	mov	r4,r17
  802650:	900b883a 	mov	r5,r18
  802654:	08009c80 	call	8009c8 <_malloc_r>
  802658:	1009883a 	mov	r4,r2
  80265c:	10003126 	beq	r2,zero,802724 <__smakebuf_r+0x168>
  802660:	80c0030b 	ldhu	r3,12(r16)
  802664:	00802034 	movhi	r2,128
  802668:	1087a204 	addi	r2,r2,7816
  80266c:	88800f15 	stw	r2,60(r17)
  802670:	18c02014 	ori	r3,r3,128
  802674:	84800515 	stw	r18,20(r16)
  802678:	80c0030d 	sth	r3,12(r16)
  80267c:	81000415 	stw	r4,16(r16)
  802680:	81000015 	stw	r4,0(r16)
  802684:	dfc01217 	ldw	ra,72(sp)
  802688:	dc801117 	ldw	r18,68(sp)
  80268c:	dc401017 	ldw	r17,64(sp)
  802690:	dc000f17 	ldw	r16,60(sp)
  802694:	dec01304 	addi	sp,sp,76
  802698:	f800283a 	ret
  80269c:	80c0030b 	ldhu	r3,12(r16)
  8026a0:	1880200c 	andi	r2,r3,128
  8026a4:	10000426 	beq	r2,zero,8026b8 <__smakebuf_r+0xfc>
  8026a8:	04801004 	movi	r18,64
  8026ac:	18820014 	ori	r2,r3,2048
  8026b0:	8080030d 	sth	r2,12(r16)
  8026b4:	003fe506 	br	80264c <__smakebuf_r+0x90>
  8026b8:	04810004 	movi	r18,1024
  8026bc:	003ffb06 	br	8026ac <__smakebuf_r+0xf0>
  8026c0:	8140038f 	ldh	r5,14(r16)
  8026c4:	8809883a 	mov	r4,r17
  8026c8:	0802bb40 	call	802bb4 <_isatty_r>
  8026cc:	103fde26 	beq	r2,zero,802648 <__smakebuf_r+0x8c>
  8026d0:	8080030b 	ldhu	r2,12(r16)
  8026d4:	80c010c4 	addi	r3,r16,67
  8026d8:	04810004 	movi	r18,1024
  8026dc:	10800054 	ori	r2,r2,1
  8026e0:	8080030d 	sth	r2,12(r16)
  8026e4:	00800044 	movi	r2,1
  8026e8:	80c00415 	stw	r3,16(r16)
  8026ec:	80800515 	stw	r2,20(r16)
  8026f0:	80c00015 	stw	r3,0(r16)
  8026f4:	003fd506 	br	80264c <__smakebuf_r+0x90>
  8026f8:	80c00a17 	ldw	r3,40(r16)
  8026fc:	00802034 	movhi	r2,128
  802700:	1089fc04 	addi	r2,r2,10224
  802704:	18bfcb1e 	bne	r3,r2,802634 <__smakebuf_r+0x78>
  802708:	8080030b 	ldhu	r2,12(r16)
  80270c:	00c10004 	movi	r3,1024
  802710:	1825883a 	mov	r18,r3
  802714:	10c4b03a 	or	r2,r2,r3
  802718:	8080030d 	sth	r2,12(r16)
  80271c:	80c01315 	stw	r3,76(r16)
  802720:	003fca06 	br	80264c <__smakebuf_r+0x90>
  802724:	8100030b 	ldhu	r4,12(r16)
  802728:	2080800c 	andi	r2,r4,512
  80272c:	103fb21e 	bne	r2,zero,8025f8 <__smakebuf_r+0x3c>
  802730:	80c010c4 	addi	r3,r16,67
  802734:	21000094 	ori	r4,r4,2
  802738:	00800044 	movi	r2,1
  80273c:	80800515 	stw	r2,20(r16)
  802740:	8100030d 	sth	r4,12(r16)
  802744:	80c00415 	stw	r3,16(r16)
  802748:	80c00015 	stw	r3,0(r16)
  80274c:	003faa06 	br	8025f8 <__smakebuf_r+0x3c>

00802750 <memset>:
  802750:	008000c4 	movi	r2,3
  802754:	29403fcc 	andi	r5,r5,255
  802758:	2007883a 	mov	r3,r4
  80275c:	1180022e 	bgeu	r2,r6,802768 <memset+0x18>
  802760:	2084703a 	and	r2,r4,r2
  802764:	10000826 	beq	r2,zero,802788 <memset+0x38>
  802768:	30000526 	beq	r6,zero,802780 <memset+0x30>
  80276c:	2805883a 	mov	r2,r5
  802770:	30cd883a 	add	r6,r6,r3
  802774:	18800005 	stb	r2,0(r3)
  802778:	18c00044 	addi	r3,r3,1
  80277c:	19bffd1e 	bne	r3,r6,802774 <memset+0x24>
  802780:	2005883a 	mov	r2,r4
  802784:	f800283a 	ret
  802788:	2804923a 	slli	r2,r5,8
  80278c:	020003c4 	movi	r8,15
  802790:	200f883a 	mov	r7,r4
  802794:	2884b03a 	or	r2,r5,r2
  802798:	1006943a 	slli	r3,r2,16
  80279c:	10c6b03a 	or	r3,r2,r3
  8027a0:	41800a2e 	bgeu	r8,r6,8027cc <memset+0x7c>
  8027a4:	4005883a 	mov	r2,r8
  8027a8:	31bffc04 	addi	r6,r6,-16
  8027ac:	38c00015 	stw	r3,0(r7)
  8027b0:	38c00115 	stw	r3,4(r7)
  8027b4:	38c00215 	stw	r3,8(r7)
  8027b8:	38c00315 	stw	r3,12(r7)
  8027bc:	39c00404 	addi	r7,r7,16
  8027c0:	11bff936 	bltu	r2,r6,8027a8 <memset+0x58>
  8027c4:	008000c4 	movi	r2,3
  8027c8:	1180052e 	bgeu	r2,r6,8027e0 <memset+0x90>
  8027cc:	31bfff04 	addi	r6,r6,-4
  8027d0:	008000c4 	movi	r2,3
  8027d4:	38c00015 	stw	r3,0(r7)
  8027d8:	39c00104 	addi	r7,r7,4
  8027dc:	11bffb36 	bltu	r2,r6,8027cc <memset+0x7c>
  8027e0:	3807883a 	mov	r3,r7
  8027e4:	003fe006 	br	802768 <memset+0x18>

008027e8 <__sclose>:
  8027e8:	2940038f 	ldh	r5,14(r5)
  8027ec:	08029ac1 	jmpi	8029ac <_close_r>

008027f0 <__sseek>:
  8027f0:	defffe04 	addi	sp,sp,-8
  8027f4:	dc000015 	stw	r16,0(sp)
  8027f8:	2821883a 	mov	r16,r5
  8027fc:	2940038f 	ldh	r5,14(r5)
  802800:	dfc00115 	stw	ra,4(sp)
  802804:	0802c240 	call	802c24 <_lseek_r>
  802808:	1007883a 	mov	r3,r2
  80280c:	00bfffc4 	movi	r2,-1
  802810:	18800926 	beq	r3,r2,802838 <__sseek+0x48>
  802814:	8080030b 	ldhu	r2,12(r16)
  802818:	80c01415 	stw	r3,80(r16)
  80281c:	10840014 	ori	r2,r2,4096
  802820:	8080030d 	sth	r2,12(r16)
  802824:	1805883a 	mov	r2,r3
  802828:	dfc00117 	ldw	ra,4(sp)
  80282c:	dc000017 	ldw	r16,0(sp)
  802830:	dec00204 	addi	sp,sp,8
  802834:	f800283a 	ret
  802838:	8080030b 	ldhu	r2,12(r16)
  80283c:	10bbffcc 	andi	r2,r2,61439
  802840:	8080030d 	sth	r2,12(r16)
  802844:	1805883a 	mov	r2,r3
  802848:	dfc00117 	ldw	ra,4(sp)
  80284c:	dc000017 	ldw	r16,0(sp)
  802850:	dec00204 	addi	sp,sp,8
  802854:	f800283a 	ret

00802858 <__swrite>:
  802858:	2880030b 	ldhu	r2,12(r5)
  80285c:	defffb04 	addi	sp,sp,-20
  802860:	dcc00315 	stw	r19,12(sp)
  802864:	1080400c 	andi	r2,r2,256
  802868:	dc800215 	stw	r18,8(sp)
  80286c:	dc400115 	stw	r17,4(sp)
  802870:	dc000015 	stw	r16,0(sp)
  802874:	3027883a 	mov	r19,r6
  802878:	3825883a 	mov	r18,r7
  80287c:	dfc00415 	stw	ra,16(sp)
  802880:	2821883a 	mov	r16,r5
  802884:	000d883a 	mov	r6,zero
  802888:	01c00084 	movi	r7,2
  80288c:	2023883a 	mov	r17,r4
  802890:	10000226 	beq	r2,zero,80289c <__swrite+0x44>
  802894:	2940038f 	ldh	r5,14(r5)
  802898:	0802c240 	call	802c24 <_lseek_r>
  80289c:	8080030b 	ldhu	r2,12(r16)
  8028a0:	8140038f 	ldh	r5,14(r16)
  8028a4:	8809883a 	mov	r4,r17
  8028a8:	10bbffcc 	andi	r2,r2,61439
  8028ac:	980d883a 	mov	r6,r19
  8028b0:	900f883a 	mov	r7,r18
  8028b4:	8080030d 	sth	r2,12(r16)
  8028b8:	dfc00417 	ldw	ra,16(sp)
  8028bc:	dcc00317 	ldw	r19,12(sp)
  8028c0:	dc800217 	ldw	r18,8(sp)
  8028c4:	dc400117 	ldw	r17,4(sp)
  8028c8:	dc000017 	ldw	r16,0(sp)
  8028cc:	dec00504 	addi	sp,sp,20
  8028d0:	08029341 	jmpi	802934 <_write_r>

008028d4 <__sread>:
  8028d4:	defffe04 	addi	sp,sp,-8
  8028d8:	dc000015 	stw	r16,0(sp)
  8028dc:	2821883a 	mov	r16,r5
  8028e0:	2940038f 	ldh	r5,14(r5)
  8028e4:	dfc00115 	stw	ra,4(sp)
  8028e8:	0802c9c0 	call	802c9c <_read_r>
  8028ec:	1007883a 	mov	r3,r2
  8028f0:	10000816 	blt	r2,zero,802914 <__sread+0x40>
  8028f4:	80801417 	ldw	r2,80(r16)
  8028f8:	10c5883a 	add	r2,r2,r3
  8028fc:	80801415 	stw	r2,80(r16)
  802900:	1805883a 	mov	r2,r3
  802904:	dfc00117 	ldw	ra,4(sp)
  802908:	dc000017 	ldw	r16,0(sp)
  80290c:	dec00204 	addi	sp,sp,8
  802910:	f800283a 	ret
  802914:	8080030b 	ldhu	r2,12(r16)
  802918:	10bbffcc 	andi	r2,r2,61439
  80291c:	8080030d 	sth	r2,12(r16)
  802920:	1805883a 	mov	r2,r3
  802924:	dfc00117 	ldw	ra,4(sp)
  802928:	dc000017 	ldw	r16,0(sp)
  80292c:	dec00204 	addi	sp,sp,8
  802930:	f800283a 	ret

00802934 <_write_r>:
  802934:	defffd04 	addi	sp,sp,-12
  802938:	dc000015 	stw	r16,0(sp)
  80293c:	04002074 	movhi	r16,129
  802940:	840ce704 	addi	r16,r16,13212
  802944:	dc400115 	stw	r17,4(sp)
  802948:	80000015 	stw	zero,0(r16)
  80294c:	2023883a 	mov	r17,r4
  802950:	2809883a 	mov	r4,r5
  802954:	300b883a 	mov	r5,r6
  802958:	380d883a 	mov	r6,r7
  80295c:	dfc00215 	stw	ra,8(sp)
  802960:	08036900 	call	803690 <write>
  802964:	1007883a 	mov	r3,r2
  802968:	00bfffc4 	movi	r2,-1
  80296c:	18800626 	beq	r3,r2,802988 <_write_r+0x54>
  802970:	1805883a 	mov	r2,r3
  802974:	dfc00217 	ldw	ra,8(sp)
  802978:	dc400117 	ldw	r17,4(sp)
  80297c:	dc000017 	ldw	r16,0(sp)
  802980:	dec00304 	addi	sp,sp,12
  802984:	f800283a 	ret
  802988:	80800017 	ldw	r2,0(r16)
  80298c:	103ff826 	beq	r2,zero,802970 <_write_r+0x3c>
  802990:	88800015 	stw	r2,0(r17)
  802994:	1805883a 	mov	r2,r3
  802998:	dfc00217 	ldw	ra,8(sp)
  80299c:	dc400117 	ldw	r17,4(sp)
  8029a0:	dc000017 	ldw	r16,0(sp)
  8029a4:	dec00304 	addi	sp,sp,12
  8029a8:	f800283a 	ret

008029ac <_close_r>:
  8029ac:	defffd04 	addi	sp,sp,-12
  8029b0:	dc000015 	stw	r16,0(sp)
  8029b4:	04002074 	movhi	r16,129
  8029b8:	840ce704 	addi	r16,r16,13212
  8029bc:	dc400115 	stw	r17,4(sp)
  8029c0:	80000015 	stw	zero,0(r16)
  8029c4:	2023883a 	mov	r17,r4
  8029c8:	2809883a 	mov	r4,r5
  8029cc:	dfc00215 	stw	ra,8(sp)
  8029d0:	0802d140 	call	802d14 <close>
  8029d4:	1007883a 	mov	r3,r2
  8029d8:	00bfffc4 	movi	r2,-1
  8029dc:	18800626 	beq	r3,r2,8029f8 <_close_r+0x4c>
  8029e0:	1805883a 	mov	r2,r3
  8029e4:	dfc00217 	ldw	ra,8(sp)
  8029e8:	dc400117 	ldw	r17,4(sp)
  8029ec:	dc000017 	ldw	r16,0(sp)
  8029f0:	dec00304 	addi	sp,sp,12
  8029f4:	f800283a 	ret
  8029f8:	80800017 	ldw	r2,0(r16)
  8029fc:	103ff826 	beq	r2,zero,8029e0 <_close_r+0x34>
  802a00:	88800015 	stw	r2,0(r17)
  802a04:	1805883a 	mov	r2,r3
  802a08:	dfc00217 	ldw	ra,8(sp)
  802a0c:	dc400117 	ldw	r17,4(sp)
  802a10:	dc000017 	ldw	r16,0(sp)
  802a14:	dec00304 	addi	sp,sp,12
  802a18:	f800283a 	ret

00802a1c <_fclose_r>:
  802a1c:	defffc04 	addi	sp,sp,-16
  802a20:	dc400115 	stw	r17,4(sp)
  802a24:	dc000015 	stw	r16,0(sp)
  802a28:	dfc00315 	stw	ra,12(sp)
  802a2c:	dc800215 	stw	r18,8(sp)
  802a30:	2821883a 	mov	r16,r5
  802a34:	2023883a 	mov	r17,r4
  802a38:	28002926 	beq	r5,zero,802ae0 <_fclose_r+0xc4>
  802a3c:	0801d940 	call	801d94 <__sfp_lock_acquire>
  802a40:	88000226 	beq	r17,zero,802a4c <_fclose_r+0x30>
  802a44:	88800e17 	ldw	r2,56(r17)
  802a48:	10002d26 	beq	r2,zero,802b00 <_fclose_r+0xe4>
  802a4c:	8080030f 	ldh	r2,12(r16)
  802a50:	10002226 	beq	r2,zero,802adc <_fclose_r+0xc0>
  802a54:	8809883a 	mov	r4,r17
  802a58:	800b883a 	mov	r5,r16
  802a5c:	0801b0c0 	call	801b0c <_fflush_r>
  802a60:	1025883a 	mov	r18,r2
  802a64:	80800b17 	ldw	r2,44(r16)
  802a68:	10000426 	beq	r2,zero,802a7c <_fclose_r+0x60>
  802a6c:	81400717 	ldw	r5,28(r16)
  802a70:	8809883a 	mov	r4,r17
  802a74:	103ee83a 	callr	r2
  802a78:	10002a16 	blt	r2,zero,802b24 <_fclose_r+0x108>
  802a7c:	8080030b 	ldhu	r2,12(r16)
  802a80:	1080200c 	andi	r2,r2,128
  802a84:	1000231e 	bne	r2,zero,802b14 <_fclose_r+0xf8>
  802a88:	81400c17 	ldw	r5,48(r16)
  802a8c:	28000526 	beq	r5,zero,802aa4 <_fclose_r+0x88>
  802a90:	80801004 	addi	r2,r16,64
  802a94:	28800226 	beq	r5,r2,802aa0 <_fclose_r+0x84>
  802a98:	8809883a 	mov	r4,r17
  802a9c:	08021280 	call	802128 <_free_r>
  802aa0:	80000c15 	stw	zero,48(r16)
  802aa4:	81401117 	ldw	r5,68(r16)
  802aa8:	28000326 	beq	r5,zero,802ab8 <_fclose_r+0x9c>
  802aac:	8809883a 	mov	r4,r17
  802ab0:	08021280 	call	802128 <_free_r>
  802ab4:	80001115 	stw	zero,68(r16)
  802ab8:	8000030d 	sth	zero,12(r16)
  802abc:	0801d980 	call	801d98 <__sfp_lock_release>
  802ac0:	9005883a 	mov	r2,r18
  802ac4:	dfc00317 	ldw	ra,12(sp)
  802ac8:	dc800217 	ldw	r18,8(sp)
  802acc:	dc400117 	ldw	r17,4(sp)
  802ad0:	dc000017 	ldw	r16,0(sp)
  802ad4:	dec00404 	addi	sp,sp,16
  802ad8:	f800283a 	ret
  802adc:	0801d980 	call	801d98 <__sfp_lock_release>
  802ae0:	0025883a 	mov	r18,zero
  802ae4:	9005883a 	mov	r2,r18
  802ae8:	dfc00317 	ldw	ra,12(sp)
  802aec:	dc800217 	ldw	r18,8(sp)
  802af0:	dc400117 	ldw	r17,4(sp)
  802af4:	dc000017 	ldw	r16,0(sp)
  802af8:	dec00404 	addi	sp,sp,16
  802afc:	f800283a 	ret
  802b00:	8809883a 	mov	r4,r17
  802b04:	0801da40 	call	801da4 <__sinit>
  802b08:	8080030f 	ldh	r2,12(r16)
  802b0c:	103fd11e 	bne	r2,zero,802a54 <_fclose_r+0x38>
  802b10:	003ff206 	br	802adc <_fclose_r+0xc0>
  802b14:	81400417 	ldw	r5,16(r16)
  802b18:	8809883a 	mov	r4,r17
  802b1c:	08021280 	call	802128 <_free_r>
  802b20:	003fd906 	br	802a88 <_fclose_r+0x6c>
  802b24:	04bfffc4 	movi	r18,-1
  802b28:	003fd406 	br	802a7c <_fclose_r+0x60>

00802b2c <fclose>:
  802b2c:	00802074 	movhi	r2,129
  802b30:	1085e004 	addi	r2,r2,6016
  802b34:	200b883a 	mov	r5,r4
  802b38:	11000017 	ldw	r4,0(r2)
  802b3c:	0802a1c1 	jmpi	802a1c <_fclose_r>

00802b40 <_fstat_r>:
  802b40:	defffd04 	addi	sp,sp,-12
  802b44:	dc000015 	stw	r16,0(sp)
  802b48:	04002074 	movhi	r16,129
  802b4c:	840ce704 	addi	r16,r16,13212
  802b50:	dc400115 	stw	r17,4(sp)
  802b54:	80000015 	stw	zero,0(r16)
  802b58:	2023883a 	mov	r17,r4
  802b5c:	2809883a 	mov	r4,r5
  802b60:	300b883a 	mov	r5,r6
  802b64:	dfc00215 	stw	ra,8(sp)
  802b68:	0802e9c0 	call	802e9c <fstat>
  802b6c:	1007883a 	mov	r3,r2
  802b70:	00bfffc4 	movi	r2,-1
  802b74:	18800626 	beq	r3,r2,802b90 <_fstat_r+0x50>
  802b78:	1805883a 	mov	r2,r3
  802b7c:	dfc00217 	ldw	ra,8(sp)
  802b80:	dc400117 	ldw	r17,4(sp)
  802b84:	dc000017 	ldw	r16,0(sp)
  802b88:	dec00304 	addi	sp,sp,12
  802b8c:	f800283a 	ret
  802b90:	80800017 	ldw	r2,0(r16)
  802b94:	103ff826 	beq	r2,zero,802b78 <_fstat_r+0x38>
  802b98:	88800015 	stw	r2,0(r17)
  802b9c:	1805883a 	mov	r2,r3
  802ba0:	dfc00217 	ldw	ra,8(sp)
  802ba4:	dc400117 	ldw	r17,4(sp)
  802ba8:	dc000017 	ldw	r16,0(sp)
  802bac:	dec00304 	addi	sp,sp,12
  802bb0:	f800283a 	ret

00802bb4 <_isatty_r>:
  802bb4:	defffd04 	addi	sp,sp,-12
  802bb8:	dc000015 	stw	r16,0(sp)
  802bbc:	04002074 	movhi	r16,129
  802bc0:	840ce704 	addi	r16,r16,13212
  802bc4:	dc400115 	stw	r17,4(sp)
  802bc8:	80000015 	stw	zero,0(r16)
  802bcc:	2023883a 	mov	r17,r4
  802bd0:	2809883a 	mov	r4,r5
  802bd4:	dfc00215 	stw	ra,8(sp)
  802bd8:	0802fd00 	call	802fd0 <isatty>
  802bdc:	1007883a 	mov	r3,r2
  802be0:	00bfffc4 	movi	r2,-1
  802be4:	18800626 	beq	r3,r2,802c00 <_isatty_r+0x4c>
  802be8:	1805883a 	mov	r2,r3
  802bec:	dfc00217 	ldw	ra,8(sp)
  802bf0:	dc400117 	ldw	r17,4(sp)
  802bf4:	dc000017 	ldw	r16,0(sp)
  802bf8:	dec00304 	addi	sp,sp,12
  802bfc:	f800283a 	ret
  802c00:	80800017 	ldw	r2,0(r16)
  802c04:	103ff826 	beq	r2,zero,802be8 <_isatty_r+0x34>
  802c08:	88800015 	stw	r2,0(r17)
  802c0c:	1805883a 	mov	r2,r3
  802c10:	dfc00217 	ldw	ra,8(sp)
  802c14:	dc400117 	ldw	r17,4(sp)
  802c18:	dc000017 	ldw	r16,0(sp)
  802c1c:	dec00304 	addi	sp,sp,12
  802c20:	f800283a 	ret

00802c24 <_lseek_r>:
  802c24:	defffd04 	addi	sp,sp,-12
  802c28:	dc000015 	stw	r16,0(sp)
  802c2c:	04002074 	movhi	r16,129
  802c30:	840ce704 	addi	r16,r16,13212
  802c34:	dc400115 	stw	r17,4(sp)
  802c38:	80000015 	stw	zero,0(r16)
  802c3c:	2023883a 	mov	r17,r4
  802c40:	2809883a 	mov	r4,r5
  802c44:	300b883a 	mov	r5,r6
  802c48:	380d883a 	mov	r6,r7
  802c4c:	dfc00215 	stw	ra,8(sp)
  802c50:	08031dc0 	call	8031dc <lseek>
  802c54:	1007883a 	mov	r3,r2
  802c58:	00bfffc4 	movi	r2,-1
  802c5c:	18800626 	beq	r3,r2,802c78 <_lseek_r+0x54>
  802c60:	1805883a 	mov	r2,r3
  802c64:	dfc00217 	ldw	ra,8(sp)
  802c68:	dc400117 	ldw	r17,4(sp)
  802c6c:	dc000017 	ldw	r16,0(sp)
  802c70:	dec00304 	addi	sp,sp,12
  802c74:	f800283a 	ret
  802c78:	80800017 	ldw	r2,0(r16)
  802c7c:	103ff826 	beq	r2,zero,802c60 <_lseek_r+0x3c>
  802c80:	88800015 	stw	r2,0(r17)
  802c84:	1805883a 	mov	r2,r3
  802c88:	dfc00217 	ldw	ra,8(sp)
  802c8c:	dc400117 	ldw	r17,4(sp)
  802c90:	dc000017 	ldw	r16,0(sp)
  802c94:	dec00304 	addi	sp,sp,12
  802c98:	f800283a 	ret

00802c9c <_read_r>:
  802c9c:	defffd04 	addi	sp,sp,-12
  802ca0:	dc000015 	stw	r16,0(sp)
  802ca4:	04002074 	movhi	r16,129
  802ca8:	840ce704 	addi	r16,r16,13212
  802cac:	dc400115 	stw	r17,4(sp)
  802cb0:	80000015 	stw	zero,0(r16)
  802cb4:	2023883a 	mov	r17,r4
  802cb8:	2809883a 	mov	r4,r5
  802cbc:	300b883a 	mov	r5,r6
  802cc0:	380d883a 	mov	r6,r7
  802cc4:	dfc00215 	stw	ra,8(sp)
  802cc8:	08033f40 	call	8033f4 <read>
  802ccc:	1007883a 	mov	r3,r2
  802cd0:	00bfffc4 	movi	r2,-1
  802cd4:	18800626 	beq	r3,r2,802cf0 <_read_r+0x54>
  802cd8:	1805883a 	mov	r2,r3
  802cdc:	dfc00217 	ldw	ra,8(sp)
  802ce0:	dc400117 	ldw	r17,4(sp)
  802ce4:	dc000017 	ldw	r16,0(sp)
  802ce8:	dec00304 	addi	sp,sp,12
  802cec:	f800283a 	ret
  802cf0:	80800017 	ldw	r2,0(r16)
  802cf4:	103ff826 	beq	r2,zero,802cd8 <_read_r+0x3c>
  802cf8:	88800015 	stw	r2,0(r17)
  802cfc:	1805883a 	mov	r2,r3
  802d00:	dfc00217 	ldw	ra,8(sp)
  802d04:	dc400117 	ldw	r17,4(sp)
  802d08:	dc000017 	ldw	r16,0(sp)
  802d0c:	dec00304 	addi	sp,sp,12
  802d10:	f800283a 	ret

00802d14 <close>:
 *
 * ALT_CLOSE is mapped onto the close() system call in alt_syscall.h
 */
 
int ALT_CLOSE (int fildes)
{
  802d14:	defff804 	addi	sp,sp,-32
  802d18:	dfc00715 	stw	ra,28(sp)
  802d1c:	df000615 	stw	fp,24(sp)
  802d20:	df000604 	addi	fp,sp,24
  802d24:	e13ffc15 	stw	r4,-16(fp)
   * A common error case is that when the file descriptor was created, the call
   * to open() failed resulting in a negative file descriptor. This is trapped
   * below so that we don't try and process an invalid file descriptor.
   */

  fd = (fildes < 0) ? NULL : &alt_fd_list[fildes];
  802d28:	e0bffc17 	ldw	r2,-16(fp)
  802d2c:	1004803a 	cmplt	r2,r2,zero
  802d30:	1000081e 	bne	r2,zero,802d54 <close+0x40>
  802d34:	e0bffc17 	ldw	r2,-16(fp)
  802d38:	10800324 	muli	r2,r2,12
  802d3c:	1007883a 	mov	r3,r2
  802d40:	00802074 	movhi	r2,129
  802d44:	10814204 	addi	r2,r2,1288
  802d48:	1887883a 	add	r3,r3,r2
  802d4c:	e0ffff15 	stw	r3,-4(fp)
  802d50:	00000106 	br	802d58 <close+0x44>
  802d54:	e03fff15 	stw	zero,-4(fp)
  802d58:	e0bfff17 	ldw	r2,-4(fp)
  802d5c:	e0bffb15 	stw	r2,-20(fp)

  if (fd)
  802d60:	e0bffb17 	ldw	r2,-20(fp)
  802d64:	1005003a 	cmpeq	r2,r2,zero
  802d68:	10001d1e 	bne	r2,zero,802de0 <close+0xcc>
    /*
     * If the associated file system/device has a close function, call it so 
     * that any necessary cleanup code can run.
     */

    rval = (fd->dev->close) ? fd->dev->close(fd) : 0;
  802d6c:	e0bffb17 	ldw	r2,-20(fp)
  802d70:	10800017 	ldw	r2,0(r2)
  802d74:	10800417 	ldw	r2,16(r2)
  802d78:	1005003a 	cmpeq	r2,r2,zero
  802d7c:	1000071e 	bne	r2,zero,802d9c <close+0x88>
  802d80:	e0bffb17 	ldw	r2,-20(fp)
  802d84:	10800017 	ldw	r2,0(r2)
  802d88:	10800417 	ldw	r2,16(r2)
  802d8c:	e13ffb17 	ldw	r4,-20(fp)
  802d90:	103ee83a 	callr	r2
  802d94:	e0bffe15 	stw	r2,-8(fp)
  802d98:	00000106 	br	802da0 <close+0x8c>
  802d9c:	e03ffe15 	stw	zero,-8(fp)
  802da0:	e0bffe17 	ldw	r2,-8(fp)
  802da4:	e0bffa15 	stw	r2,-24(fp)

    /* Free the file descriptor structure and return. */

    alt_release_fd (fildes);
  802da8:	e13ffc17 	ldw	r4,-16(fp)
  802dac:	08035740 	call	803574 <alt_release_fd>
    if (rval < 0)
  802db0:	e0bffa17 	ldw	r2,-24(fp)
  802db4:	1004403a 	cmpge	r2,r2,zero
  802db8:	1000071e 	bne	r2,zero,802dd8 <close+0xc4>
    {
      ALT_ERRNO = -rval;
  802dbc:	0802e100 	call	802e10 <alt_get_errno>
  802dc0:	e0fffa17 	ldw	r3,-24(fp)
  802dc4:	00c7c83a 	sub	r3,zero,r3
  802dc8:	10c00015 	stw	r3,0(r2)
      return -1;
  802dcc:	00bfffc4 	movi	r2,-1
  802dd0:	e0bffd15 	stw	r2,-12(fp)
  802dd4:	00000806 	br	802df8 <close+0xe4>
    }
    return 0;
  802dd8:	e03ffd15 	stw	zero,-12(fp)
  802ddc:	00000606 	br	802df8 <close+0xe4>
  }
  else
  {
    ALT_ERRNO = EBADFD;
  802de0:	0802e100 	call	802e10 <alt_get_errno>
  802de4:	1007883a 	mov	r3,r2
  802de8:	00801444 	movi	r2,81
  802dec:	18800015 	stw	r2,0(r3)
    return -1;
  802df0:	00bfffc4 	movi	r2,-1
  802df4:	e0bffd15 	stw	r2,-12(fp)
  802df8:	e0bffd17 	ldw	r2,-12(fp)
  }
}
  802dfc:	e037883a 	mov	sp,fp
  802e00:	dfc00117 	ldw	ra,4(sp)
  802e04:	df000017 	ldw	fp,0(sp)
  802e08:	dec00204 	addi	sp,sp,8
  802e0c:	f800283a 	ret

00802e10 <alt_get_errno>:
#undef errno

extern int errno;

static ALT_INLINE int* alt_get_errno(void)
{
  802e10:	defffd04 	addi	sp,sp,-12
  802e14:	dfc00215 	stw	ra,8(sp)
  802e18:	df000115 	stw	fp,4(sp)
  802e1c:	df000104 	addi	fp,sp,4
  return ((alt_errno) ? alt_errno() : &errno);
  802e20:	00802074 	movhi	r2,129
  802e24:	1085e904 	addi	r2,r2,6052
  802e28:	10800017 	ldw	r2,0(r2)
  802e2c:	1005003a 	cmpeq	r2,r2,zero
  802e30:	1000061e 	bne	r2,zero,802e4c <alt_get_errno+0x3c>
  802e34:	00802074 	movhi	r2,129
  802e38:	1085e904 	addi	r2,r2,6052
  802e3c:	10800017 	ldw	r2,0(r2)
  802e40:	103ee83a 	callr	r2
  802e44:	e0bfff15 	stw	r2,-4(fp)
  802e48:	00000306 	br	802e58 <alt_get_errno+0x48>
  802e4c:	00802074 	movhi	r2,129
  802e50:	108ce704 	addi	r2,r2,13212
  802e54:	e0bfff15 	stw	r2,-4(fp)
  802e58:	e0bfff17 	ldw	r2,-4(fp)
}
  802e5c:	e037883a 	mov	sp,fp
  802e60:	dfc00117 	ldw	ra,4(sp)
  802e64:	df000017 	ldw	fp,0(sp)
  802e68:	dec00204 	addi	sp,sp,8
  802e6c:	f800283a 	ret

00802e70 <alt_dev_null_write>:
 * by the alt_dev_null device. It simple discards all data passed to it, and
 * indicates that the data has been successfully transmitted.
 */

static int alt_dev_null_write (alt_fd* fd, const char* ptr, int len)
{
  802e70:	defffc04 	addi	sp,sp,-16
  802e74:	df000315 	stw	fp,12(sp)
  802e78:	df000304 	addi	fp,sp,12
  802e7c:	e13ffd15 	stw	r4,-12(fp)
  802e80:	e17ffe15 	stw	r5,-8(fp)
  802e84:	e1bfff15 	stw	r6,-4(fp)
  return len;
  802e88:	e0bfff17 	ldw	r2,-4(fp)
}
  802e8c:	e037883a 	mov	sp,fp
  802e90:	df000017 	ldw	fp,0(sp)
  802e94:	dec00104 	addi	sp,sp,4
  802e98:	f800283a 	ret

00802e9c <fstat>:
}

#else /* !ALT_USE_DIRECT_DRIVERS */

int ALT_FSTAT (int file, struct stat *st)
{
  802e9c:	defff904 	addi	sp,sp,-28
  802ea0:	dfc00615 	stw	ra,24(sp)
  802ea4:	df000515 	stw	fp,20(sp)
  802ea8:	df000504 	addi	fp,sp,20
  802eac:	e13ffc15 	stw	r4,-16(fp)
  802eb0:	e17ffd15 	stw	r5,-12(fp)
   * A common error case is that when the file descriptor was created, the call
   * to open() failed resulting in a negative file descriptor. This is trapped
   * below so that we don't try and process an invalid file descriptor.
   */

  fd = (file < 0) ? NULL : &alt_fd_list[file];
  802eb4:	e0bffc17 	ldw	r2,-16(fp)
  802eb8:	1004803a 	cmplt	r2,r2,zero
  802ebc:	1000081e 	bne	r2,zero,802ee0 <fstat+0x44>
  802ec0:	e0bffc17 	ldw	r2,-16(fp)
  802ec4:	10800324 	muli	r2,r2,12
  802ec8:	1007883a 	mov	r3,r2
  802ecc:	00802074 	movhi	r2,129
  802ed0:	10814204 	addi	r2,r2,1288
  802ed4:	1887883a 	add	r3,r3,r2
  802ed8:	e0ffff15 	stw	r3,-4(fp)
  802edc:	00000106 	br	802ee4 <fstat+0x48>
  802ee0:	e03fff15 	stw	zero,-4(fp)
  802ee4:	e0bfff17 	ldw	r2,-4(fp)
  802ee8:	e0bffb15 	stw	r2,-20(fp)
  
  if (fd)
  802eec:	e0bffb17 	ldw	r2,-20(fp)
  802ef0:	1005003a 	cmpeq	r2,r2,zero
  802ef4:	1000121e 	bne	r2,zero,802f40 <fstat+0xa4>
  {
    /* Call the drivers fstat() function to fill out the "st" structure. */

    if (fd->dev->fstat)
  802ef8:	e0bffb17 	ldw	r2,-20(fp)
  802efc:	10800017 	ldw	r2,0(r2)
  802f00:	10800817 	ldw	r2,32(r2)
  802f04:	1005003a 	cmpeq	r2,r2,zero
  802f08:	1000081e 	bne	r2,zero,802f2c <fstat+0x90>
    {
      return fd->dev->fstat(fd, st);
  802f0c:	e0bffb17 	ldw	r2,-20(fp)
  802f10:	10800017 	ldw	r2,0(r2)
  802f14:	10800817 	ldw	r2,32(r2)
  802f18:	e13ffb17 	ldw	r4,-20(fp)
  802f1c:	e17ffd17 	ldw	r5,-12(fp)
  802f20:	103ee83a 	callr	r2
  802f24:	e0bffe15 	stw	r2,-8(fp)
  802f28:	00000b06 	br	802f58 <fstat+0xbc>
     * device.
     */
 
    else
    {
      st->st_mode = _IFCHR;
  802f2c:	e0fffd17 	ldw	r3,-12(fp)
  802f30:	00880004 	movi	r2,8192
  802f34:	18800115 	stw	r2,4(r3)
      return 0;
  802f38:	e03ffe15 	stw	zero,-8(fp)
  802f3c:	00000606 	br	802f58 <fstat+0xbc>
    }
  }
  else
  {
    ALT_ERRNO = EBADFD;
  802f40:	0802f700 	call	802f70 <alt_get_errno>
  802f44:	1007883a 	mov	r3,r2
  802f48:	00801444 	movi	r2,81
  802f4c:	18800015 	stw	r2,0(r3)
    return -1;
  802f50:	00bfffc4 	movi	r2,-1
  802f54:	e0bffe15 	stw	r2,-8(fp)
  802f58:	e0bffe17 	ldw	r2,-8(fp)
  }
}
  802f5c:	e037883a 	mov	sp,fp
  802f60:	dfc00117 	ldw	ra,4(sp)
  802f64:	df000017 	ldw	fp,0(sp)
  802f68:	dec00204 	addi	sp,sp,8
  802f6c:	f800283a 	ret

00802f70 <alt_get_errno>:
#undef errno

extern int errno;

static ALT_INLINE int* alt_get_errno(void)
{
  802f70:	defffd04 	addi	sp,sp,-12
  802f74:	dfc00215 	stw	ra,8(sp)
  802f78:	df000115 	stw	fp,4(sp)
  802f7c:	df000104 	addi	fp,sp,4
  return ((alt_errno) ? alt_errno() : &errno);
  802f80:	00802074 	movhi	r2,129
  802f84:	1085e904 	addi	r2,r2,6052
  802f88:	10800017 	ldw	r2,0(r2)
  802f8c:	1005003a 	cmpeq	r2,r2,zero
  802f90:	1000061e 	bne	r2,zero,802fac <alt_get_errno+0x3c>
  802f94:	00802074 	movhi	r2,129
  802f98:	1085e904 	addi	r2,r2,6052
  802f9c:	10800017 	ldw	r2,0(r2)
  802fa0:	103ee83a 	callr	r2
  802fa4:	e0bfff15 	stw	r2,-4(fp)
  802fa8:	00000306 	br	802fb8 <alt_get_errno+0x48>
  802fac:	00802074 	movhi	r2,129
  802fb0:	108ce704 	addi	r2,r2,13212
  802fb4:	e0bfff15 	stw	r2,-4(fp)
  802fb8:	e0bfff17 	ldw	r2,-4(fp)
}
  802fbc:	e037883a 	mov	sp,fp
  802fc0:	dfc00117 	ldw	ra,4(sp)
  802fc4:	df000017 	ldw	fp,0(sp)
  802fc8:	dec00204 	addi	sp,sp,8
  802fcc:	f800283a 	ret

00802fd0 <isatty>:
 *
 * ALT_ISATTY is mapped onto the isatty() system call in alt_syscall.h
 */
 
int ALT_ISATTY (int file)
{
  802fd0:	deffeb04 	addi	sp,sp,-84
  802fd4:	dfc01415 	stw	ra,80(sp)
  802fd8:	df001315 	stw	fp,76(sp)
  802fdc:	df001304 	addi	fp,sp,76
  802fe0:	e13ffd15 	stw	r4,-12(fp)
   * A common error case is that when the file descriptor was created, the call
   * to open() failed resulting in a negative file descriptor. This is trapped
   * below so that we don't try and process an invalid file descriptor.
   */

  fd = (file < 0) ? NULL : &alt_fd_list[file];
  802fe4:	e0bffd17 	ldw	r2,-12(fp)
  802fe8:	1004803a 	cmplt	r2,r2,zero
  802fec:	1000081e 	bne	r2,zero,803010 <isatty+0x40>
  802ff0:	e0bffd17 	ldw	r2,-12(fp)
  802ff4:	10800324 	muli	r2,r2,12
  802ff8:	1007883a 	mov	r3,r2
  802ffc:	00802074 	movhi	r2,129
  803000:	10814204 	addi	r2,r2,1288
  803004:	1887883a 	add	r3,r3,r2
  803008:	e0ffff15 	stw	r3,-4(fp)
  80300c:	00000106 	br	803014 <isatty+0x44>
  803010:	e03fff15 	stw	zero,-4(fp)
  803014:	e0bfff17 	ldw	r2,-4(fp)
  803018:	e0bfed15 	stw	r2,-76(fp)
  
  if (fd)
  80301c:	e0bfed17 	ldw	r2,-76(fp)
  803020:	1005003a 	cmpeq	r2,r2,zero
  803024:	10000f1e 	bne	r2,zero,803064 <isatty+0x94>
    /*
     * If a device driver does not provide an fstat() function, then it is 
     * treated as a terminal device by default.
     */

    if (!fd->dev->fstat)
  803028:	e0bfed17 	ldw	r2,-76(fp)
  80302c:	10800017 	ldw	r2,0(r2)
  803030:	10800817 	ldw	r2,32(r2)
  803034:	1004c03a 	cmpne	r2,r2,zero
  803038:	1000031e 	bne	r2,zero,803048 <isatty+0x78>
    {
      return 1;
  80303c:	00800044 	movi	r2,1
  803040:	e0bffe15 	stw	r2,-8(fp)
  803044:	00000c06 	br	803078 <isatty+0xa8>
     * this is called so that the device can identify itself.
     */ 

    else
    {
      fstat (file, &stat);
  803048:	e17fee04 	addi	r5,fp,-72
  80304c:	e13ffd17 	ldw	r4,-12(fp)
  803050:	0802e9c0 	call	802e9c <fstat>
      return (stat.st_mode == _IFCHR) ? 1 : 0;
  803054:	e0bfef17 	ldw	r2,-68(fp)
  803058:	10880020 	cmpeqi	r2,r2,8192
  80305c:	e0bffe15 	stw	r2,-8(fp)
  803060:	00000506 	br	803078 <isatty+0xa8>
    }
  }
  else
  {
    ALT_ERRNO = EBADFD;
  803064:	08030900 	call	803090 <alt_get_errno>
  803068:	1007883a 	mov	r3,r2
  80306c:	00801444 	movi	r2,81
  803070:	18800015 	stw	r2,0(r3)
    return 0;
  803074:	e03ffe15 	stw	zero,-8(fp)
  803078:	e0bffe17 	ldw	r2,-8(fp)
  }
}
  80307c:	e037883a 	mov	sp,fp
  803080:	dfc00117 	ldw	ra,4(sp)
  803084:	df000017 	ldw	fp,0(sp)
  803088:	dec00204 	addi	sp,sp,8
  80308c:	f800283a 	ret

00803090 <alt_get_errno>:
#undef errno

extern int errno;

static ALT_INLINE int* alt_get_errno(void)
{
  803090:	defffd04 	addi	sp,sp,-12
  803094:	dfc00215 	stw	ra,8(sp)
  803098:	df000115 	stw	fp,4(sp)
  80309c:	df000104 	addi	fp,sp,4
  return ((alt_errno) ? alt_errno() : &errno);
  8030a0:	00802074 	movhi	r2,129
  8030a4:	1085e904 	addi	r2,r2,6052
  8030a8:	10800017 	ldw	r2,0(r2)
  8030ac:	1005003a 	cmpeq	r2,r2,zero
  8030b0:	1000061e 	bne	r2,zero,8030cc <alt_get_errno+0x3c>
  8030b4:	00802074 	movhi	r2,129
  8030b8:	1085e904 	addi	r2,r2,6052
  8030bc:	10800017 	ldw	r2,0(r2)
  8030c0:	103ee83a 	callr	r2
  8030c4:	e0bfff15 	stw	r2,-4(fp)
  8030c8:	00000306 	br	8030d8 <alt_get_errno+0x48>
  8030cc:	00802074 	movhi	r2,129
  8030d0:	108ce704 	addi	r2,r2,13212
  8030d4:	e0bfff15 	stw	r2,-4(fp)
  8030d8:	e0bfff17 	ldw	r2,-4(fp)
}
  8030dc:	e037883a 	mov	sp,fp
  8030e0:	dfc00117 	ldw	ra,4(sp)
  8030e4:	df000017 	ldw	fp,0(sp)
  8030e8:	dec00204 	addi	sp,sp,8
  8030ec:	f800283a 	ret

008030f0 <alt_load>:
 * there is no bootloader, so this application is responsible for loading to
 * RAM any sections that are required.
 */  

void alt_load (void)
{
  8030f0:	defffe04 	addi	sp,sp,-8
  8030f4:	dfc00115 	stw	ra,4(sp)
  8030f8:	df000015 	stw	fp,0(sp)
  8030fc:	d839883a 	mov	fp,sp
  /* 
   * Copy the .rwdata section. 
   */

  alt_load_section (&__flash_rwdata_start, 
  803100:	01002074 	movhi	r4,129
  803104:	21060d04 	addi	r4,r4,6196
  803108:	01402074 	movhi	r5,129
  80310c:	297f3604 	addi	r5,r5,-808
  803110:	01802074 	movhi	r6,129
  803114:	31860d04 	addi	r6,r6,6196
  803118:	08031700 	call	803170 <alt_load_section>

  /*
   * Copy the exception handler.
   */

  alt_load_section (&__flash_exceptions_start, 
  80311c:	01002034 	movhi	r4,128
  803120:	21000004 	addi	r4,r4,0
  803124:	01404434 	movhi	r5,272
  803128:	29500804 	addi	r5,r5,16416
  80312c:	01804434 	movhi	r6,272
  803130:	31907004 	addi	r6,r6,16832
  803134:	08031700 	call	803170 <alt_load_section>

  /*
   * Copy the .rodata section.
   */

  alt_load_section (&__flash_rodata_start, 
  803138:	01002074 	movhi	r4,129
  80313c:	213e9f04 	addi	r4,r4,-1412
  803140:	01402074 	movhi	r5,129
  803144:	297e9f04 	addi	r5,r5,-1412
  803148:	01802074 	movhi	r6,129
  80314c:	31bf3604 	addi	r6,r6,-808
  803150:	08031700 	call	803170 <alt_load_section>
  
  /*
   * Now ensure that the caches are in synch.
   */
  
  alt_dcache_flush_all();
  803154:	080e3200 	call	80e320 <alt_dcache_flush_all>
  alt_icache_flush_all();
  803158:	080e5d40 	call	80e5d4 <alt_icache_flush_all>
}
  80315c:	e037883a 	mov	sp,fp
  803160:	dfc00117 	ldw	ra,4(sp)
  803164:	df000017 	ldw	fp,0(sp)
  803168:	dec00204 	addi	sp,sp,8
  80316c:	f800283a 	ret

00803170 <alt_load_section>:
 */

static void ALT_INLINE alt_load_section (alt_u32* from, 
                                         alt_u32* to, 
                                         alt_u32* end)
{
  803170:	defffc04 	addi	sp,sp,-16
  803174:	df000315 	stw	fp,12(sp)
  803178:	df000304 	addi	fp,sp,12
  80317c:	e13ffd15 	stw	r4,-12(fp)
  803180:	e17ffe15 	stw	r5,-8(fp)
  803184:	e1bfff15 	stw	r6,-4(fp)
  if (to != from)
  803188:	e0fffe17 	ldw	r3,-8(fp)
  80318c:	e0bffd17 	ldw	r2,-12(fp)
  803190:	18800e26 	beq	r3,r2,8031cc <alt_load_section+0x5c>
  {
    while( to != end )
  803194:	00000a06 	br	8031c0 <alt_load_section+0x50>
    {
      *to++ = *from++;
  803198:	e0bffd17 	ldw	r2,-12(fp)
  80319c:	10c00017 	ldw	r3,0(r2)
  8031a0:	e0bffe17 	ldw	r2,-8(fp)
  8031a4:	10c00015 	stw	r3,0(r2)
  8031a8:	e0bffe17 	ldw	r2,-8(fp)
  8031ac:	10800104 	addi	r2,r2,4
  8031b0:	e0bffe15 	stw	r2,-8(fp)
  8031b4:	e0bffd17 	ldw	r2,-12(fp)
  8031b8:	10800104 	addi	r2,r2,4
  8031bc:	e0bffd15 	stw	r2,-12(fp)
                                         alt_u32* to, 
                                         alt_u32* end)
{
  if (to != from)
  {
    while( to != end )
  8031c0:	e0fffe17 	ldw	r3,-8(fp)
  8031c4:	e0bfff17 	ldw	r2,-4(fp)
  8031c8:	18bff31e 	bne	r3,r2,803198 <alt_load_section+0x28>
    {
      *to++ = *from++;
    }
  }
}
  8031cc:	e037883a 	mov	sp,fp
  8031d0:	df000017 	ldw	fp,0(sp)
  8031d4:	dec00104 	addi	sp,sp,4
  8031d8:	f800283a 	ret

008031dc <lseek>:
 * ALT_LSEEK is mapped onto the lseek() system call in alt_syscall.h
 *
 */

off_t ALT_LSEEK (int file, off_t ptr, int dir)
{
  8031dc:	defff804 	addi	sp,sp,-32
  8031e0:	dfc00715 	stw	ra,28(sp)
  8031e4:	df000615 	stw	fp,24(sp)
  8031e8:	df000604 	addi	fp,sp,24
  8031ec:	e13ffc15 	stw	r4,-16(fp)
  8031f0:	e17ffd15 	stw	r5,-12(fp)
  8031f4:	e1bffe15 	stw	r6,-8(fp)
  alt_fd* fd;
  off_t   rc = 0; 
  8031f8:	e03ffa15 	stw	zero,-24(fp)
   * A common error case is that when the file descriptor was created, the call
   * to open() failed resulting in a negative file descriptor. This is trapped
   * below so that we don't try and process an invalid file descriptor.
   */

  fd = (file < 0) ? NULL : &alt_fd_list[file];
  8031fc:	e0bffc17 	ldw	r2,-16(fp)
  803200:	1004803a 	cmplt	r2,r2,zero
  803204:	1000081e 	bne	r2,zero,803228 <lseek+0x4c>
  803208:	e0bffc17 	ldw	r2,-16(fp)
  80320c:	10800324 	muli	r2,r2,12
  803210:	1007883a 	mov	r3,r2
  803214:	00802074 	movhi	r2,129
  803218:	10814204 	addi	r2,r2,1288
  80321c:	1887883a 	add	r3,r3,r2
  803220:	e0ffff15 	stw	r3,-4(fp)
  803224:	00000106 	br	80322c <lseek+0x50>
  803228:	e03fff15 	stw	zero,-4(fp)
  80322c:	e0bfff17 	ldw	r2,-4(fp)
  803230:	e0bffb15 	stw	r2,-20(fp)
  
  if (fd) 
  803234:	e0bffb17 	ldw	r2,-20(fp)
  803238:	1005003a 	cmpeq	r2,r2,zero
  80323c:	1000111e 	bne	r2,zero,803284 <lseek+0xa8>
    /*
     * If the device driver provides an implementation of the lseek() function,
     * then call that to process the request.
     */
 
    if (fd->dev->lseek)
  803240:	e0bffb17 	ldw	r2,-20(fp)
  803244:	10800017 	ldw	r2,0(r2)
  803248:	10800717 	ldw	r2,28(r2)
  80324c:	1005003a 	cmpeq	r2,r2,zero
  803250:	1000091e 	bne	r2,zero,803278 <lseek+0x9c>
    {
      rc = fd->dev->lseek(fd, ptr, dir);
  803254:	e0bffb17 	ldw	r2,-20(fp)
  803258:	10800017 	ldw	r2,0(r2)
  80325c:	10800717 	ldw	r2,28(r2)
  803260:	e13ffb17 	ldw	r4,-20(fp)
  803264:	e17ffd17 	ldw	r5,-12(fp)
  803268:	e1bffe17 	ldw	r6,-8(fp)
  80326c:	103ee83a 	callr	r2
  803270:	e0bffa15 	stw	r2,-24(fp)
  803274:	00000506 	br	80328c <lseek+0xb0>
     * Otherwise return an error.
     */

    else
    {
      rc = -ENOTSUP;
  803278:	00bfde84 	movi	r2,-134
  80327c:	e0bffa15 	stw	r2,-24(fp)
  803280:	00000206 	br	80328c <lseek+0xb0>
    }
  }
  else  
  {
    rc = -EBADFD;
  803284:	00bfebc4 	movi	r2,-81
  803288:	e0bffa15 	stw	r2,-24(fp)
  }

  if (rc < 0)
  80328c:	e0bffa17 	ldw	r2,-24(fp)
  803290:	1004403a 	cmpge	r2,r2,zero
  803294:	1000071e 	bne	r2,zero,8032b4 <lseek+0xd8>
  {
    ALT_ERRNO = -rc;
  803298:	08032cc0 	call	8032cc <alt_get_errno>
  80329c:	1007883a 	mov	r3,r2
  8032a0:	e0bffa17 	ldw	r2,-24(fp)
  8032a4:	0085c83a 	sub	r2,zero,r2
  8032a8:	18800015 	stw	r2,0(r3)
    rc = -1;
  8032ac:	00bfffc4 	movi	r2,-1
  8032b0:	e0bffa15 	stw	r2,-24(fp)
  }

  return rc;
  8032b4:	e0bffa17 	ldw	r2,-24(fp)
}
  8032b8:	e037883a 	mov	sp,fp
  8032bc:	dfc00117 	ldw	ra,4(sp)
  8032c0:	df000017 	ldw	fp,0(sp)
  8032c4:	dec00204 	addi	sp,sp,8
  8032c8:	f800283a 	ret

008032cc <alt_get_errno>:
#undef errno

extern int errno;

static ALT_INLINE int* alt_get_errno(void)
{
  8032cc:	defffd04 	addi	sp,sp,-12
  8032d0:	dfc00215 	stw	ra,8(sp)
  8032d4:	df000115 	stw	fp,4(sp)
  8032d8:	df000104 	addi	fp,sp,4
  return ((alt_errno) ? alt_errno() : &errno);
  8032dc:	00802074 	movhi	r2,129
  8032e0:	1085e904 	addi	r2,r2,6052
  8032e4:	10800017 	ldw	r2,0(r2)
  8032e8:	1005003a 	cmpeq	r2,r2,zero
  8032ec:	1000061e 	bne	r2,zero,803308 <alt_get_errno+0x3c>
  8032f0:	00802074 	movhi	r2,129
  8032f4:	1085e904 	addi	r2,r2,6052
  8032f8:	10800017 	ldw	r2,0(r2)
  8032fc:	103ee83a 	callr	r2
  803300:	e0bfff15 	stw	r2,-4(fp)
  803304:	00000306 	br	803314 <alt_get_errno+0x48>
  803308:	00802074 	movhi	r2,129
  80330c:	108ce704 	addi	r2,r2,13212
  803310:	e0bfff15 	stw	r2,-4(fp)
  803314:	e0bfff17 	ldw	r2,-4(fp)
}
  803318:	e037883a 	mov	sp,fp
  80331c:	dfc00117 	ldw	ra,4(sp)
  803320:	df000017 	ldw	fp,0(sp)
  803324:	dec00204 	addi	sp,sp,8
  803328:	f800283a 	ret

0080332c <alt_main>:
 * devices/filesystems/components in the system; and call the entry point for
 * the users application, i.e. main().
 */

void alt_main (void)
{
  80332c:	defffb04 	addi	sp,sp,-20
  803330:	dfc00415 	stw	ra,16(sp)
  803334:	df000315 	stw	fp,12(sp)
  803338:	df000304 	addi	fp,sp,12
#endif

  /* ALT LOG - please see HAL/sys/alt_log_printf.h for details */
  ALT_LOG_PRINT_BOOT("[alt_main.c] Entering alt_main, calling alt_irq_init.\r\n");
  /* Initialize the interrupt controller. */
  alt_irq_init (NULL);
  80333c:	0009883a 	mov	r4,zero
  803340:	080bdbc0 	call	80bdbc <alt_irq_init>

  /* Initialize the operating system */
  ALT_LOG_PRINT_BOOT("[alt_main.c] Done alt_irq_init, calling alt_os_init.\r\n");
  ALT_OS_INIT();
  803344:	08044180 	call	804418 <OSInit>
  803348:	01000044 	movi	r4,1
  80334c:	08092dc0 	call	8092dc <OSSemCreate>
  803350:	1007883a 	mov	r3,r2
  803354:	00802074 	movhi	r2,129
  803358:	108ced04 	addi	r2,r2,13236
  80335c:	10c00015 	stw	r3,0(r2)
  803360:	01000044 	movi	r4,1
  803364:	08092dc0 	call	8092dc <OSSemCreate>
  803368:	1007883a 	mov	r3,r2
  80336c:	00802074 	movhi	r2,129
  803370:	108cef04 	addi	r2,r2,13244
  803374:	10c00015 	stw	r3,0(r2)
  803378:	00802074 	movhi	r2,129
  80337c:	108ce804 	addi	r2,r2,13216
  803380:	e0bffd15 	stw	r2,-12(fp)
  803384:	00800044 	movi	r2,1
  803388:	e0bffe0d 	sth	r2,-8(fp)
 */

static ALT_INLINE int ALT_ALWAYS_INLINE alt_sem_create (OS_EVENT** sem, 
              INT16U value)
{
  *sem = OSSemCreate (value);
  80338c:	e13ffe0b 	ldhu	r4,-8(fp)
  803390:	08092dc0 	call	8092dc <OSSemCreate>
  803394:	1007883a 	mov	r3,r2
  803398:	e0bffd17 	ldw	r2,-12(fp)
  80339c:	10c00015 	stw	r3,0(r2)
  ALT_LOG_PRINT_BOOT("[alt_main.c] Done OS Init, calling alt_sem_create.\r\n");
  ALT_SEM_CREATE (&alt_fd_list_lock, 1);

  /* Initialize the device drivers/software components. */
  ALT_LOG_PRINT_BOOT("[alt_main.c] Calling alt_sys_init.\r\n");
  alt_sys_init();
  8033a0:	080bdf00 	call	80bdf0 <alt_sys_init>
   * devices be present (not equal to /dev/null) and if direct drivers
   * aren't being used.
   */

    ALT_LOG_PRINT_BOOT("[alt_main.c] Redirecting IO.\r\n");
    alt_io_redirect(ALT_STDOUT, ALT_STDIN, ALT_STDERR);
  8033a4:	01002074 	movhi	r4,129
  8033a8:	213ed104 	addi	r4,r4,-1212
  8033ac:	01402074 	movhi	r5,129
  8033b0:	297ed104 	addi	r5,r5,-1212
  8033b4:	01802074 	movhi	r6,129
  8033b8:	31bed104 	addi	r6,r6,-1212
  8033bc:	080e6c80 	call	80e6c8 <alt_io_redirect>
  /* 
   * Call the C++ constructors 
   */

  ALT_LOG_PRINT_BOOT("[alt_main.c] Calling C++ constructors.\r\n");
  _do_ctors ();
  8033c0:	080e4780 	call	80e478 <_do_ctors>
   * redefined as _exit()). This is in the interest of reducing code footprint,
   * in that the atexit() overhead is removed when it's not needed.
   */

  ALT_LOG_PRINT_BOOT("[alt_main.c] Calling atexit.\r\n");
  atexit (_do_dtors);
  8033c4:	01002074 	movhi	r4,129
  8033c8:	21393704 	addi	r4,r4,-6948
  8033cc:	080f5180 	call	80f518 <atexit>
  ALT_LOG_PRINT_BOOT("[alt_main.c] Calling main.\r\n");

#ifdef ALT_NO_EXIT
  main (alt_argc, alt_argv, alt_envp);
#else
  result = main (alt_argc, alt_argv, alt_envp);
  8033d0:	d1270917 	ldw	r4,-25564(gp)
  8033d4:	d1670a17 	ldw	r5,-25560(gp)
  8033d8:	d1a70b17 	ldw	r6,-25556(gp)
  8033dc:	08003980 	call	800398 <main>
  8033e0:	e0bfff15 	stw	r2,-4(fp)
  close(STDOUT_FILENO);
  8033e4:	01000044 	movi	r4,1
  8033e8:	0802d140 	call	802d14 <close>
  exit (result);
  8033ec:	e13fff17 	ldw	r4,-4(fp)
  8033f0:	080f52c0 	call	80f52c <exit>

008033f4 <read>:
}

#else /* !ALT_USE_DIRECT_DRIVERS */

int ALT_READ (int file, void *ptr, size_t len)
{
  8033f4:	defff704 	addi	sp,sp,-36
  8033f8:	dfc00815 	stw	ra,32(sp)
  8033fc:	df000715 	stw	fp,28(sp)
  803400:	df000704 	addi	fp,sp,28
  803404:	e13ffb15 	stw	r4,-20(fp)
  803408:	e17ffc15 	stw	r5,-16(fp)
  80340c:	e1bffd15 	stw	r6,-12(fp)
   * A common error case is that when the file descriptor was created, the call
   * to open() failed resulting in a negative file descriptor. This is trapped
   * below so that we don't try and process an invalid file descriptor.
   */

  fd = (file < 0) ? NULL : &alt_fd_list[file];
  803410:	e0bffb17 	ldw	r2,-20(fp)
  803414:	1004803a 	cmplt	r2,r2,zero
  803418:	1000081e 	bne	r2,zero,80343c <read+0x48>
  80341c:	e0bffb17 	ldw	r2,-20(fp)
  803420:	10800324 	muli	r2,r2,12
  803424:	1007883a 	mov	r3,r2
  803428:	00802074 	movhi	r2,129
  80342c:	10814204 	addi	r2,r2,1288
  803430:	1887883a 	add	r3,r3,r2
  803434:	e0ffff15 	stw	r3,-4(fp)
  803438:	00000106 	br	803440 <read+0x4c>
  80343c:	e03fff15 	stw	zero,-4(fp)
  803440:	e0bfff17 	ldw	r2,-4(fp)
  803444:	e0bffa15 	stw	r2,-24(fp)
  
  if (fd)
  803448:	e0bffa17 	ldw	r2,-24(fp)
  80344c:	1005003a 	cmpeq	r2,r2,zero
  803450:	1000241e 	bne	r2,zero,8034e4 <read+0xf0>
     * If the file has not been opened with read access, or if the driver does
     * not provide an implementation of read(), generate an error. Otherwise
     * call the drivers read() function to process the request.
     */

    if (((fd->fd_flags & O_ACCMODE) != O_WRONLY) && 
  803454:	e0bffa17 	ldw	r2,-24(fp)
  803458:	10800217 	ldw	r2,8(r2)
  80345c:	108000cc 	andi	r2,r2,3
  803460:	10800060 	cmpeqi	r2,r2,1
  803464:	10001a1e 	bne	r2,zero,8034d0 <read+0xdc>
  803468:	e0bffa17 	ldw	r2,-24(fp)
  80346c:	10800017 	ldw	r2,0(r2)
  803470:	10800517 	ldw	r2,20(r2)
  803474:	1005003a 	cmpeq	r2,r2,zero
  803478:	1000151e 	bne	r2,zero,8034d0 <read+0xdc>
        (fd->dev->read))
      {
        if ((rval = fd->dev->read(fd, ptr, len)) < 0)
  80347c:	e0bffa17 	ldw	r2,-24(fp)
  803480:	10800017 	ldw	r2,0(r2)
  803484:	10800517 	ldw	r2,20(r2)
  803488:	e17ffc17 	ldw	r5,-16(fp)
  80348c:	e1bffd17 	ldw	r6,-12(fp)
  803490:	e13ffa17 	ldw	r4,-24(fp)
  803494:	103ee83a 	callr	r2
  803498:	e0bff915 	stw	r2,-28(fp)
  80349c:	e0bff917 	ldw	r2,-28(fp)
  8034a0:	1004403a 	cmpge	r2,r2,zero
  8034a4:	1000071e 	bne	r2,zero,8034c4 <read+0xd0>
        {
          ALT_ERRNO = -rval;
  8034a8:	08035140 	call	803514 <alt_get_errno>
  8034ac:	e0fff917 	ldw	r3,-28(fp)
  8034b0:	00c7c83a 	sub	r3,zero,r3
  8034b4:	10c00015 	stw	r3,0(r2)
          return -1;
  8034b8:	00bfffc4 	movi	r2,-1
  8034bc:	e0bffe15 	stw	r2,-8(fp)
  8034c0:	00000e06 	br	8034fc <read+0x108>
        }
        return rval;
  8034c4:	e0bff917 	ldw	r2,-28(fp)
  8034c8:	e0bffe15 	stw	r2,-8(fp)
  8034cc:	00000b06 	br	8034fc <read+0x108>
      }
      else
      {
        ALT_ERRNO = EACCES;
  8034d0:	08035140 	call	803514 <alt_get_errno>
  8034d4:	1007883a 	mov	r3,r2
  8034d8:	00800344 	movi	r2,13
  8034dc:	18800015 	stw	r2,0(r3)
  8034e0:	00000406 	br	8034f4 <read+0x100>
      }
    }
  else
  {
    ALT_ERRNO = EBADFD;
  8034e4:	08035140 	call	803514 <alt_get_errno>
  8034e8:	1007883a 	mov	r3,r2
  8034ec:	00801444 	movi	r2,81
  8034f0:	18800015 	stw	r2,0(r3)
  }
  return -1;
  8034f4:	00bfffc4 	movi	r2,-1
  8034f8:	e0bffe15 	stw	r2,-8(fp)
  8034fc:	e0bffe17 	ldw	r2,-8(fp)
}
  803500:	e037883a 	mov	sp,fp
  803504:	dfc00117 	ldw	ra,4(sp)
  803508:	df000017 	ldw	fp,0(sp)
  80350c:	dec00204 	addi	sp,sp,8
  803510:	f800283a 	ret

00803514 <alt_get_errno>:
#undef errno

extern int errno;

static ALT_INLINE int* alt_get_errno(void)
{
  803514:	defffd04 	addi	sp,sp,-12
  803518:	dfc00215 	stw	ra,8(sp)
  80351c:	df000115 	stw	fp,4(sp)
  803520:	df000104 	addi	fp,sp,4
  return ((alt_errno) ? alt_errno() : &errno);
  803524:	00802074 	movhi	r2,129
  803528:	1085e904 	addi	r2,r2,6052
  80352c:	10800017 	ldw	r2,0(r2)
  803530:	1005003a 	cmpeq	r2,r2,zero
  803534:	1000061e 	bne	r2,zero,803550 <alt_get_errno+0x3c>
  803538:	00802074 	movhi	r2,129
  80353c:	1085e904 	addi	r2,r2,6052
  803540:	10800017 	ldw	r2,0(r2)
  803544:	103ee83a 	callr	r2
  803548:	e0bfff15 	stw	r2,-4(fp)
  80354c:	00000306 	br	80355c <alt_get_errno+0x48>
  803550:	00802074 	movhi	r2,129
  803554:	108ce704 	addi	r2,r2,13212
  803558:	e0bfff15 	stw	r2,-4(fp)
  80355c:	e0bfff17 	ldw	r2,-4(fp)
}
  803560:	e037883a 	mov	sp,fp
  803564:	dfc00117 	ldw	ra,4(sp)
  803568:	df000017 	ldw	fp,0(sp)
  80356c:	dec00204 	addi	sp,sp,8
  803570:	f800283a 	ret

00803574 <alt_release_fd>:
 * File descriptors correcponding to standard in, standard out and standard 
 * error cannont be released backed to the pool. They are always reserved.
 */

void alt_release_fd (int fd)
{
  803574:	defffe04 	addi	sp,sp,-8
  803578:	df000115 	stw	fp,4(sp)
  80357c:	df000104 	addi	fp,sp,4
  803580:	e13fff15 	stw	r4,-4(fp)
  if (fd > 2)
  803584:	e0bfff17 	ldw	r2,-4(fp)
  803588:	108000d0 	cmplti	r2,r2,3
  80358c:	10000d1e 	bne	r2,zero,8035c4 <alt_release_fd+0x50>
  {
    alt_fd_list[fd].fd_flags = 0;
  803590:	e0bfff17 	ldw	r2,-4(fp)
  803594:	00c02074 	movhi	r3,129
  803598:	18c14204 	addi	r3,r3,1288
  80359c:	10800324 	muli	r2,r2,12
  8035a0:	10c5883a 	add	r2,r2,r3
  8035a4:	10800204 	addi	r2,r2,8
  8035a8:	10000015 	stw	zero,0(r2)
    alt_fd_list[fd].dev      = 0;
  8035ac:	e0bfff17 	ldw	r2,-4(fp)
  8035b0:	00c02074 	movhi	r3,129
  8035b4:	18c14204 	addi	r3,r3,1288
  8035b8:	10800324 	muli	r2,r2,12
  8035bc:	10c5883a 	add	r2,r2,r3
  8035c0:	10000015 	stw	zero,0(r2)
  }
}
  8035c4:	e037883a 	mov	sp,fp
  8035c8:	df000017 	ldw	fp,0(sp)
  8035cc:	dec00104 	addi	sp,sp,4
  8035d0:	f800283a 	ret

008035d4 <sbrk>:
#endif
 
caddr_t ALT_SBRK (int incr) __attribute__ ((no_instrument_function ));

caddr_t ALT_SBRK (int incr)
{ 
  8035d4:	defff804 	addi	sp,sp,-32
  8035d8:	df000715 	stw	fp,28(sp)
  8035dc:	df000704 	addi	fp,sp,28
  8035e0:	e13ffe15 	stw	r4,-8(fp)
static ALT_INLINE alt_irq_context ALT_ALWAYS_INLINE 
       alt_irq_disable_all (void)
{
  alt_irq_context context;

  NIOS2_READ_STATUS (context);
  8035e4:	0005303a 	rdctl	r2,status
  8035e8:	e0bffb15 	stw	r2,-20(fp)

  NIOS2_WRITE_STATUS (context & ~NIOS2_STATUS_PIE_MSK);
  8035ec:	e0fffb17 	ldw	r3,-20(fp)
  8035f0:	00bfff84 	movi	r2,-2
  8035f4:	1884703a 	and	r2,r3,r2
  8035f8:	1001703a 	wrctl	status,r2
  
  return context;
  8035fc:	e0bffb17 	ldw	r2,-20(fp)
  alt_irq_context context;
  char *prev_heap_end; 

  context = alt_irq_disable_all();
  803600:	e0bffd15 	stw	r2,-12(fp)

  /* Always return data aligned on a word boundary */
  heap_end = (char *)(((unsigned int)heap_end + 3) & ~3);
  803604:	d0a00a17 	ldw	r2,-32728(gp)
  803608:	10c000c4 	addi	r3,r2,3
  80360c:	00bfff04 	movi	r2,-4
  803610:	1884703a 	and	r2,r3,r2
  803614:	d0a00a15 	stw	r2,-32728(gp)
  if (((heap_end + incr) - __alt_heap_start) > ALT_MAX_HEAP_BYTES) {
    alt_irq_enable_all(context);
    return (caddr_t)-1;
  }
#else
  if ((heap_end + incr) > __alt_heap_limit) {
  803618:	d0e00a17 	ldw	r3,-32728(gp)
  80361c:	e0bffe17 	ldw	r2,-8(fp)
  803620:	1887883a 	add	r3,r3,r2
  803624:	00804034 	movhi	r2,256
  803628:	10800004 	addi	r2,r2,0
  80362c:	10c0072e 	bgeu	r2,r3,80364c <sbrk+0x78>
  803630:	e0bffd17 	ldw	r2,-12(fp)
  803634:	e0bffa15 	stw	r2,-24(fp)
  status &= ~NIOS2_STATUS_PIE_MSK;
  status |= (context & NIOS2_STATUS_PIE_MSK);
  
  NIOS2_WRITE_STATUS (status);
#else
  NIOS2_WRITE_STATUS (context);
  803638:	e0bffa17 	ldw	r2,-24(fp)
  80363c:	1001703a 	wrctl	status,r2
    alt_irq_enable_all(context);
    return (caddr_t)-1;
  803640:	00bfffc4 	movi	r2,-1
  803644:	e0bfff15 	stw	r2,-4(fp)
  803648:	00000c06 	br	80367c <sbrk+0xa8>
  }
#endif

  prev_heap_end = heap_end; 
  80364c:	d0a00a17 	ldw	r2,-32728(gp)
  803650:	e0bffc15 	stw	r2,-16(fp)
  heap_end += incr; 
  803654:	d0e00a17 	ldw	r3,-32728(gp)
  803658:	e0bffe17 	ldw	r2,-8(fp)
  80365c:	1885883a 	add	r2,r3,r2
  803660:	d0a00a15 	stw	r2,-32728(gp)
  803664:	e0bffd17 	ldw	r2,-12(fp)
  803668:	e0bff915 	stw	r2,-28(fp)
  80366c:	e0bff917 	ldw	r2,-28(fp)
  803670:	1001703a 	wrctl	status,r2

#endif

  alt_irq_enable_all(context);

  return (caddr_t) prev_heap_end; 
  803674:	e0bffc17 	ldw	r2,-16(fp)
  803678:	e0bfff15 	stw	r2,-4(fp)
  80367c:	e0bfff17 	ldw	r2,-4(fp)
} 
  803680:	e037883a 	mov	sp,fp
  803684:	df000017 	ldw	fp,0(sp)
  803688:	dec00104 	addi	sp,sp,4
  80368c:	f800283a 	ret

00803690 <write>:
}

#else /* !ALT_USE_DIRECT_DRIVERS */

int ALT_WRITE (int file, const void *ptr, size_t len)
{
  803690:	defff704 	addi	sp,sp,-36
  803694:	dfc00815 	stw	ra,32(sp)
  803698:	df000715 	stw	fp,28(sp)
  80369c:	df000704 	addi	fp,sp,28
  8036a0:	e13ffb15 	stw	r4,-20(fp)
  8036a4:	e17ffc15 	stw	r5,-16(fp)
  8036a8:	e1bffd15 	stw	r6,-12(fp)
   * A common error case is that when the file descriptor was created, the call
   * to open() failed resulting in a negative file descriptor. This is trapped
   * below so that we don't try and process an invalid file descriptor.
   */

  fd = (file < 0) ? NULL : &alt_fd_list[file];
  8036ac:	e0bffb17 	ldw	r2,-20(fp)
  8036b0:	1004803a 	cmplt	r2,r2,zero
  8036b4:	1000081e 	bne	r2,zero,8036d8 <write+0x48>
  8036b8:	e0bffb17 	ldw	r2,-20(fp)
  8036bc:	10800324 	muli	r2,r2,12
  8036c0:	1007883a 	mov	r3,r2
  8036c4:	00802074 	movhi	r2,129
  8036c8:	10814204 	addi	r2,r2,1288
  8036cc:	1887883a 	add	r3,r3,r2
  8036d0:	e0ffff15 	stw	r3,-4(fp)
  8036d4:	00000106 	br	8036dc <write+0x4c>
  8036d8:	e03fff15 	stw	zero,-4(fp)
  8036dc:	e0bfff17 	ldw	r2,-4(fp)
  8036e0:	e0bffa15 	stw	r2,-24(fp)
  
  if (fd)
  8036e4:	e0bffa17 	ldw	r2,-24(fp)
  8036e8:	1005003a 	cmpeq	r2,r2,zero
  8036ec:	1000241e 	bne	r2,zero,803780 <write+0xf0>
     * If the file has not been opened with write access, or if the driver does
     * not provide an implementation of write(), generate an error. Otherwise
     * call the drivers write() function to process the request.
     */

    if (((fd->fd_flags & O_ACCMODE) != O_RDONLY) && fd->dev->write)
  8036f0:	e0bffa17 	ldw	r2,-24(fp)
  8036f4:	10800217 	ldw	r2,8(r2)
  8036f8:	108000cc 	andi	r2,r2,3
  8036fc:	1005003a 	cmpeq	r2,r2,zero
  803700:	10001a1e 	bne	r2,zero,80376c <write+0xdc>
  803704:	e0bffa17 	ldw	r2,-24(fp)
  803708:	10800017 	ldw	r2,0(r2)
  80370c:	10800617 	ldw	r2,24(r2)
  803710:	1005003a 	cmpeq	r2,r2,zero
  803714:	1000151e 	bne	r2,zero,80376c <write+0xdc>
    {
      
      /* ALT_LOG - see altera_hal/HAL/inc/sys/alt_log_printf.h */
      ALT_LOG_WRITE_FUNCTION(ptr,len);

      if ((rval = fd->dev->write(fd, ptr, len)) < 0)
  803718:	e0bffa17 	ldw	r2,-24(fp)
  80371c:	10800017 	ldw	r2,0(r2)
  803720:	10800617 	ldw	r2,24(r2)
  803724:	e17ffc17 	ldw	r5,-16(fp)
  803728:	e1bffd17 	ldw	r6,-12(fp)
  80372c:	e13ffa17 	ldw	r4,-24(fp)
  803730:	103ee83a 	callr	r2
  803734:	e0bff915 	stw	r2,-28(fp)
  803738:	e0bff917 	ldw	r2,-28(fp)
  80373c:	1004403a 	cmpge	r2,r2,zero
  803740:	1000071e 	bne	r2,zero,803760 <write+0xd0>
      {
        ALT_ERRNO = -rval;
  803744:	08037b00 	call	8037b0 <alt_get_errno>
  803748:	e0fff917 	ldw	r3,-28(fp)
  80374c:	00c7c83a 	sub	r3,zero,r3
  803750:	10c00015 	stw	r3,0(r2)
        return -1;
  803754:	00bfffc4 	movi	r2,-1
  803758:	e0bffe15 	stw	r2,-8(fp)
  80375c:	00000e06 	br	803798 <write+0x108>
      }
      return rval;
  803760:	e0bff917 	ldw	r2,-28(fp)
  803764:	e0bffe15 	stw	r2,-8(fp)
  803768:	00000b06 	br	803798 <write+0x108>
    }
    else
    {
      ALT_ERRNO = EACCES;
  80376c:	08037b00 	call	8037b0 <alt_get_errno>
  803770:	1007883a 	mov	r3,r2
  803774:	00800344 	movi	r2,13
  803778:	18800015 	stw	r2,0(r3)
  80377c:	00000406 	br	803790 <write+0x100>
    }
  }
  else  
  {
    ALT_ERRNO = EBADFD;
  803780:	08037b00 	call	8037b0 <alt_get_errno>
  803784:	1007883a 	mov	r3,r2
  803788:	00801444 	movi	r2,81
  80378c:	18800015 	stw	r2,0(r3)
  }
  return -1;
  803790:	00bfffc4 	movi	r2,-1
  803794:	e0bffe15 	stw	r2,-8(fp)
  803798:	e0bffe17 	ldw	r2,-8(fp)
}
  80379c:	e037883a 	mov	sp,fp
  8037a0:	dfc00117 	ldw	ra,4(sp)
  8037a4:	df000017 	ldw	fp,0(sp)
  8037a8:	dec00204 	addi	sp,sp,8
  8037ac:	f800283a 	ret

008037b0 <alt_get_errno>:
#undef errno

extern int errno;

static ALT_INLINE int* alt_get_errno(void)
{
  8037b0:	defffd04 	addi	sp,sp,-12
  8037b4:	dfc00215 	stw	ra,8(sp)
  8037b8:	df000115 	stw	fp,4(sp)
  8037bc:	df000104 	addi	fp,sp,4
  return ((alt_errno) ? alt_errno() : &errno);
  8037c0:	00802074 	movhi	r2,129
  8037c4:	1085e904 	addi	r2,r2,6052
  8037c8:	10800017 	ldw	r2,0(r2)
  8037cc:	1005003a 	cmpeq	r2,r2,zero
  8037d0:	1000061e 	bne	r2,zero,8037ec <alt_get_errno+0x3c>
  8037d4:	00802074 	movhi	r2,129
  8037d8:	1085e904 	addi	r2,r2,6052
  8037dc:	10800017 	ldw	r2,0(r2)
  8037e0:	103ee83a 	callr	r2
  8037e4:	e0bfff15 	stw	r2,-4(fp)
  8037e8:	00000306 	br	8037f8 <alt_get_errno+0x48>
  8037ec:	00802074 	movhi	r2,129
  8037f0:	108ce704 	addi	r2,r2,13212
  8037f4:	e0bfff15 	stw	r2,-4(fp)
  8037f8:	e0bfff17 	ldw	r2,-4(fp)
}
  8037fc:	e037883a 	mov	sp,fp
  803800:	dfc00117 	ldw	ra,4(sp)
  803804:	df000017 	ldw	fp,0(sp)
  803808:	dec00204 	addi	sp,sp,8
  80380c:	f800283a 	ret

00803810 <__env_lock>:
/*
 *
 */

void __env_lock ( struct _reent *_r )
{
  803810:	deffdf04 	addi	sp,sp,-132
  803814:	dfc02015 	stw	ra,128(sp)
  803818:	df001f15 	stw	fp,124(sp)
  80381c:	df001f04 	addi	fp,sp,124
  803820:	e13fff15 	stw	r4,-4(fp)
  INT8U err;
  int id;

  /* use our priority as a task id */

  err = OSTaskQuery( OS_PRIO_SELF, &tcb );
  803824:	e17fe204 	addi	r5,fp,-120
  803828:	01003fc4 	movi	r4,255
  80382c:	080b6640 	call	80b664 <OSTaskQuery>
  803830:	e0bffe85 	stb	r2,-6(fp)
  if (err != OS_NO_ERR)
  803834:	e0bffe83 	ldbu	r2,-6(fp)
  803838:	10803fcc 	andi	r2,r2,255
  80383c:	1004c03a 	cmpne	r2,r2,zero
  803840:	1000191e 	bne	r2,zero,8038a8 <__env_lock+0x98>
    return;

  id = tcb.OSTCBPrio;
  803844:	e0bfee83 	ldbu	r2,-70(fp)
  803848:	10803fcc 	andi	r2,r2,255
  80384c:	e0bfe115 	stw	r2,-124(fp)
   
  /* see if we own the environment already */

  OSSemQuery( alt_envsem, &semdata );
  803850:	d1270d17 	ldw	r4,-25548(gp)
  803854:	e17ffd04 	addi	r5,fp,-12
  803858:	0809bb00 	call	809bb0 <OSSemQuery>
  if( semdata.OSEventGrp && id == lockid ) 
  80385c:	e0bffe43 	ldbu	r2,-7(fp)
  803860:	10803fcc 	andi	r2,r2,255
  803864:	1005003a 	cmpeq	r2,r2,zero
  803868:	1000071e 	bne	r2,zero,803888 <__env_lock+0x78>
  80386c:	d0e00b17 	ldw	r3,-32724(gp)
  803870:	e0bfe117 	ldw	r2,-124(fp)
  803874:	10c0041e 	bne	r2,r3,803888 <__env_lock+0x78>
  {
    /* we do; just count the recursion */

    locks++;
  803878:	d0a70c17 	ldw	r2,-25552(gp)
  80387c:	10800044 	addi	r2,r2,1
  803880:	d0a70c15 	stw	r2,-25552(gp)
  id = tcb.OSTCBPrio;
   
  /* see if we own the environment already */

  OSSemQuery( alt_envsem, &semdata );
  if( semdata.OSEventGrp && id == lockid ) 
  803884:	00000806 	br	8038a8 <__env_lock+0x98>
  }
  else 
  {
    /* wait on the other task to yield, then claim ownership */

    OSSemPend( alt_envsem, 0, &err );
  803888:	d1270d17 	ldw	r4,-25548(gp)
  80388c:	e1bffe84 	addi	r6,fp,-6
  803890:	000b883a 	mov	r5,zero
  803894:	08096900 	call	809690 <OSSemPend>
    locks  = 1;
  803898:	00800044 	movi	r2,1
  80389c:	d0a70c15 	stw	r2,-25552(gp)
    lockid = id;
  8038a0:	e0bfe117 	ldw	r2,-124(fp)
  8038a4:	d0a00b15 	stw	r2,-32724(gp)
  }

#endif /* OS_THREAD_SAFE_NEWLIB */
  return;
}
  8038a8:	e037883a 	mov	sp,fp
  8038ac:	dfc00117 	ldw	ra,4(sp)
  8038b0:	df000017 	ldw	fp,0(sp)
  8038b4:	dec00204 	addi	sp,sp,8
  8038b8:	f800283a 	ret

008038bc <__env_unlock>:
/*
 *
 */

void __env_unlock ( struct _reent *_r )
{
  8038bc:	defffd04 	addi	sp,sp,-12
  8038c0:	dfc00215 	stw	ra,8(sp)
  8038c4:	df000115 	stw	fp,4(sp)
  8038c8:	df000104 	addi	fp,sp,4
  8038cc:	e13fff15 	stw	r4,-4(fp)
#if OS_THREAD_SAFE_NEWLIB
  if (locks == 0)
  8038d0:	d0a70c17 	ldw	r2,-25552(gp)
  8038d4:	1005003a 	cmpeq	r2,r2,zero
  8038d8:	10000a1e 	bne	r2,zero,803904 <__env_unlock+0x48>
   /* 
    * release the environment once the number of locks == the number 
    * of unlocks 
    */

  if( (--locks) == 0 ) 
  8038dc:	d0a70c17 	ldw	r2,-25552(gp)
  8038e0:	10bfffc4 	addi	r2,r2,-1
  8038e4:	d0a70c15 	stw	r2,-25552(gp)
  8038e8:	d0a70c17 	ldw	r2,-25552(gp)
  8038ec:	1004c03a 	cmpne	r2,r2,zero
  8038f0:	1000041e 	bne	r2,zero,803904 <__env_unlock+0x48>
  {
    lockid = -1;
  8038f4:	00bfffc4 	movi	r2,-1
  8038f8:	d0a00b15 	stw	r2,-32724(gp)
    OSSemPost( alt_envsem );
  8038fc:	d1270d17 	ldw	r4,-25548(gp)
  803900:	0809a880 	call	809a88 <OSSemPost>
  }
#endif /* OS_THREAD_SAFE_NEWLIB */
}
  803904:	e037883a 	mov	sp,fp
  803908:	dfc00117 	ldw	ra,4(sp)
  80390c:	df000017 	ldw	fp,0(sp)
  803910:	dec00204 	addi	sp,sp,8
  803914:	f800283a 	ret

00803918 <__malloc_lock>:
/*
 *
 */

void __malloc_lock ( struct _reent *_r )
{
  803918:	deffdb04 	addi	sp,sp,-148
  80391c:	dfc02415 	stw	ra,144(sp)
  803920:	df002315 	stw	fp,140(sp)
  803924:	df002304 	addi	fp,sp,140
  803928:	e13fff15 	stw	r4,-4(fp)
  OS_TCB tcb;
  OS_SEM_DATA semdata;
  INT8U err;
  int id;
#if OS_CRITICAL_METHOD == 3                      /* Allocate storage for CPU status register           */
    OS_CPU_SR  cpu_sr = 0;
  80392c:	e03fe015 	stw	zero,-128(fp)
#endif  
  
  if (OSRunning != OS_TRUE)
  803930:	00802074 	movhi	r2,129
  803934:	108cf044 	addi	r2,r2,13249
  803938:	10800003 	ldbu	r2,0(r2)
  80393c:	10803fcc 	andi	r2,r2,255
  803940:	10800058 	cmpnei	r2,r2,1
  803944:	1000311e 	bne	r2,zero,803a0c <__malloc_lock+0xf4>
      return;

  /* use our priority as a task id */

  err = OSTaskQuery( OS_PRIO_SELF, &tcb );
  803948:	e17fe204 	addi	r5,fp,-120
  80394c:	01003fc4 	movi	r4,255
  803950:	080b6640 	call	80b664 <OSTaskQuery>
  803954:	e0bffe85 	stb	r2,-6(fp)
  if (err != OS_NO_ERR)
  803958:	e0bffe83 	ldbu	r2,-6(fp)
  80395c:	10803fcc 	andi	r2,r2,255
  803960:	1004c03a 	cmpne	r2,r2,zero
  803964:	1000291e 	bne	r2,zero,803a0c <__malloc_lock+0xf4>
    return;

  id = tcb.OSTCBPrio;
  803968:	e0bfee83 	ldbu	r2,-70(fp)
  80396c:	10803fcc 	andi	r2,r2,255
  803970:	e0bfe115 	stw	r2,-124(fp)
   
  /* see if we own the heap already */

  OSSemQuery( alt_heapsem, &semdata );
  803974:	d1270f17 	ldw	r4,-25540(gp)
  803978:	e17ffd04 	addi	r5,fp,-12
  80397c:	0809bb00 	call	809bb0 <OSSemQuery>
static ALT_INLINE alt_irq_context ALT_ALWAYS_INLINE 
       alt_irq_disable_all (void)
{
  alt_irq_context context;

  NIOS2_READ_STATUS (context);
  803980:	0005303a 	rdctl	r2,status
  803984:	e0bfdf15 	stw	r2,-132(fp)

  NIOS2_WRITE_STATUS (context & ~NIOS2_STATUS_PIE_MSK);
  803988:	e0ffdf17 	ldw	r3,-132(fp)
  80398c:	00bfff84 	movi	r2,-2
  803990:	1884703a 	and	r2,r3,r2
  803994:	1001703a 	wrctl	status,r2
  
  return context;
  803998:	e0bfdf17 	ldw	r2,-132(fp)
  
  OS_ENTER_CRITICAL();
  80399c:	e0bfe015 	stw	r2,-128(fp)

  if( !semdata.OSCnt && id == lockid ) 
  8039a0:	e0bffd0b 	ldhu	r2,-12(fp)
  8039a4:	10bfffcc 	andi	r2,r2,65535
  8039a8:	1004c03a 	cmpne	r2,r2,zero
  8039ac:	10000b1e 	bne	r2,zero,8039dc <__malloc_lock+0xc4>
  8039b0:	d0e00c17 	ldw	r3,-32720(gp)
  8039b4:	e0bfe117 	ldw	r2,-124(fp)
  8039b8:	10c0081e 	bne	r2,r3,8039dc <__malloc_lock+0xc4>
  {
    /* we do; just count the recursion */
    locks++;
  8039bc:	d0a70e17 	ldw	r2,-25544(gp)
  8039c0:	10800044 	addi	r2,r2,1
  8039c4:	d0a70e15 	stw	r2,-25544(gp)
  8039c8:	e0bfe017 	ldw	r2,-128(fp)
  8039cc:	e0bfde15 	stw	r2,-136(fp)
  status &= ~NIOS2_STATUS_PIE_MSK;
  status |= (context & NIOS2_STATUS_PIE_MSK);
  
  NIOS2_WRITE_STATUS (status);
#else
  NIOS2_WRITE_STATUS (context);
  8039d0:	e0bfde17 	ldw	r2,-136(fp)
  8039d4:	1001703a 	wrctl	status,r2

  OSSemQuery( alt_heapsem, &semdata );
  
  OS_ENTER_CRITICAL();

  if( !semdata.OSCnt && id == lockid ) 
  8039d8:	00000c06 	br	803a0c <__malloc_lock+0xf4>
  8039dc:	e0bfe017 	ldw	r2,-128(fp)
  8039e0:	e0bfdd15 	stw	r2,-140(fp)
  8039e4:	e0bfdd17 	ldw	r2,-140(fp)
  8039e8:	1001703a 	wrctl	status,r2
  else 
  {
    /* wait on the other task to yield the heap, then claim ownership of it */
    OS_EXIT_CRITICAL();

    OSSemPend( alt_heapsem, 0, &err );
  8039ec:	d1270f17 	ldw	r4,-25540(gp)
  8039f0:	e1bffe84 	addi	r6,fp,-6
  8039f4:	000b883a 	mov	r5,zero
  8039f8:	08096900 	call	809690 <OSSemPend>
    locks  = 1;
  8039fc:	00800044 	movi	r2,1
  803a00:	d0a70e15 	stw	r2,-25544(gp)
    lockid = id;
  803a04:	e0bfe117 	ldw	r2,-124(fp)
  803a08:	d0a00c15 	stw	r2,-32720(gp)
  }

#endif /* OS_THREAD_SAFE_NEWLIB */
  return;
}
  803a0c:	e037883a 	mov	sp,fp
  803a10:	dfc00117 	ldw	ra,4(sp)
  803a14:	df000017 	ldw	fp,0(sp)
  803a18:	dec00204 	addi	sp,sp,8
  803a1c:	f800283a 	ret

00803a20 <__malloc_unlock>:
/*
 *
 */

void __malloc_unlock ( struct _reent *_r )
{
  803a20:	defff804 	addi	sp,sp,-32
  803a24:	dfc00715 	stw	ra,28(sp)
  803a28:	df000615 	stw	fp,24(sp)
  803a2c:	df000604 	addi	fp,sp,24
  803a30:	e13fff15 	stw	r4,-4(fp)
#if OS_THREAD_SAFE_NEWLIB

#if OS_CRITICAL_METHOD == 3                      /* Allocate storage for CPU status register           */
    OS_CPU_SR  cpu_sr = 0;
  803a34:	e03ffe15 	stw	zero,-8(fp)
#endif 

  if (OSRunning != OS_TRUE)
  803a38:	00802074 	movhi	r2,129
  803a3c:	108cf044 	addi	r2,r2,13249
  803a40:	10800003 	ldbu	r2,0(r2)
  803a44:	10803fcc 	andi	r2,r2,255
  803a48:	10800058 	cmpnei	r2,r2,1
  803a4c:	1000231e 	bne	r2,zero,803adc <__malloc_unlock+0xbc>
static ALT_INLINE alt_irq_context ALT_ALWAYS_INLINE 
       alt_irq_disable_all (void)
{
  alt_irq_context context;

  NIOS2_READ_STATUS (context);
  803a50:	0005303a 	rdctl	r2,status
  803a54:	e0bffd15 	stw	r2,-12(fp)

  NIOS2_WRITE_STATUS (context & ~NIOS2_STATUS_PIE_MSK);
  803a58:	e0fffd17 	ldw	r3,-12(fp)
  803a5c:	00bfff84 	movi	r2,-2
  803a60:	1884703a 	and	r2,r3,r2
  803a64:	1001703a 	wrctl	status,r2
  
  return context;
  803a68:	e0bffd17 	ldw	r2,-12(fp)
      return;

  OS_ENTER_CRITICAL();
  803a6c:	e0bffe15 	stw	r2,-8(fp)
  if (locks == 0)
  803a70:	d0a70e17 	ldw	r2,-25544(gp)
  803a74:	1004c03a 	cmpne	r2,r2,zero
  803a78:	1000051e 	bne	r2,zero,803a90 <__malloc_unlock+0x70>
  803a7c:	e0bffe17 	ldw	r2,-8(fp)
  803a80:	e0bffc15 	stw	r2,-16(fp)
  status &= ~NIOS2_STATUS_PIE_MSK;
  status |= (context & NIOS2_STATUS_PIE_MSK);
  
  NIOS2_WRITE_STATUS (status);
#else
  NIOS2_WRITE_STATUS (context);
  803a84:	e0bffc17 	ldw	r2,-16(fp)
  803a88:	1001703a 	wrctl	status,r2
  {
      OS_EXIT_CRITICAL();
      return;
  803a8c:	00001306 	br	803adc <__malloc_unlock+0xbc>
  }

  /* release the heap once the number of locks == the number of unlocks */
  if( (--locks) == 0 ) 
  803a90:	d0a70e17 	ldw	r2,-25544(gp)
  803a94:	10bfffc4 	addi	r2,r2,-1
  803a98:	d0a70e15 	stw	r2,-25544(gp)
  803a9c:	d0a70e17 	ldw	r2,-25544(gp)
  803aa0:	1004c03a 	cmpne	r2,r2,zero
  803aa4:	1000091e 	bne	r2,zero,803acc <__malloc_unlock+0xac>
  {
    lockid = -1;
  803aa8:	00bfffc4 	movi	r2,-1
  803aac:	d0a00c15 	stw	r2,-32720(gp)
  803ab0:	e0bffe17 	ldw	r2,-8(fp)
  803ab4:	e0bffb15 	stw	r2,-20(fp)
  803ab8:	e0bffb17 	ldw	r2,-20(fp)
  803abc:	1001703a 	wrctl	status,r2
    OS_EXIT_CRITICAL();
    OSSemPost( alt_heapsem );
  803ac0:	d1270f17 	ldw	r4,-25540(gp)
  803ac4:	0809a880 	call	809a88 <OSSemPost>
  803ac8:	00000406 	br	803adc <__malloc_unlock+0xbc>
  803acc:	e0bffe17 	ldw	r2,-8(fp)
  803ad0:	e0bffa15 	stw	r2,-24(fp)
  803ad4:	e0bffa17 	ldw	r2,-24(fp)
  803ad8:	1001703a 	wrctl	status,r2
  {
      OS_EXIT_CRITICAL();
  }
  
#endif /* OS_THREAD_SAFE_NEWLIB */
}
  803adc:	e037883a 	mov	sp,fp
  803ae0:	dfc00117 	ldw	ra,4(sp)
  803ae4:	df000017 	ldw	fp,0(sp)
  803ae8:	dec00204 	addi	sp,sp,8
  803aec:	f800283a 	ret

00803af0 <OSEventNameGet>:
*********************************************************************************************************
*/

#if (OS_EVENT_EN) && (OS_EVENT_NAME_SIZE > 1)
INT8U  OSEventNameGet (OS_EVENT *pevent, INT8U *pname, INT8U *perr)
{
  803af0:	defff604 	addi	sp,sp,-40
  803af4:	dfc00915 	stw	ra,36(sp)
  803af8:	df000815 	stw	fp,32(sp)
  803afc:	df000804 	addi	fp,sp,32
  803b00:	e13ffc15 	stw	r4,-16(fp)
  803b04:	e17ffd15 	stw	r5,-12(fp)
  803b08:	e1bffe15 	stw	r6,-8(fp)
    INT8U      len;
#if OS_CRITICAL_METHOD == 3                      /* Allocate storage for CPU status register           */
    OS_CPU_SR  cpu_sr = 0;
  803b0c:	e03ffa15 	stw	zero,-24(fp)
#endif



#if OS_ARG_CHK_EN > 0
    if (perr == (INT8U *)0) {                    /* Validate 'perr'                                    */
  803b10:	e0bffe17 	ldw	r2,-8(fp)
  803b14:	1004c03a 	cmpne	r2,r2,zero
  803b18:	1000021e 	bne	r2,zero,803b24 <OSEventNameGet+0x34>
        return (0);
  803b1c:	e03fff15 	stw	zero,-4(fp)
  803b20:	00003906 	br	803c08 <OSEventNameGet+0x118>
    }
    if (pevent == (OS_EVENT *)0) {               /* Is 'pevent' a NULL pointer?                        */
  803b24:	e0bffc17 	ldw	r2,-16(fp)
  803b28:	1004c03a 	cmpne	r2,r2,zero
  803b2c:	1000051e 	bne	r2,zero,803b44 <OSEventNameGet+0x54>
        *perr = OS_ERR_PEVENT_NULL;
  803b30:	e0fffe17 	ldw	r3,-8(fp)
  803b34:	00800104 	movi	r2,4
  803b38:	18800005 	stb	r2,0(r3)
        return (0);
  803b3c:	e03fff15 	stw	zero,-4(fp)
  803b40:	00003106 	br	803c08 <OSEventNameGet+0x118>
    }
    if (pname == (INT8U *)0) {                   /* Is 'pname' a NULL pointer?                         */
  803b44:	e0bffd17 	ldw	r2,-12(fp)
  803b48:	1004c03a 	cmpne	r2,r2,zero
  803b4c:	1000051e 	bne	r2,zero,803b64 <OSEventNameGet+0x74>
        *perr = OS_ERR_PNAME_NULL;
  803b50:	e0fffe17 	ldw	r3,-8(fp)
  803b54:	00800304 	movi	r2,12
  803b58:	18800005 	stb	r2,0(r3)
        return (0);
  803b5c:	e03fff15 	stw	zero,-4(fp)
  803b60:	00002906 	br	803c08 <OSEventNameGet+0x118>
    }
#endif
    if (OSIntNesting > 0) {                      /* See if trying to call from an ISR                  */
  803b64:	d0a71e03 	ldbu	r2,-25480(gp)
  803b68:	10803fcc 	andi	r2,r2,255
  803b6c:	1005003a 	cmpeq	r2,r2,zero
  803b70:	1000051e 	bne	r2,zero,803b88 <OSEventNameGet+0x98>
        *perr  = OS_ERR_NAME_GET_ISR;
  803b74:	e0fffe17 	ldw	r3,-8(fp)
  803b78:	00800444 	movi	r2,17
  803b7c:	18800005 	stb	r2,0(r3)
        return (0);
  803b80:	e03fff15 	stw	zero,-4(fp)
  803b84:	00002006 	br	803c08 <OSEventNameGet+0x118>
    }
    switch (pevent->OSEventType) {
  803b88:	e0bffc17 	ldw	r2,-16(fp)
  803b8c:	10800003 	ldbu	r2,0(r2)
  803b90:	10803fcc 	andi	r2,r2,255
  803b94:	10bfffc4 	addi	r2,r2,-1
  803b98:	10800128 	cmpgeui	r2,r2,4
  803b9c:	1000161e 	bne	r2,zero,803bf8 <OSEventNameGet+0x108>
static ALT_INLINE alt_irq_context ALT_ALWAYS_INLINE 
       alt_irq_disable_all (void)
{
  alt_irq_context context;

  NIOS2_READ_STATUS (context);
  803ba0:	0005303a 	rdctl	r2,status
  803ba4:	e0bff915 	stw	r2,-28(fp)

  NIOS2_WRITE_STATUS (context & ~NIOS2_STATUS_PIE_MSK);
  803ba8:	e0fff917 	ldw	r3,-28(fp)
  803bac:	00bfff84 	movi	r2,-2
  803bb0:	1884703a 	and	r2,r3,r2
  803bb4:	1001703a 	wrctl	status,r2
  
  return context;
  803bb8:	e0bff917 	ldw	r2,-28(fp)

        default:
             *perr = OS_ERR_EVENT_TYPE;
             return (0);
    }
    OS_ENTER_CRITICAL();
  803bbc:	e0bffa15 	stw	r2,-24(fp)
    len   = OS_StrCopy(pname, pevent->OSEventName);   /* Copy name from OS_EVENT                       */
  803bc0:	e0bffc17 	ldw	r2,-16(fp)
  803bc4:	11400384 	addi	r5,r2,14
  803bc8:	e13ffd17 	ldw	r4,-12(fp)
  803bcc:	08056740 	call	805674 <OS_StrCopy>
  803bd0:	e0bffb05 	stb	r2,-20(fp)
  803bd4:	e0bffa17 	ldw	r2,-24(fp)
  803bd8:	e0bff815 	stw	r2,-32(fp)
  status &= ~NIOS2_STATUS_PIE_MSK;
  status |= (context & NIOS2_STATUS_PIE_MSK);
  
  NIOS2_WRITE_STATUS (status);
#else
  NIOS2_WRITE_STATUS (context);
  803bdc:	e0bff817 	ldw	r2,-32(fp)
  803be0:	1001703a 	wrctl	status,r2
    OS_EXIT_CRITICAL();
    *perr = OS_ERR_NONE;
  803be4:	e0bffe17 	ldw	r2,-8(fp)
  803be8:	10000005 	stb	zero,0(r2)
    return (len);
  803bec:	e0bffb03 	ldbu	r2,-20(fp)
  803bf0:	e0bfff15 	stw	r2,-4(fp)
  803bf4:	00000406 	br	803c08 <OSEventNameGet+0x118>
        case OS_EVENT_TYPE_MBOX:
        case OS_EVENT_TYPE_Q:
             break;

        default:
             *perr = OS_ERR_EVENT_TYPE;
  803bf8:	e0fffe17 	ldw	r3,-8(fp)
  803bfc:	00800044 	movi	r2,1
  803c00:	18800005 	stb	r2,0(r3)
             return (0);
  803c04:	e03fff15 	stw	zero,-4(fp)
  803c08:	e0bfff17 	ldw	r2,-4(fp)
    OS_ENTER_CRITICAL();
    len   = OS_StrCopy(pname, pevent->OSEventName);   /* Copy name from OS_EVENT                       */
    OS_EXIT_CRITICAL();
    *perr = OS_ERR_NONE;
    return (len);
}
  803c0c:	e037883a 	mov	sp,fp
  803c10:	dfc00117 	ldw	ra,4(sp)
  803c14:	df000017 	ldw	fp,0(sp)
  803c18:	dec00204 	addi	sp,sp,8
  803c1c:	f800283a 	ret

00803c20 <OSEventNameSet>:
*********************************************************************************************************
*/

#if (OS_EVENT_EN) && (OS_EVENT_NAME_SIZE > 1)
void  OSEventNameSet (OS_EVENT *pevent, INT8U *pname, INT8U *perr)
{
  803c20:	defff604 	addi	sp,sp,-40
  803c24:	dfc00915 	stw	ra,36(sp)
  803c28:	df000815 	stw	fp,32(sp)
  803c2c:	df000804 	addi	fp,sp,32
  803c30:	e13ffd15 	stw	r4,-12(fp)
  803c34:	e17ffe15 	stw	r5,-8(fp)
  803c38:	e1bfff15 	stw	r6,-4(fp)
    INT8U      len;
#if OS_CRITICAL_METHOD == 3                      /* Allocate storage for CPU status register           */
    OS_CPU_SR  cpu_sr = 0;
  803c3c:	e03ffb15 	stw	zero,-20(fp)
#endif



#if OS_ARG_CHK_EN > 0
    if (perr == (INT8U *)0) {                    /* Validate 'perr'                                    */
  803c40:	e0bfff17 	ldw	r2,-4(fp)
  803c44:	1005003a 	cmpeq	r2,r2,zero
  803c48:	1000411e 	bne	r2,zero,803d50 <OSEventNameSet+0x130>
        return;
    }
    if (pevent == (OS_EVENT *)0) {               /* Is 'pevent' a NULL pointer?                        */
  803c4c:	e0bffd17 	ldw	r2,-12(fp)
  803c50:	1004c03a 	cmpne	r2,r2,zero
  803c54:	1000041e 	bne	r2,zero,803c68 <OSEventNameSet+0x48>
        *perr = OS_ERR_PEVENT_NULL;
  803c58:	e0ffff17 	ldw	r3,-4(fp)
  803c5c:	00800104 	movi	r2,4
  803c60:	18800005 	stb	r2,0(r3)
        return;
  803c64:	00003a06 	br	803d50 <OSEventNameSet+0x130>
    }
    if (pname == (INT8U *)0) {                   /* Is 'pname' a NULL pointer?                         */
  803c68:	e0bffe17 	ldw	r2,-8(fp)
  803c6c:	1004c03a 	cmpne	r2,r2,zero
  803c70:	1000041e 	bne	r2,zero,803c84 <OSEventNameSet+0x64>
        *perr = OS_ERR_PNAME_NULL;
  803c74:	e0ffff17 	ldw	r3,-4(fp)
  803c78:	00800304 	movi	r2,12
  803c7c:	18800005 	stb	r2,0(r3)
        return;
  803c80:	00003306 	br	803d50 <OSEventNameSet+0x130>
    }
#endif
    if (OSIntNesting > 0) {                      /* See if trying to call from an ISR                  */
  803c84:	d0a71e03 	ldbu	r2,-25480(gp)
  803c88:	10803fcc 	andi	r2,r2,255
  803c8c:	1005003a 	cmpeq	r2,r2,zero
  803c90:	1000041e 	bne	r2,zero,803ca4 <OSEventNameSet+0x84>
        *perr = OS_ERR_NAME_SET_ISR;
  803c94:	e0ffff17 	ldw	r3,-4(fp)
  803c98:	00800484 	movi	r2,18
  803c9c:	18800005 	stb	r2,0(r3)
        return;
  803ca0:	00002b06 	br	803d50 <OSEventNameSet+0x130>
    }
    switch (pevent->OSEventType) {
  803ca4:	e0bffd17 	ldw	r2,-12(fp)
  803ca8:	10800003 	ldbu	r2,0(r2)
  803cac:	10803fcc 	andi	r2,r2,255
  803cb0:	10bfffc4 	addi	r2,r2,-1
  803cb4:	10800128 	cmpgeui	r2,r2,4
  803cb8:	10000f1e 	bne	r2,zero,803cf8 <OSEventNameSet+0xd8>
static ALT_INLINE alt_irq_context ALT_ALWAYS_INLINE 
       alt_irq_disable_all (void)
{
  alt_irq_context context;

  NIOS2_READ_STATUS (context);
  803cbc:	0005303a 	rdctl	r2,status
  803cc0:	e0bffa15 	stw	r2,-24(fp)

  NIOS2_WRITE_STATUS (context & ~NIOS2_STATUS_PIE_MSK);
  803cc4:	e0fffa17 	ldw	r3,-24(fp)
  803cc8:	00bfff84 	movi	r2,-2
  803ccc:	1884703a 	and	r2,r3,r2
  803cd0:	1001703a 	wrctl	status,r2
  
  return context;
  803cd4:	e0bffa17 	ldw	r2,-24(fp)

        default:
             *perr = OS_ERR_EVENT_TYPE;
             return;
    }
    OS_ENTER_CRITICAL();
  803cd8:	e0bffb15 	stw	r2,-20(fp)
    len = OS_StrLen(pname);                           /* Can we fit the string in the storage area?    */
  803cdc:	e13ffe17 	ldw	r4,-8(fp)
  803ce0:	08056f40 	call	8056f4 <OS_StrLen>
  803ce4:	e0bffc05 	stb	r2,-16(fp)
    if (len > (OS_EVENT_NAME_SIZE - 1)) {             /* No                                            */
  803ce8:	e0bffc03 	ldbu	r2,-16(fp)
  803cec:	10800828 	cmpgeui	r2,r2,32
  803cf0:	1000051e 	bne	r2,zero,803d08 <OSEventNameSet+0xe8>
  803cf4:	00000c06 	br	803d28 <OSEventNameSet+0x108>
        case OS_EVENT_TYPE_MBOX:
        case OS_EVENT_TYPE_Q:
             break;

        default:
             *perr = OS_ERR_EVENT_TYPE;
  803cf8:	e0ffff17 	ldw	r3,-4(fp)
  803cfc:	00800044 	movi	r2,1
  803d00:	18800005 	stb	r2,0(r3)
             return;
  803d04:	00001206 	br	803d50 <OSEventNameSet+0x130>
  803d08:	e0bffb17 	ldw	r2,-20(fp)
  803d0c:	e0bff915 	stw	r2,-28(fp)
  status &= ~NIOS2_STATUS_PIE_MSK;
  status |= (context & NIOS2_STATUS_PIE_MSK);
  
  NIOS2_WRITE_STATUS (status);
#else
  NIOS2_WRITE_STATUS (context);
  803d10:	e0bff917 	ldw	r2,-28(fp)
  803d14:	1001703a 	wrctl	status,r2
    }
    OS_ENTER_CRITICAL();
    len = OS_StrLen(pname);                           /* Can we fit the string in the storage area?    */
    if (len > (OS_EVENT_NAME_SIZE - 1)) {             /* No                                            */
        OS_EXIT_CRITICAL();
        *perr = OS_ERR_EVENT_NAME_TOO_LONG;
  803d18:	e0ffff17 	ldw	r3,-4(fp)
  803d1c:	008002c4 	movi	r2,11
  803d20:	18800005 	stb	r2,0(r3)
        return;
  803d24:	00000a06 	br	803d50 <OSEventNameSet+0x130>
    }
    (void)OS_StrCopy(pevent->OSEventName, pname);     /* Yes, copy name to the event control block     */
  803d28:	e0bffd17 	ldw	r2,-12(fp)
  803d2c:	11000384 	addi	r4,r2,14
  803d30:	e17ffe17 	ldw	r5,-8(fp)
  803d34:	08056740 	call	805674 <OS_StrCopy>
  803d38:	e0bffb17 	ldw	r2,-20(fp)
  803d3c:	e0bff815 	stw	r2,-32(fp)
  803d40:	e0bff817 	ldw	r2,-32(fp)
  803d44:	1001703a 	wrctl	status,r2
    OS_EXIT_CRITICAL();
    *perr = OS_ERR_NONE;
  803d48:	e0bfff17 	ldw	r2,-4(fp)
  803d4c:	10000005 	stb	zero,0(r2)
}
  803d50:	e037883a 	mov	sp,fp
  803d54:	dfc00117 	ldw	ra,4(sp)
  803d58:	df000017 	ldw	fp,0(sp)
  803d5c:	dec00204 	addi	sp,sp,8
  803d60:	f800283a 	ret

00803d64 <OSEventPendMulti>:
*********************************************************************************************************
*/
/*$PAGE*/
#if ((OS_EVENT_EN) && (OS_EVENT_MULTI_EN > 0))
INT16U  OSEventPendMulti (OS_EVENT **pevents_pend, OS_EVENT **pevents_rdy, void **pmsgs_rdy, INT16U timeout, INT8U *perr)
{
  803d64:	deffe704 	addi	sp,sp,-100
  803d68:	dfc01815 	stw	ra,96(sp)
  803d6c:	df001715 	stw	fp,92(sp)
  803d70:	df001704 	addi	fp,sp,92
  803d74:	e13ff615 	stw	r4,-40(fp)
  803d78:	e17ff715 	stw	r5,-36(fp)
  803d7c:	e1bff815 	stw	r6,-32(fp)
  803d80:	e1fff90d 	sth	r7,-28(fp)
#endif
    BOOLEAN     events_rdy;
    INT16U      events_rdy_nbr;
    INT8U       events_stat;
#if (OS_CRITICAL_METHOD == 3)                           /* Allocate storage for CPU status register    */
    OS_CPU_SR   cpu_sr = 0;
  803d84:	e03ff015 	stw	zero,-64(fp)
#endif



#if (OS_ARG_CHK_EN > 0)
    if (perr == (INT8U *)0) {                           /* Validate 'perr'                             */
  803d88:	e0800217 	ldw	r2,8(fp)
  803d8c:	1004c03a 	cmpne	r2,r2,zero
  803d90:	1000021e 	bne	r2,zero,803d9c <OSEventPendMulti+0x38>
        return (0);
  803d94:	e03fff15 	stw	zero,-4(fp)
  803d98:	00019906 	br	804400 <OSEventPendMulti+0x69c>
    }
    if (pevents_pend == (OS_EVENT **)0) {               /* Validate 'pevents_pend'                     */
  803d9c:	e0bff617 	ldw	r2,-40(fp)
  803da0:	1004c03a 	cmpne	r2,r2,zero
  803da4:	1000051e 	bne	r2,zero,803dbc <OSEventPendMulti+0x58>
       *perr =  OS_ERR_PEVENT_NULL;
  803da8:	e0c00217 	ldw	r3,8(fp)
  803dac:	00800104 	movi	r2,4
  803db0:	18800005 	stb	r2,0(r3)
        return (0);
  803db4:	e03fff15 	stw	zero,-4(fp)
  803db8:	00019106 	br	804400 <OSEventPendMulti+0x69c>
    }
    if (pevents_rdy  == (OS_EVENT **)0) {               /* Validate 'pevents_rdy'                      */
  803dbc:	e0bff717 	ldw	r2,-36(fp)
  803dc0:	1004c03a 	cmpne	r2,r2,zero
  803dc4:	1000051e 	bne	r2,zero,803ddc <OSEventPendMulti+0x78>
       *perr =  OS_ERR_PEVENT_NULL;
  803dc8:	e0c00217 	ldw	r3,8(fp)
  803dcc:	00800104 	movi	r2,4
  803dd0:	18800005 	stb	r2,0(r3)
        return (0);
  803dd4:	e03fff15 	stw	zero,-4(fp)
  803dd8:	00018906 	br	804400 <OSEventPendMulti+0x69c>
    }
    if (pmsgs_rdy == (void **)0) {                      /* Validate 'pmsgs_rdy'                        */
  803ddc:	e0bff817 	ldw	r2,-32(fp)
  803de0:	1004c03a 	cmpne	r2,r2,zero
  803de4:	1000051e 	bne	r2,zero,803dfc <OSEventPendMulti+0x98>
       *perr =  OS_ERR_PEVENT_NULL;
  803de8:	e0c00217 	ldw	r3,8(fp)
  803dec:	00800104 	movi	r2,4
  803df0:	18800005 	stb	r2,0(r3)
        return (0);
  803df4:	e03fff15 	stw	zero,-4(fp)
  803df8:	00018106 	br	804400 <OSEventPendMulti+0x69c>
    }
#endif

   *pevents_rdy = (OS_EVENT *)0;                        /* Init array to NULL in case of errors        */
  803dfc:	e0bff717 	ldw	r2,-36(fp)
  803e00:	10000015 	stw	zero,0(r2)

    pevents     =  pevents_pend;
  803e04:	e0bff617 	ldw	r2,-40(fp)
  803e08:	e0bff515 	stw	r2,-44(fp)
    pevent      = *pevents;
  803e0c:	e0bff517 	ldw	r2,-44(fp)
  803e10:	10800017 	ldw	r2,0(r2)
  803e14:	e0bff415 	stw	r2,-48(fp)
    while  (pevent != (OS_EVENT *)0) {
  803e18:	00001806 	br	803e7c <OSEventPendMulti+0x118>
        switch (pevent->OSEventType) {                  /* Validate event block types                  */
  803e1c:	e0bff417 	ldw	r2,-48(fp)
  803e20:	10800003 	ldbu	r2,0(r2)
  803e24:	10803fcc 	andi	r2,r2,255
  803e28:	e0bffe15 	stw	r2,-8(fp)
  803e2c:	e0fffe17 	ldw	r3,-8(fp)
  803e30:	188000a0 	cmpeqi	r2,r3,2
  803e34:	10000b1e 	bne	r2,zero,803e64 <OSEventPendMulti+0x100>
  803e38:	e0fffe17 	ldw	r3,-8(fp)
  803e3c:	188000e0 	cmpeqi	r2,r3,3
  803e40:	1000081e 	bne	r2,zero,803e64 <OSEventPendMulti+0x100>
  803e44:	e0fffe17 	ldw	r3,-8(fp)
  803e48:	18800060 	cmpeqi	r2,r3,1
  803e4c:	1000051e 	bne	r2,zero,803e64 <OSEventPendMulti+0x100>
#endif

            case OS_EVENT_TYPE_MUTEX:                                            
            case OS_EVENT_TYPE_FLAG:
            default:           
                *perr = OS_ERR_EVENT_TYPE;
  803e50:	e0c00217 	ldw	r3,8(fp)
  803e54:	00800044 	movi	r2,1
  803e58:	18800005 	stb	r2,0(r3)
                 return (0);
  803e5c:	e03fff15 	stw	zero,-4(fp)
  803e60:	00016706 	br	804400 <OSEventPendMulti+0x69c>
        }
        pevents++;
  803e64:	e0bff517 	ldw	r2,-44(fp)
  803e68:	10800104 	addi	r2,r2,4
  803e6c:	e0bff515 	stw	r2,-44(fp)
        pevent = *pevents;
  803e70:	e0bff517 	ldw	r2,-44(fp)
  803e74:	10800017 	ldw	r2,0(r2)
  803e78:	e0bff415 	stw	r2,-48(fp)

   *pevents_rdy = (OS_EVENT *)0;                        /* Init array to NULL in case of errors        */

    pevents     =  pevents_pend;
    pevent      = *pevents;
    while  (pevent != (OS_EVENT *)0) {
  803e7c:	e0bff417 	ldw	r2,-48(fp)
  803e80:	1004c03a 	cmpne	r2,r2,zero
  803e84:	103fe51e 	bne	r2,zero,803e1c <OSEventPendMulti+0xb8>
        }
        pevents++;
        pevent = *pevents;
    }

    if (OSIntNesting  > 0) {                            /* See if called from ISR ...                  */
  803e88:	d0a71e03 	ldbu	r2,-25480(gp)
  803e8c:	10803fcc 	andi	r2,r2,255
  803e90:	1005003a 	cmpeq	r2,r2,zero
  803e94:	1000051e 	bne	r2,zero,803eac <OSEventPendMulti+0x148>
       *perr =  OS_ERR_PEND_ISR;                        /* ... can't PEND from an ISR                  */
  803e98:	e0c00217 	ldw	r3,8(fp)
  803e9c:	00800084 	movi	r2,2
  803ea0:	18800005 	stb	r2,0(r3)
        return (0);
  803ea4:	e03fff15 	stw	zero,-4(fp)
  803ea8:	00015506 	br	804400 <OSEventPendMulti+0x69c>
    }
    if (OSLockNesting > 0) {                            /* See if called with scheduler locked ...     */
  803eac:	d0a71003 	ldbu	r2,-25536(gp)
  803eb0:	10803fcc 	andi	r2,r2,255
  803eb4:	1005003a 	cmpeq	r2,r2,zero
  803eb8:	1000051e 	bne	r2,zero,803ed0 <OSEventPendMulti+0x16c>
       *perr =  OS_ERR_PEND_LOCKED;                     /* ... can't PEND when locked                  */
  803ebc:	e0c00217 	ldw	r3,8(fp)
  803ec0:	00800344 	movi	r2,13
  803ec4:	18800005 	stb	r2,0(r3)
        return (0);
  803ec8:	e03fff15 	stw	zero,-4(fp)
  803ecc:	00014c06 	br	804400 <OSEventPendMulti+0x69c>
static ALT_INLINE alt_irq_context ALT_ALWAYS_INLINE 
       alt_irq_disable_all (void)
{
  alt_irq_context context;

  NIOS2_READ_STATUS (context);
  803ed0:	0005303a 	rdctl	r2,status
  803ed4:	e0bfef15 	stw	r2,-68(fp)

  NIOS2_WRITE_STATUS (context & ~NIOS2_STATUS_PIE_MSK);
  803ed8:	e0ffef17 	ldw	r3,-68(fp)
  803edc:	00bfff84 	movi	r2,-2
  803ee0:	1884703a 	and	r2,r3,r2
  803ee4:	1001703a 	wrctl	status,r2
  
  return context;
  803ee8:	e0bfef17 	ldw	r2,-68(fp)
    }

/*$PAGE*/
    OS_ENTER_CRITICAL();
  803eec:	e0bff015 	stw	r2,-64(fp)
    events_rdy     =  OS_FALSE;
  803ef0:	e03ff205 	stb	zero,-56(fp)
    events_rdy_nbr =  0;
  803ef4:	e03ff18d 	sth	zero,-58(fp)
    events_stat    =  OS_STAT_RDY;
  803ef8:	e03ff105 	stb	zero,-60(fp)
    pevents        =  pevents_pend;
  803efc:	e0bff617 	ldw	r2,-40(fp)
  803f00:	e0bff515 	stw	r2,-44(fp)
    pevent         = *pevents;
  803f04:	e0bff517 	ldw	r2,-44(fp)
  803f08:	10800017 	ldw	r2,0(r2)
  803f0c:	e0bff415 	stw	r2,-48(fp)
    while (pevent != (OS_EVENT *)0) {                   /* See if any events already available         */
  803f10:	00008f06 	br	804150 <OSEventPendMulti+0x3ec>
        switch (pevent->OSEventType) {
  803f14:	e0bff417 	ldw	r2,-48(fp)
  803f18:	10800003 	ldbu	r2,0(r2)
  803f1c:	10803fcc 	andi	r2,r2,255
  803f20:	e0bffd15 	stw	r2,-12(fp)
  803f24:	e0fffd17 	ldw	r3,-12(fp)
  803f28:	188000a0 	cmpeqi	r2,r3,2
  803f2c:	1000441e 	bne	r2,zero,804040 <OSEventPendMulti+0x2dc>
  803f30:	e0fffd17 	ldw	r3,-12(fp)
  803f34:	188000e0 	cmpeqi	r2,r3,3
  803f38:	1000041e 	bne	r2,zero,803f4c <OSEventPendMulti+0x1e8>
  803f3c:	e0fffd17 	ldw	r3,-12(fp)
  803f40:	18800060 	cmpeqi	r2,r3,1
  803f44:	1000211e 	bne	r2,zero,803fcc <OSEventPendMulti+0x268>
  803f48:	00006f06 	br	804108 <OSEventPendMulti+0x3a4>
#if (OS_SEM_EN > 0)
            case OS_EVENT_TYPE_SEM:
                 if (pevent->OSEventCnt > 0) {          /* If semaphore count > 0, resource available; */
  803f4c:	e0bff417 	ldw	r2,-48(fp)
  803f50:	1080020b 	ldhu	r2,8(r2)
  803f54:	10bfffcc 	andi	r2,r2,65535
  803f58:	1005003a 	cmpeq	r2,r2,zero
  803f5c:	1000171e 	bne	r2,zero,803fbc <OSEventPendMulti+0x258>
                     pevent->OSEventCnt--;              /* ... decrement semaphore,                ... */
  803f60:	e0bff417 	ldw	r2,-48(fp)
  803f64:	1080020b 	ldhu	r2,8(r2)
  803f68:	10bfffc4 	addi	r2,r2,-1
  803f6c:	1007883a 	mov	r3,r2
  803f70:	e0bff417 	ldw	r2,-48(fp)
  803f74:	10c0020d 	sth	r3,8(r2)
                    *pevents_rdy++ =  pevent;           /* ... and return available semaphore event    */
  803f78:	e0fff717 	ldw	r3,-36(fp)
  803f7c:	e0bff417 	ldw	r2,-48(fp)
  803f80:	18800015 	stw	r2,0(r3)
  803f84:	e0bff717 	ldw	r2,-36(fp)
  803f88:	10800104 	addi	r2,r2,4
  803f8c:	e0bff715 	stw	r2,-36(fp)
                      events_rdy   =  OS_TRUE;
  803f90:	00800044 	movi	r2,1
  803f94:	e0bff205 	stb	r2,-56(fp)
                    *pmsgs_rdy++   = (void *)0;         /* NO message returned  for semaphores         */
  803f98:	e0bff817 	ldw	r2,-32(fp)
  803f9c:	10000015 	stw	zero,0(r2)
  803fa0:	e0bff817 	ldw	r2,-32(fp)
  803fa4:	10800104 	addi	r2,r2,4
  803fa8:	e0bff815 	stw	r2,-32(fp)
                      events_rdy_nbr++;
  803fac:	e0bff18b 	ldhu	r2,-58(fp)
  803fb0:	10800044 	addi	r2,r2,1
  803fb4:	e0bff18d 	sth	r2,-58(fp)
  803fb8:	00005f06 	br	804138 <OSEventPendMulti+0x3d4>

                 } else {
                      events_stat |=  OS_STAT_SEM;      /* Configure multi-pend for semaphore events   */
  803fbc:	e0bff103 	ldbu	r2,-60(fp)
  803fc0:	10800054 	ori	r2,r2,1
  803fc4:	e0bff105 	stb	r2,-60(fp)
                 }
                 break;
  803fc8:	00005b06 	br	804138 <OSEventPendMulti+0x3d4>
#endif

#if (OS_MBOX_EN > 0)
            case OS_EVENT_TYPE_MBOX:
                 if (pevent->OSEventPtr != (void *)0) { /* If mailbox NOT empty;                   ... */
  803fcc:	e0bff417 	ldw	r2,-48(fp)
  803fd0:	10800117 	ldw	r2,4(r2)
  803fd4:	1005003a 	cmpeq	r2,r2,zero
  803fd8:	1000151e 	bne	r2,zero,804030 <OSEventPendMulti+0x2cc>
                                                        /* ... return available message,           ... */
                    *pmsgs_rdy++         = (void *)pevent->OSEventPtr;
  803fdc:	e0bff417 	ldw	r2,-48(fp)
  803fe0:	10c00117 	ldw	r3,4(r2)
  803fe4:	e0bff817 	ldw	r2,-32(fp)
  803fe8:	10c00015 	stw	r3,0(r2)
  803fec:	e0bff817 	ldw	r2,-32(fp)
  803ff0:	10800104 	addi	r2,r2,4
  803ff4:	e0bff815 	stw	r2,-32(fp)
                     pevent->OSEventPtr  = (void *)0;
  803ff8:	e0bff417 	ldw	r2,-48(fp)
  803ffc:	10000115 	stw	zero,4(r2)
                    *pevents_rdy++       =  pevent;     /* ... and return available mailbox event      */
  804000:	e0fff717 	ldw	r3,-36(fp)
  804004:	e0bff417 	ldw	r2,-48(fp)
  804008:	18800015 	stw	r2,0(r3)
  80400c:	e0bff717 	ldw	r2,-36(fp)
  804010:	10800104 	addi	r2,r2,4
  804014:	e0bff715 	stw	r2,-36(fp)
                      events_rdy         =  OS_TRUE;
  804018:	00800044 	movi	r2,1
  80401c:	e0bff205 	stb	r2,-56(fp)
                      events_rdy_nbr++;
  804020:	e0bff18b 	ldhu	r2,-58(fp)
  804024:	10800044 	addi	r2,r2,1
  804028:	e0bff18d 	sth	r2,-58(fp)
  80402c:	00004206 	br	804138 <OSEventPendMulti+0x3d4>

                 } else {
                      events_stat |= OS_STAT_MBOX;      /* Configure multi-pend for mailbox events     */
  804030:	e0bff103 	ldbu	r2,-60(fp)
  804034:	10800094 	ori	r2,r2,2
  804038:	e0bff105 	stb	r2,-60(fp)
                 }
                 break;
  80403c:	00003e06 	br	804138 <OSEventPendMulti+0x3d4>
#endif

#if ((OS_Q_EN > 0) && (OS_MAX_QS > 0))
            case OS_EVENT_TYPE_Q:
                 pq = (OS_Q *)pevent->OSEventPtr;
  804040:	e0bff417 	ldw	r2,-48(fp)
  804044:	10800117 	ldw	r2,4(r2)
  804048:	e0bff315 	stw	r2,-52(fp)
                 if (pq->OSQEntries > 0) {              /* If queue NOT empty;                     ... */
  80404c:	e0bff317 	ldw	r2,-52(fp)
  804050:	1080058b 	ldhu	r2,22(r2)
  804054:	10bfffcc 	andi	r2,r2,65535
  804058:	1005003a 	cmpeq	r2,r2,zero
  80405c:	1000261e 	bne	r2,zero,8040f8 <OSEventPendMulti+0x394>
                                                        /* ... return available message,           ... */
                    *pmsgs_rdy++ = (void *)*pq->OSQOut++;
  804060:	e0bff317 	ldw	r2,-52(fp)
  804064:	11000417 	ldw	r4,16(r2)
  804068:	20c00017 	ldw	r3,0(r4)
  80406c:	e0bff817 	ldw	r2,-32(fp)
  804070:	10c00015 	stw	r3,0(r2)
  804074:	e0bff817 	ldw	r2,-32(fp)
  804078:	10800104 	addi	r2,r2,4
  80407c:	e0bff815 	stw	r2,-32(fp)
  804080:	20c00104 	addi	r3,r4,4
  804084:	e0bff317 	ldw	r2,-52(fp)
  804088:	10c00415 	stw	r3,16(r2)
                     if (pq->OSQOut == pq->OSQEnd) {    /* If OUT ptr at queue end, ...                */
  80408c:	e0bff317 	ldw	r2,-52(fp)
  804090:	10c00417 	ldw	r3,16(r2)
  804094:	e0bff317 	ldw	r2,-52(fp)
  804098:	10800217 	ldw	r2,8(r2)
  80409c:	1880041e 	bne	r3,r2,8040b0 <OSEventPendMulti+0x34c>
                         pq->OSQOut  = pq->OSQStart;    /* ... wrap   to queue start                   */
  8040a0:	e0bff317 	ldw	r2,-52(fp)
  8040a4:	10c00117 	ldw	r3,4(r2)
  8040a8:	e0bff317 	ldw	r2,-52(fp)
  8040ac:	10c00415 	stw	r3,16(r2)
                     }
                     pq->OSQEntries--;                  /* Update number of queue entries              */
  8040b0:	e0bff317 	ldw	r2,-52(fp)
  8040b4:	1080058b 	ldhu	r2,22(r2)
  8040b8:	10bfffc4 	addi	r2,r2,-1
  8040bc:	1007883a 	mov	r3,r2
  8040c0:	e0bff317 	ldw	r2,-52(fp)
  8040c4:	10c0058d 	sth	r3,22(r2)
                    *pevents_rdy++ = pevent;            /* ... and return available queue event        */
  8040c8:	e0fff717 	ldw	r3,-36(fp)
  8040cc:	e0bff417 	ldw	r2,-48(fp)
  8040d0:	18800015 	stw	r2,0(r3)
  8040d4:	e0bff717 	ldw	r2,-36(fp)
  8040d8:	10800104 	addi	r2,r2,4
  8040dc:	e0bff715 	stw	r2,-36(fp)
                      events_rdy   = OS_TRUE;
  8040e0:	00800044 	movi	r2,1
  8040e4:	e0bff205 	stb	r2,-56(fp)
                      events_rdy_nbr++;
  8040e8:	e0bff18b 	ldhu	r2,-58(fp)
  8040ec:	10800044 	addi	r2,r2,1
  8040f0:	e0bff18d 	sth	r2,-58(fp)
  8040f4:	00001006 	br	804138 <OSEventPendMulti+0x3d4>

                 } else {
                      events_stat |= OS_STAT_Q;         /* Configure multi-pend for queue events       */
  8040f8:	e0bff103 	ldbu	r2,-60(fp)
  8040fc:	10800114 	ori	r2,r2,4
  804100:	e0bff105 	stb	r2,-60(fp)
                 }
                 break;
  804104:	00000c06 	br	804138 <OSEventPendMulti+0x3d4>
  804108:	e0bff017 	ldw	r2,-64(fp)
  80410c:	e0bfee15 	stw	r2,-72(fp)
  status &= ~NIOS2_STATUS_PIE_MSK;
  status |= (context & NIOS2_STATUS_PIE_MSK);
  
  NIOS2_WRITE_STATUS (status);
#else
  NIOS2_WRITE_STATUS (context);
  804110:	e0bfee17 	ldw	r2,-72(fp)
  804114:	1001703a 	wrctl	status,r2

            case OS_EVENT_TYPE_MUTEX:                                            
            case OS_EVENT_TYPE_FLAG:
            default:           
                 OS_EXIT_CRITICAL();
                *pevents_rdy = (OS_EVENT *)0;           /* NULL terminate return event array           */
  804118:	e0bff717 	ldw	r2,-36(fp)
  80411c:	10000015 	stw	zero,0(r2)
                *perr        =  OS_ERR_EVENT_TYPE;
  804120:	e0c00217 	ldw	r3,8(fp)
  804124:	00800044 	movi	r2,1
  804128:	18800005 	stb	r2,0(r3)
                 return (events_rdy_nbr);
  80412c:	e0bff18b 	ldhu	r2,-58(fp)
  804130:	e0bfff15 	stw	r2,-4(fp)
  804134:	0000b206 	br	804400 <OSEventPendMulti+0x69c>
        }
        pevents++;
  804138:	e0bff517 	ldw	r2,-44(fp)
  80413c:	10800104 	addi	r2,r2,4
  804140:	e0bff515 	stw	r2,-44(fp)
        pevent = *pevents;
  804144:	e0bff517 	ldw	r2,-44(fp)
  804148:	10800017 	ldw	r2,0(r2)
  80414c:	e0bff415 	stw	r2,-48(fp)
    events_rdy     =  OS_FALSE;
    events_rdy_nbr =  0;
    events_stat    =  OS_STAT_RDY;
    pevents        =  pevents_pend;
    pevent         = *pevents;
    while (pevent != (OS_EVENT *)0) {                   /* See if any events already available         */
  804150:	e0bff417 	ldw	r2,-48(fp)
  804154:	1004c03a 	cmpne	r2,r2,zero
  804158:	103f6e1e 	bne	r2,zero,803f14 <OSEventPendMulti+0x1b0>
        }
        pevents++;
        pevent = *pevents;
    }

    if ( events_rdy == OS_TRUE) {                       /* Return any events already available         */
  80415c:	e0bff203 	ldbu	r2,-56(fp)
  804160:	10800058 	cmpnei	r2,r2,1
  804164:	10000b1e 	bne	r2,zero,804194 <OSEventPendMulti+0x430>
       *pevents_rdy = (OS_EVENT *)0;                    /* NULL terminate return event array           */
  804168:	e0bff717 	ldw	r2,-36(fp)
  80416c:	10000015 	stw	zero,0(r2)
  804170:	e0bff017 	ldw	r2,-64(fp)
  804174:	e0bfed15 	stw	r2,-76(fp)
  804178:	e0bfed17 	ldw	r2,-76(fp)
  80417c:	1001703a 	wrctl	status,r2
        OS_EXIT_CRITICAL();
       *perr        =  OS_ERR_NONE;
  804180:	e0800217 	ldw	r2,8(fp)
  804184:	10000005 	stb	zero,0(r2)
        return (events_rdy_nbr);
  804188:	e0fff18b 	ldhu	r3,-58(fp)
  80418c:	e0ffff15 	stw	r3,-4(fp)
  804190:	00009b06 	br	804400 <OSEventPendMulti+0x69c>
    }
/*$PAGE*/
                                                        /* Otherwise, must wait until any event occurs */
    OSTCBCur->OSTCBStat     |= events_stat  |           /* Resource not available, ...                 */
  804194:	d1271f17 	ldw	r4,-25476(gp)
  804198:	d0a71f17 	ldw	r2,-25476(gp)
  80419c:	10c00c03 	ldbu	r3,48(r2)
  8041a0:	e0bff103 	ldbu	r2,-60(fp)
  8041a4:	1884b03a 	or	r2,r3,r2
  8041a8:	1007883a 	mov	r3,r2
  8041ac:	00bfe004 	movi	r2,-128
  8041b0:	1884b03a 	or	r2,r3,r2
  8041b4:	20800c05 	stb	r2,48(r4)
                               OS_STAT_MULTI;           /* ... pend on multiple events                 */
    OSTCBCur->OSTCBStatPend  = OS_STAT_PEND_OK;
  8041b8:	d0a71f17 	ldw	r2,-25476(gp)
  8041bc:	10000c45 	stb	zero,49(r2)
    OSTCBCur->OSTCBDly       = timeout;                 /* Store pend timeout in TCB                   */
  8041c0:	d0e71f17 	ldw	r3,-25476(gp)
  8041c4:	e0bff90b 	ldhu	r2,-28(fp)
  8041c8:	18800b8d 	sth	r2,46(r3)
    OS_EventTaskWaitMulti(pevents_pend);                /* Suspend task until events or timeout occurs */
  8041cc:	e13ff617 	ldw	r4,-40(fp)
  8041d0:	0804d940 	call	804d94 <OS_EventTaskWaitMulti>
  8041d4:	e0bff017 	ldw	r2,-64(fp)
  8041d8:	e0bfec15 	stw	r2,-80(fp)
  8041dc:	e0bfec17 	ldw	r2,-80(fp)
  8041e0:	1001703a 	wrctl	status,r2

    OS_EXIT_CRITICAL();
    OS_Sched();                                         /* Find next highest priority task ready       */
  8041e4:	08055300 	call	805530 <OS_Sched>
static ALT_INLINE alt_irq_context ALT_ALWAYS_INLINE 
       alt_irq_disable_all (void)
{
  alt_irq_context context;

  NIOS2_READ_STATUS (context);
  8041e8:	0005303a 	rdctl	r2,status
  8041ec:	e0bfeb15 	stw	r2,-84(fp)

  NIOS2_WRITE_STATUS (context & ~NIOS2_STATUS_PIE_MSK);
  8041f0:	e0ffeb17 	ldw	r3,-84(fp)
  8041f4:	00bfff84 	movi	r2,-2
  8041f8:	1884703a 	and	r2,r3,r2
  8041fc:	1001703a 	wrctl	status,r2
  
  return context;
  804200:	e0bfeb17 	ldw	r2,-84(fp)
    OS_ENTER_CRITICAL();
  804204:	e0bff015 	stw	r2,-64(fp)

    switch (OSTCBCur->OSTCBStatPend) {                  /* Handle event posted, aborted, or timed-out  */
  804208:	d0a71f17 	ldw	r2,-25476(gp)
  80420c:	10800c43 	ldbu	r2,49(r2)
  804210:	10803fcc 	andi	r2,r2,255
  804214:	e0bffc15 	stw	r2,-16(fp)
  804218:	e0fffc17 	ldw	r3,-16(fp)
  80421c:	1805003a 	cmpeq	r2,r3,zero
  804220:	1000041e 	bne	r2,zero,804234 <OSEventPendMulti+0x4d0>
  804224:	e0fffc17 	ldw	r3,-16(fp)
  804228:	188000a0 	cmpeqi	r2,r3,2
  80422c:	1000011e 	bne	r2,zero,804234 <OSEventPendMulti+0x4d0>
  804230:	00001906 	br	804298 <OSEventPendMulti+0x534>
        case OS_STAT_PEND_OK:
        case OS_STAT_PEND_ABORT:
             pevent = OSTCBCur->OSTCBEventPtr;
  804234:	d0a71f17 	ldw	r2,-25476(gp)
  804238:	10800717 	ldw	r2,28(r2)
  80423c:	e0bff415 	stw	r2,-48(fp)
             if (pevent != (OS_EVENT *)0) {             /* If task event ptr != NULL, ...              */
  804240:	e0bff417 	ldw	r2,-48(fp)
  804244:	1005003a 	cmpeq	r2,r2,zero
  804248:	10000c1e 	bne	r2,zero,80427c <OSEventPendMulti+0x518>
                *pevents_rdy++ =  pevent;               /* ... return available event ...              */
  80424c:	e0fff717 	ldw	r3,-36(fp)
  804250:	e0bff417 	ldw	r2,-48(fp)
  804254:	18800015 	stw	r2,0(r3)
  804258:	e0bff717 	ldw	r2,-36(fp)
  80425c:	10800104 	addi	r2,r2,4
  804260:	e0bff715 	stw	r2,-36(fp)
                *pevents_rdy   = (OS_EVENT *)0;         /* ... & NULL terminate return event array     */
  804264:	e0bff717 	ldw	r2,-36(fp)
  804268:	10000015 	stw	zero,0(r2)
                  events_rdy_nbr++;
  80426c:	e0bff18b 	ldhu	r2,-58(fp)
  804270:	10800044 	addi	r2,r2,1
  804274:	e0bff18d 	sth	r2,-58(fp)
  804278:	00000a06 	br	8042a4 <OSEventPendMulti+0x540>

             } else {                                   /* Else NO event available, handle as timeout  */
                 OSTCBCur->OSTCBStatPend = OS_STAT_PEND_TO;
  80427c:	d0a71f17 	ldw	r2,-25476(gp)
  804280:	00c00044 	movi	r3,1
  804284:	10c00c45 	stb	r3,49(r2)
                 OS_EventTaskRemoveMulti(OSTCBCur, pevents_pend);
  804288:	d1271f17 	ldw	r4,-25476(gp)
  80428c:	e17ff617 	ldw	r5,-40(fp)
  804290:	0804fa00 	call	804fa0 <OS_EventTaskRemoveMulti>
             }
			 break;
  804294:	00000306 	br	8042a4 <OSEventPendMulti+0x540>

        case OS_STAT_PEND_TO:
        default:                                        /* ... remove task from events' wait lists     */
             OS_EventTaskRemoveMulti(OSTCBCur, pevents_pend);
  804298:	d1271f17 	ldw	r4,-25476(gp)
  80429c:	e17ff617 	ldw	r5,-40(fp)
  8042a0:	0804fa00 	call	804fa0 <OS_EventTaskRemoveMulti>
             break;
    }

    switch (OSTCBCur->OSTCBStatPend) {
  8042a4:	d0a71f17 	ldw	r2,-25476(gp)
  8042a8:	10800c43 	ldbu	r2,49(r2)
  8042ac:	10803fcc 	andi	r2,r2,255
  8042b0:	e0bffb15 	stw	r2,-20(fp)
  8042b4:	e0fffb17 	ldw	r3,-20(fp)
  8042b8:	1805003a 	cmpeq	r2,r3,zero
  8042bc:	1000041e 	bne	r2,zero,8042d0 <OSEventPendMulti+0x56c>
  8042c0:	e0fffb17 	ldw	r3,-20(fp)
  8042c4:	188000a0 	cmpeqi	r2,r3,2
  8042c8:	10002c1e 	bne	r2,zero,80437c <OSEventPendMulti+0x618>
  8042cc:	00003406 	br	8043a0 <OSEventPendMulti+0x63c>
        case OS_STAT_PEND_OK:
             switch (pevent->OSEventType) {             /* Return event's message                      */
  8042d0:	e0bff417 	ldw	r2,-48(fp)
  8042d4:	10800003 	ldbu	r2,0(r2)
  8042d8:	10803fcc 	andi	r2,r2,255
  8042dc:	e0bffa15 	stw	r2,-24(fp)
  8042e0:	e0fffa17 	ldw	r3,-24(fp)
  8042e4:	18800050 	cmplti	r2,r3,1
  8042e8:	1000151e 	bne	r2,zero,804340 <OSEventPendMulti+0x5dc>
  8042ec:	e0fffa17 	ldw	r3,-24(fp)
  8042f0:	188000d0 	cmplti	r2,r3,3
  8042f4:	10000a1e 	bne	r2,zero,804320 <OSEventPendMulti+0x5bc>
  8042f8:	e0fffa17 	ldw	r3,-24(fp)
  8042fc:	188000e0 	cmpeqi	r2,r3,3
  804300:	1000011e 	bne	r2,zero,804308 <OSEventPendMulti+0x5a4>
  804304:	00000e06 	br	804340 <OSEventPendMulti+0x5dc>
#if (OS_SEM_EN > 0)
                 case OS_EVENT_TYPE_SEM:
                     *pmsgs_rdy++ = (void *)0;          /* NO message returned for semaphores          */
  804308:	e0bff817 	ldw	r2,-32(fp)
  80430c:	10000015 	stw	zero,0(r2)
  804310:	e0bff817 	ldw	r2,-32(fp)
  804314:	10800104 	addi	r2,r2,4
  804318:	e0bff815 	stw	r2,-32(fp)
                      break;
  80431c:	00001406 	br	804370 <OSEventPendMulti+0x60c>

#if ((OS_MBOX_EN > 0) ||                 \
    ((OS_Q_EN    > 0) && (OS_MAX_QS > 0)))
                 case OS_EVENT_TYPE_MBOX:
                 case OS_EVENT_TYPE_Q:
                     *pmsgs_rdy++ = (void *)OSTCBCur->OSTCBMsg;     /* Return received message         */
  804320:	d0a71f17 	ldw	r2,-25476(gp)
  804324:	10c00917 	ldw	r3,36(r2)
  804328:	e0bff817 	ldw	r2,-32(fp)
  80432c:	10c00015 	stw	r3,0(r2)
  804330:	e0bff817 	ldw	r2,-32(fp)
  804334:	10800104 	addi	r2,r2,4
  804338:	e0bff815 	stw	r2,-32(fp)
                      break;
  80433c:	00000c06 	br	804370 <OSEventPendMulti+0x60c>
  804340:	e0bff017 	ldw	r2,-64(fp)
  804344:	e0bfea15 	stw	r2,-88(fp)
  status &= ~NIOS2_STATUS_PIE_MSK;
  status |= (context & NIOS2_STATUS_PIE_MSK);
  
  NIOS2_WRITE_STATUS (status);
#else
  NIOS2_WRITE_STATUS (context);
  804348:	e0bfea17 	ldw	r2,-88(fp)
  80434c:	1001703a 	wrctl	status,r2

                 case OS_EVENT_TYPE_MUTEX:                                       
                 case OS_EVENT_TYPE_FLAG:
                 default:           
                      OS_EXIT_CRITICAL();
                     *pevents_rdy = (OS_EVENT *)0;      /* NULL terminate return event array           */
  804350:	e0bff717 	ldw	r2,-36(fp)
  804354:	10000015 	stw	zero,0(r2)
                     *perr        =  OS_ERR_EVENT_TYPE;
  804358:	e0c00217 	ldw	r3,8(fp)
  80435c:	00800044 	movi	r2,1
  804360:	18800005 	stb	r2,0(r3)
                      return (events_rdy_nbr);
  804364:	e0bff18b 	ldhu	r2,-58(fp)
  804368:	e0bfff15 	stw	r2,-4(fp)
  80436c:	00002406 	br	804400 <OSEventPendMulti+0x69c>
             }
            *perr = OS_ERR_NONE;
  804370:	e0800217 	ldw	r2,8(fp)
  804374:	10000005 	stb	zero,0(r2)
             break;
  804378:	00001106 	br	8043c0 <OSEventPendMulti+0x65c>

        case OS_STAT_PEND_ABORT:
            *pmsgs_rdy++ = (void *)0;                   /* NO message returned for abort               */
  80437c:	e0bff817 	ldw	r2,-32(fp)
  804380:	10000015 	stw	zero,0(r2)
  804384:	e0bff817 	ldw	r2,-32(fp)
  804388:	10800104 	addi	r2,r2,4
  80438c:	e0bff815 	stw	r2,-32(fp)
            *perr        =  OS_ERR_PEND_ABORT;          /* Indicate that event  aborted                */
  804390:	e0c00217 	ldw	r3,8(fp)
  804394:	00800384 	movi	r2,14
  804398:	18800005 	stb	r2,0(r3)
             break;
  80439c:	00000806 	br	8043c0 <OSEventPendMulti+0x65c>
                                                        
        case OS_STAT_PEND_TO:                                                
        default:        
            *pmsgs_rdy++ = (void *)0;                   /* NO message returned for timeout             */
  8043a0:	e0bff817 	ldw	r2,-32(fp)
  8043a4:	10000015 	stw	zero,0(r2)
  8043a8:	e0bff817 	ldw	r2,-32(fp)
  8043ac:	10800104 	addi	r2,r2,4
  8043b0:	e0bff815 	stw	r2,-32(fp)
            *perr        =  OS_ERR_TIMEOUT;             /* Indicate that events timed out              */
  8043b4:	e0c00217 	ldw	r3,8(fp)
  8043b8:	00800284 	movi	r2,10
  8043bc:	18800005 	stb	r2,0(r3)
             break;
    }

    OSTCBCur->OSTCBStat          =  OS_STAT_RDY;        /* Set   task  status to ready                 */
  8043c0:	d0a71f17 	ldw	r2,-25476(gp)
  8043c4:	10000c05 	stb	zero,48(r2)
    OSTCBCur->OSTCBStatPend      =  OS_STAT_PEND_OK;    /* Clear pend  status                          */
  8043c8:	d0a71f17 	ldw	r2,-25476(gp)
  8043cc:	10000c45 	stb	zero,49(r2)
    OSTCBCur->OSTCBEventPtr      = (OS_EVENT  *)0;      /* Clear event pointers                        */
  8043d0:	d0a71f17 	ldw	r2,-25476(gp)
  8043d4:	10000715 	stw	zero,28(r2)
    OSTCBCur->OSTCBEventMultiPtr = (OS_EVENT **)0;
  8043d8:	d0a71f17 	ldw	r2,-25476(gp)
  8043dc:	10000815 	stw	zero,32(r2)
    OSTCBCur->OSTCBMsg           = (void      *)0;      /* Clear task  message                         */
  8043e0:	d0a71f17 	ldw	r2,-25476(gp)
  8043e4:	10000915 	stw	zero,36(r2)
  8043e8:	e0bff017 	ldw	r2,-64(fp)
  8043ec:	e0bfe915 	stw	r2,-92(fp)
  8043f0:	e0bfe917 	ldw	r2,-92(fp)
  8043f4:	1001703a 	wrctl	status,r2
    OS_EXIT_CRITICAL();

    return (events_rdy_nbr);
  8043f8:	e0fff18b 	ldhu	r3,-58(fp)
  8043fc:	e0ffff15 	stw	r3,-4(fp)
  804400:	e0bfff17 	ldw	r2,-4(fp)
}
  804404:	e037883a 	mov	sp,fp
  804408:	dfc00117 	ldw	ra,4(sp)
  80440c:	df000017 	ldw	fp,0(sp)
  804410:	dec00204 	addi	sp,sp,8
  804414:	f800283a 	ret

00804418 <OSInit>:
* Returns    : none
*********************************************************************************************************
*/

void  OSInit (void)
{
  804418:	defffe04 	addi	sp,sp,-8
  80441c:	dfc00115 	stw	ra,4(sp)
  804420:	df000015 	stw	fp,0(sp)
  804424:	d839883a 	mov	fp,sp
    OSInitHookBegin();                                           /* Call port specific initialization code   */
  804428:	080f2000 	call	80f200 <OSInitHookBegin>

    OS_InitMisc();                                               /* Initialize miscellaneous variables       */
  80442c:	08051e80 	call	8051e8 <OS_InitMisc>

    OS_InitRdyList();                                            /* Initialize the Ready List                */
  804430:	080522c0 	call	80522c <OS_InitRdyList>

    OS_InitTCBList();                                            /* Initialize the free list of OS_TCBs      */
  804434:	08053900 	call	805390 <OS_InitTCBList>

    OS_InitEventList();                                          /* Initialize the free list of OS_EVENTs    */
  804438:	080510c0 	call	80510c <OS_InitEventList>

#if (OS_FLAG_EN > 0) && (OS_MAX_FLAGS > 0)
    OS_FlagInit();                                               /* Initialize the event flag structures     */
  80443c:	08074400 	call	807440 <OS_FlagInit>
#endif

#if (OS_MEM_EN > 0) && (OS_MAX_MEM_PART > 0)
    OS_MemInit();                                                /* Initialize the memory manager            */
  804440:	0807e180 	call	807e18 <OS_MemInit>
#endif

#if (OS_Q_EN > 0) && (OS_MAX_QS > 0)
    OS_QInit();                                                  /* Initialize the message queue structures  */
  804444:	08091700 	call	809170 <OS_QInit>
#endif

    OS_InitTaskIdle();                                           /* Create the Idle Task                     */
  804448:	08052980 	call	805298 <OS_InitTaskIdle>
#if OS_TASK_STAT_EN > 0
    OS_InitTaskStat();                                           /* Create the Statistic Task                */
  80444c:	08053140 	call	805314 <OS_InitTaskStat>

#if OS_TMR_EN > 0
    OSTmr_Init();                                                /* Initialize the Timer Manager             */
#endif

    OSInitHookEnd();                                             /* Call port specific init. code            */
  804450:	080f21c0 	call	80f21c <OSInitHookEnd>

#if OS_DEBUG_EN > 0
    OSDebugInit();
  804454:	0805c180 	call	805c18 <OSDebugInit>
#endif
}
  804458:	e037883a 	mov	sp,fp
  80445c:	dfc00117 	ldw	ra,4(sp)
  804460:	df000017 	ldw	fp,0(sp)
  804464:	dec00204 	addi	sp,sp,8
  804468:	f800283a 	ret

0080446c <OSIntEnter>:
*              5) You are allowed to nest interrupts up to 255 levels deep.
*********************************************************************************************************
*/

void  OSIntEnter (void)
{
  80446c:	defffc04 	addi	sp,sp,-16
  804470:	df000315 	stw	fp,12(sp)
  804474:	df000304 	addi	fp,sp,12
#if OS_CRITICAL_METHOD == 3                                /* Allocate storage for CPU status register */
    OS_CPU_SR  cpu_sr = 0;
  804478:	e03fff15 	stw	zero,-4(fp)
#endif

    if (OSRunning == OS_TRUE) {
  80447c:	d0a71043 	ldbu	r2,-25535(gp)
  804480:	10803fcc 	andi	r2,r2,255
  804484:	10800058 	cmpnei	r2,r2,1
  804488:	1000131e 	bne	r2,zero,8044d8 <OSIntEnter+0x6c>
static ALT_INLINE alt_irq_context ALT_ALWAYS_INLINE 
       alt_irq_disable_all (void)
{
  alt_irq_context context;

  NIOS2_READ_STATUS (context);
  80448c:	0005303a 	rdctl	r2,status
  804490:	e0bffe15 	stw	r2,-8(fp)

  NIOS2_WRITE_STATUS (context & ~NIOS2_STATUS_PIE_MSK);
  804494:	e0fffe17 	ldw	r3,-8(fp)
  804498:	00bfff84 	movi	r2,-2
  80449c:	1884703a 	and	r2,r3,r2
  8044a0:	1001703a 	wrctl	status,r2
  
  return context;
  8044a4:	e0bffe17 	ldw	r2,-8(fp)
        OS_ENTER_CRITICAL();
  8044a8:	e0bfff15 	stw	r2,-4(fp)
        if (OSIntNesting < 255u) {
  8044ac:	d0a71e03 	ldbu	r2,-25480(gp)
  8044b0:	10803fcc 	andi	r2,r2,255
  8044b4:	10803fe0 	cmpeqi	r2,r2,255
  8044b8:	1000031e 	bne	r2,zero,8044c8 <OSIntEnter+0x5c>
            OSIntNesting++;                      /* Increment ISR nesting level                        */
  8044bc:	d0a71e03 	ldbu	r2,-25480(gp)
  8044c0:	10800044 	addi	r2,r2,1
  8044c4:	d0a71e05 	stb	r2,-25480(gp)
  8044c8:	e0bfff17 	ldw	r2,-4(fp)
  8044cc:	e0bffd15 	stw	r2,-12(fp)
  status &= ~NIOS2_STATUS_PIE_MSK;
  status |= (context & NIOS2_STATUS_PIE_MSK);
  
  NIOS2_WRITE_STATUS (status);
#else
  NIOS2_WRITE_STATUS (context);
  8044d0:	e0bffd17 	ldw	r2,-12(fp)
  8044d4:	1001703a 	wrctl	status,r2
        }
        OS_EXIT_CRITICAL();
    }
}
  8044d8:	e037883a 	mov	sp,fp
  8044dc:	df000017 	ldw	fp,0(sp)
  8044e0:	dec00104 	addi	sp,sp,4
  8044e4:	f800283a 	ret

008044e8 <OSIntExit>:
*              2) Rescheduling is prevented when the scheduler is locked (see OS_SchedLock())
*********************************************************************************************************
*/

void  OSIntExit (void)
{
  8044e8:	defffb04 	addi	sp,sp,-20
  8044ec:	dfc00415 	stw	ra,16(sp)
  8044f0:	df000315 	stw	fp,12(sp)
  8044f4:	df000304 	addi	fp,sp,12
#if OS_CRITICAL_METHOD == 3                                /* Allocate storage for CPU status register */
    OS_CPU_SR  cpu_sr = 0;
  8044f8:	e03fff15 	stw	zero,-4(fp)
#endif



    if (OSRunning == OS_TRUE) {
  8044fc:	d0a71043 	ldbu	r2,-25535(gp)
  804500:	10803fcc 	andi	r2,r2,255
  804504:	10800058 	cmpnei	r2,r2,1
  804508:	1000321e 	bne	r2,zero,8045d4 <OSIntExit+0xec>
static ALT_INLINE alt_irq_context ALT_ALWAYS_INLINE 
       alt_irq_disable_all (void)
{
  alt_irq_context context;

  NIOS2_READ_STATUS (context);
  80450c:	0005303a 	rdctl	r2,status
  804510:	e0bffe15 	stw	r2,-8(fp)

  NIOS2_WRITE_STATUS (context & ~NIOS2_STATUS_PIE_MSK);
  804514:	e0fffe17 	ldw	r3,-8(fp)
  804518:	00bfff84 	movi	r2,-2
  80451c:	1884703a 	and	r2,r3,r2
  804520:	1001703a 	wrctl	status,r2
  
  return context;
  804524:	e0bffe17 	ldw	r2,-8(fp)
        OS_ENTER_CRITICAL();
  804528:	e0bfff15 	stw	r2,-4(fp)
        if (OSIntNesting > 0) {                            /* Prevent OSIntNesting from wrapping       */
  80452c:	d0a71e03 	ldbu	r2,-25480(gp)
  804530:	10803fcc 	andi	r2,r2,255
  804534:	1005003a 	cmpeq	r2,r2,zero
  804538:	1000031e 	bne	r2,zero,804548 <OSIntExit+0x60>
            OSIntNesting--;
  80453c:	d0a71e03 	ldbu	r2,-25480(gp)
  804540:	10bfffc4 	addi	r2,r2,-1
  804544:	d0a71e05 	stb	r2,-25480(gp)
        }
        if (OSIntNesting == 0) {                           /* Reschedule only if all ISRs complete ... */
  804548:	d0a71e03 	ldbu	r2,-25480(gp)
  80454c:	10803fcc 	andi	r2,r2,255
  804550:	1004c03a 	cmpne	r2,r2,zero
  804554:	10001b1e 	bne	r2,zero,8045c4 <OSIntExit+0xdc>
            if (OSLockNesting == 0) {                      /* ... and not locked.                      */
  804558:	d0a71003 	ldbu	r2,-25536(gp)
  80455c:	10803fcc 	andi	r2,r2,255
  804560:	1004c03a 	cmpne	r2,r2,zero
  804564:	1000171e 	bne	r2,zero,8045c4 <OSIntExit+0xdc>
                OS_SchedNew();
  804568:	08056040 	call	805604 <OS_SchedNew>
                if (OSPrioHighRdy != OSPrioCur) {          /* No Ctx Sw if current task is highest rdy */
  80456c:	d0a71203 	ldbu	r2,-25528(gp)
  804570:	d0e71243 	ldbu	r3,-25527(gp)
  804574:	11003fcc 	andi	r4,r2,255
  804578:	18803fcc 	andi	r2,r3,255
  80457c:	20801126 	beq	r4,r2,8045c4 <OSIntExit+0xdc>
                    OSTCBHighRdy  = OSTCBPrioTbl[OSPrioHighRdy];
  804580:	d0a71203 	ldbu	r2,-25528(gp)
  804584:	10803fcc 	andi	r2,r2,255
  804588:	00c020b4 	movhi	r3,130
  80458c:	18e18504 	addi	r3,r3,-31212
  804590:	1085883a 	add	r2,r2,r2
  804594:	1085883a 	add	r2,r2,r2
  804598:	10c5883a 	add	r2,r2,r3
  80459c:	10800017 	ldw	r2,0(r2)
  8045a0:	d0a71a15 	stw	r2,-25496(gp)
#if OS_TASK_PROFILE_EN > 0
                    OSTCBHighRdy->OSTCBCtxSwCtr++;         /* Inc. # of context switches to this task  */
  8045a4:	d0e71a17 	ldw	r3,-25496(gp)
  8045a8:	18800e17 	ldw	r2,56(r3)
  8045ac:	10800044 	addi	r2,r2,1
  8045b0:	18800e15 	stw	r2,56(r3)
#endif
                    OSCtxSwCtr++;                          /* Keep track of the number of ctx switches */
  8045b4:	d0a71517 	ldw	r2,-25516(gp)
  8045b8:	10800044 	addi	r2,r2,1
  8045bc:	d0a71515 	stw	r2,-25516(gp)
                    OSIntCtxSw();                          /* Perform interrupt level ctx switch       */
  8045c0:	080ed8c0 	call	80ed8c <OSCtxSw>
  8045c4:	e0bfff17 	ldw	r2,-4(fp)
  8045c8:	e0bffd15 	stw	r2,-12(fp)
  status &= ~NIOS2_STATUS_PIE_MSK;
  status |= (context & NIOS2_STATUS_PIE_MSK);
  
  NIOS2_WRITE_STATUS (status);
#else
  NIOS2_WRITE_STATUS (context);
  8045cc:	e0bffd17 	ldw	r2,-12(fp)
  8045d0:	1001703a 	wrctl	status,r2
                }
            }
        }
        OS_EXIT_CRITICAL();
    }
}
  8045d4:	e037883a 	mov	sp,fp
  8045d8:	dfc00117 	ldw	ra,4(sp)
  8045dc:	df000017 	ldw	fp,0(sp)
  8045e0:	dec00204 	addi	sp,sp,8
  8045e4:	f800283a 	ret

008045e8 <OSSchedLock>:
*********************************************************************************************************
*/

#if OS_SCHED_LOCK_EN > 0
void  OSSchedLock (void)
{
  8045e8:	defffc04 	addi	sp,sp,-16
  8045ec:	df000315 	stw	fp,12(sp)
  8045f0:	df000304 	addi	fp,sp,12
#if OS_CRITICAL_METHOD == 3                      /* Allocate storage for CPU status register           */
    OS_CPU_SR  cpu_sr = 0;
  8045f4:	e03fff15 	stw	zero,-4(fp)
#endif



    if (OSRunning == OS_TRUE) {                  /* Make sure multitasking is running                  */
  8045f8:	d0a71043 	ldbu	r2,-25535(gp)
  8045fc:	10803fcc 	andi	r2,r2,255
  804600:	10800058 	cmpnei	r2,r2,1
  804604:	1000171e 	bne	r2,zero,804664 <OSSchedLock+0x7c>
static ALT_INLINE alt_irq_context ALT_ALWAYS_INLINE 
       alt_irq_disable_all (void)
{
  alt_irq_context context;

  NIOS2_READ_STATUS (context);
  804608:	0005303a 	rdctl	r2,status
  80460c:	e0bffe15 	stw	r2,-8(fp)

  NIOS2_WRITE_STATUS (context & ~NIOS2_STATUS_PIE_MSK);
  804610:	e0fffe17 	ldw	r3,-8(fp)
  804614:	00bfff84 	movi	r2,-2
  804618:	1884703a 	and	r2,r3,r2
  80461c:	1001703a 	wrctl	status,r2
  
  return context;
  804620:	e0bffe17 	ldw	r2,-8(fp)
        OS_ENTER_CRITICAL();
  804624:	e0bfff15 	stw	r2,-4(fp)
        if (OSIntNesting == 0) {                 /* Can't call from an ISR                             */
  804628:	d0a71e03 	ldbu	r2,-25480(gp)
  80462c:	10803fcc 	andi	r2,r2,255
  804630:	1004c03a 	cmpne	r2,r2,zero
  804634:	1000071e 	bne	r2,zero,804654 <OSSchedLock+0x6c>
            if (OSLockNesting < 255u) {          /* Prevent OSLockNesting from wrapping back to 0      */
  804638:	d0a71003 	ldbu	r2,-25536(gp)
  80463c:	10803fcc 	andi	r2,r2,255
  804640:	10803fe0 	cmpeqi	r2,r2,255
  804644:	1000031e 	bne	r2,zero,804654 <OSSchedLock+0x6c>
                OSLockNesting++;                 /* Increment lock nesting level                       */
  804648:	d0a71003 	ldbu	r2,-25536(gp)
  80464c:	10800044 	addi	r2,r2,1
  804650:	d0a71005 	stb	r2,-25536(gp)
  804654:	e0bfff17 	ldw	r2,-4(fp)
  804658:	e0bffd15 	stw	r2,-12(fp)
  status &= ~NIOS2_STATUS_PIE_MSK;
  status |= (context & NIOS2_STATUS_PIE_MSK);
  
  NIOS2_WRITE_STATUS (status);
#else
  NIOS2_WRITE_STATUS (context);
  80465c:	e0bffd17 	ldw	r2,-12(fp)
  804660:	1001703a 	wrctl	status,r2
            }
        }
        OS_EXIT_CRITICAL();
    }
}
  804664:	e037883a 	mov	sp,fp
  804668:	df000017 	ldw	fp,0(sp)
  80466c:	dec00104 	addi	sp,sp,4
  804670:	f800283a 	ret

00804674 <OSSchedUnlock>:
*********************************************************************************************************
*/

#if OS_SCHED_LOCK_EN > 0
void  OSSchedUnlock (void)
{
  804674:	defff804 	addi	sp,sp,-32
  804678:	dfc00715 	stw	ra,28(sp)
  80467c:	df000615 	stw	fp,24(sp)
  804680:	df000604 	addi	fp,sp,24
#if OS_CRITICAL_METHOD == 3                                /* Allocate storage for CPU status register */
    OS_CPU_SR  cpu_sr = 0;
  804684:	e03fff15 	stw	zero,-4(fp)
#endif



    if (OSRunning == OS_TRUE) {                            /* Make sure multitasking is running        */
  804688:	d0a71043 	ldbu	r2,-25535(gp)
  80468c:	10803fcc 	andi	r2,r2,255
  804690:	10800058 	cmpnei	r2,r2,1
  804694:	10002b1e 	bne	r2,zero,804744 <OSSchedUnlock+0xd0>
static ALT_INLINE alt_irq_context ALT_ALWAYS_INLINE 
       alt_irq_disable_all (void)
{
  alt_irq_context context;

  NIOS2_READ_STATUS (context);
  804698:	0005303a 	rdctl	r2,status
  80469c:	e0bffe15 	stw	r2,-8(fp)

  NIOS2_WRITE_STATUS (context & ~NIOS2_STATUS_PIE_MSK);
  8046a0:	e0fffe17 	ldw	r3,-8(fp)
  8046a4:	00bfff84 	movi	r2,-2
  8046a8:	1884703a 	and	r2,r3,r2
  8046ac:	1001703a 	wrctl	status,r2
  
  return context;
  8046b0:	e0bffe17 	ldw	r2,-8(fp)
        OS_ENTER_CRITICAL();
  8046b4:	e0bfff15 	stw	r2,-4(fp)
        if (OSLockNesting > 0) {                           /* Do not decrement if already 0            */
  8046b8:	d0a71003 	ldbu	r2,-25536(gp)
  8046bc:	10803fcc 	andi	r2,r2,255
  8046c0:	1005003a 	cmpeq	r2,r2,zero
  8046c4:	10001b1e 	bne	r2,zero,804734 <OSSchedUnlock+0xc0>
            OSLockNesting--;                               /* Decrement lock nesting level             */
  8046c8:	d0a71003 	ldbu	r2,-25536(gp)
  8046cc:	10bfffc4 	addi	r2,r2,-1
  8046d0:	d0a71005 	stb	r2,-25536(gp)
            if (OSLockNesting == 0) {                      /* See if scheduler is enabled and ...      */
  8046d4:	d0a71003 	ldbu	r2,-25536(gp)
  8046d8:	10803fcc 	andi	r2,r2,255
  8046dc:	1004c03a 	cmpne	r2,r2,zero
  8046e0:	10000f1e 	bne	r2,zero,804720 <OSSchedUnlock+0xac>
                if (OSIntNesting == 0) {                   /* ... not in an ISR                        */
  8046e4:	d0a71e03 	ldbu	r2,-25480(gp)
  8046e8:	10803fcc 	andi	r2,r2,255
  8046ec:	1004c03a 	cmpne	r2,r2,zero
  8046f0:	1000061e 	bne	r2,zero,80470c <OSSchedUnlock+0x98>
  8046f4:	e0bfff17 	ldw	r2,-4(fp)
  8046f8:	e0bffd15 	stw	r2,-12(fp)
  status &= ~NIOS2_STATUS_PIE_MSK;
  status |= (context & NIOS2_STATUS_PIE_MSK);
  
  NIOS2_WRITE_STATUS (status);
#else
  NIOS2_WRITE_STATUS (context);
  8046fc:	e0bffd17 	ldw	r2,-12(fp)
  804700:	1001703a 	wrctl	status,r2
                    OS_EXIT_CRITICAL();
                    OS_Sched();                            /* See if a HPT is ready                    */
  804704:	08055300 	call	805530 <OS_Sched>
  804708:	00000e06 	br	804744 <OSSchedUnlock+0xd0>
  80470c:	e0bfff17 	ldw	r2,-4(fp)
  804710:	e0bffc15 	stw	r2,-16(fp)
  804714:	e0bffc17 	ldw	r2,-16(fp)
  804718:	1001703a 	wrctl	status,r2
  80471c:	00000906 	br	804744 <OSSchedUnlock+0xd0>
  804720:	e0bfff17 	ldw	r2,-4(fp)
  804724:	e0bffb15 	stw	r2,-20(fp)
  804728:	e0bffb17 	ldw	r2,-20(fp)
  80472c:	1001703a 	wrctl	status,r2
  804730:	00000406 	br	804744 <OSSchedUnlock+0xd0>
  804734:	e0bfff17 	ldw	r2,-4(fp)
  804738:	e0bffa15 	stw	r2,-24(fp)
  80473c:	e0bffa17 	ldw	r2,-24(fp)
  804740:	1001703a 	wrctl	status,r2
            }
        } else {
            OS_EXIT_CRITICAL();
        }
    }
}
  804744:	e037883a 	mov	sp,fp
  804748:	dfc00117 	ldw	ra,4(sp)
  80474c:	df000017 	ldw	fp,0(sp)
  804750:	dec00204 	addi	sp,sp,8
  804754:	f800283a 	ret

00804758 <OSStart>:
*                 d_ Execute the task.
*********************************************************************************************************
*/

void  OSStart (void)
{
  804758:	defffe04 	addi	sp,sp,-8
  80475c:	dfc00115 	stw	ra,4(sp)
  804760:	df000015 	stw	fp,0(sp)
  804764:	d839883a 	mov	fp,sp
    if (OSRunning == OS_FALSE) {
  804768:	d0a71043 	ldbu	r2,-25535(gp)
  80476c:	10803fcc 	andi	r2,r2,255
  804770:	1004c03a 	cmpne	r2,r2,zero
  804774:	10000f1e 	bne	r2,zero,8047b4 <OSStart+0x5c>
        OS_SchedNew();                               /* Find highest priority's task priority number   */
  804778:	08056040 	call	805604 <OS_SchedNew>
        OSPrioCur     = OSPrioHighRdy;
  80477c:	d0a71203 	ldbu	r2,-25528(gp)
  804780:	d0a71245 	stb	r2,-25527(gp)
        OSTCBHighRdy  = OSTCBPrioTbl[OSPrioHighRdy]; /* Point to highest priority task ready to run    */
  804784:	d0a71203 	ldbu	r2,-25528(gp)
  804788:	10803fcc 	andi	r2,r2,255
  80478c:	00c020b4 	movhi	r3,130
  804790:	18e18504 	addi	r3,r3,-31212
  804794:	1085883a 	add	r2,r2,r2
  804798:	1085883a 	add	r2,r2,r2
  80479c:	10c5883a 	add	r2,r2,r3
  8047a0:	10800017 	ldw	r2,0(r2)
  8047a4:	d0a71a15 	stw	r2,-25496(gp)
        OSTCBCur      = OSTCBHighRdy;
  8047a8:	d0a71a17 	ldw	r2,-25496(gp)
  8047ac:	d0a71f15 	stw	r2,-25476(gp)
        OSStartHighRdy();                            /* Execute target specific code to start task     */
  8047b0:	080ee180 	call	80ee18 <OSStartHighRdy>
    }
}
  8047b4:	e037883a 	mov	sp,fp
  8047b8:	dfc00117 	ldw	ra,4(sp)
  8047bc:	df000017 	ldw	fp,0(sp)
  8047c0:	dec00204 	addi	sp,sp,8
  8047c4:	f800283a 	ret

008047c8 <OSStatInit>:
*********************************************************************************************************
*/

#if OS_TASK_STAT_EN > 0
void  OSStatInit (void)
{
  8047c8:	defff904 	addi	sp,sp,-28
  8047cc:	dfc00615 	stw	ra,24(sp)
  8047d0:	df000515 	stw	fp,20(sp)
  8047d4:	df000504 	addi	fp,sp,20
#if OS_CRITICAL_METHOD == 3                      /* Allocate storage for CPU status register           */
    OS_CPU_SR  cpu_sr = 0;
  8047d8:	e03fff15 	stw	zero,-4(fp)
#endif



    OSTimeDly(2);                                /* Synchronize with clock tick                        */
  8047dc:	01000084 	movi	r4,2
  8047e0:	080b8240 	call	80b824 <OSTimeDly>
static ALT_INLINE alt_irq_context ALT_ALWAYS_INLINE 
       alt_irq_disable_all (void)
{
  alt_irq_context context;

  NIOS2_READ_STATUS (context);
  8047e4:	0005303a 	rdctl	r2,status
  8047e8:	e0bffe15 	stw	r2,-8(fp)

  NIOS2_WRITE_STATUS (context & ~NIOS2_STATUS_PIE_MSK);
  8047ec:	e0fffe17 	ldw	r3,-8(fp)
  8047f0:	00bfff84 	movi	r2,-2
  8047f4:	1884703a 	and	r2,r3,r2
  8047f8:	1001703a 	wrctl	status,r2
  
  return context;
  8047fc:	e0bffe17 	ldw	r2,-8(fp)
    OS_ENTER_CRITICAL();
  804800:	e0bfff15 	stw	r2,-4(fp)
    OSIdleCtr    = 0L;                           /* Clear idle counter                                 */
  804804:	d0271115 	stw	zero,-25532(gp)
  804808:	e0bfff17 	ldw	r2,-4(fp)
